(lp0
(dp1
S'vps'
p2
I0
sS'pps'
p3
I0
sS'JJ'
p4
I2
sS'type1'
p5
VDisorder
p6
sS'nps'
p7
I0
sS'JJ-NP'
p8
I2
sS'NN'
p9
I2
sS'NNS-NP'
p10
I2
sS'NN-NP'
p11
I2
sS'word_gap'
p12
I1
sS'NNS'
p13
I2
sa(dp14
S'JJ-NP'
p15
I1
sS'NN'
p16
I1
sg2
I0
sS'NNS'
p17
I2
sS'NNS-NP'
p18
I2
sg3
I0
sS'NN-NP'
p19
I1
sg12
I5
sS'JJ'
p20
I1
sg5
VDisorder
p21
sg7
I0
sa(dp22
S'JJ-NP'
p23
I1
sS'NN'
p24
I1
sg2
I0
sS'VBN'
p25
I1
sg3
I0
sS'NN-NP'
p26
I1
sg12
I4
sS'JJ'
p27
I1
sS'NNP-NP'
p28
I1
sS'VBN-VP'
p29
I1
sg5
VDrug
p30
sg7
I0
sS'NNP'
p31
I1
sa(dp32
S'VBG'
p33
I1
sg2
I0
sS'VBD'
p34
I1
sS'VBD-VP'
p35
I1
sS'VBN'
p36
I1
sS'CD'
p37
I1
sg3
I0
sS'JJ'
p38
I2
sS'RB-VP'
p39
I1
sg5
VDisorder
p40
sg7
I2
sS'VBN-VP'
p41
I1
sS'JJ-NP'
p42
I2
sS'CD-NP'
p43
I1
sS'NN'
p44
I4
sS'VBG-VP'
p45
I1
sS'NN-NP'
p46
I4
sg12
I6
sS'RB'
p47
I1
sS'NNS'
p48
I1
sS'NNS-NP'
p49
I1
sa(dp50
S'VBG'
p51
I1
sg2
I0
sS'VBD'
p52
I1
sS'VBD-VP'
p53
I1
sS'VBN'
p54
I1
sS'CD'
p55
I1
sg3
I0
sS'JJ'
p56
I1
sS'RB-VP'
p57
I1
sg5
VDrug
p58
sg7
I0
sS'VBN-VP'
p59
I1
sS'JJ-NP'
p60
I1
sS'CD-NP'
p61
I1
sS'NN'
p62
I1
sS'VBG-VP'
p63
I1
sS'NN-NP'
p64
I1
sg12
I12
sS'RB'
p65
I1
sS'NNS'
p66
I3
sS'NNS-NP'
p67
I3
sa(dp68
S'VBG'
p69
I2
sg2
I2
sS'VBD'
p70
I1
sS'VBD-VP'
p71
I1
sS'CD'
p72
I1
sg3
I2
sS'JJ'
p73
I6
sS'IN'
p74
I2
sS'RB-VP'
p75
I1
sg5
VDrug
p76
sg7
I8
sS'JJ-NP'
p77
I6
sS'CD-NP'
p78
I1
sS'NN'
p79
I10
sS'IN-PP'
p80
I2
sS'NNS-NP'
p81
I3
sS'VBG-VP'
p82
I2
sS'NN-NP'
p83
I10
sg12
I2
sS'RB'
p84
I1
sS'NNS'
p85
I3
sa(dp86
S'VBG'
p87
I2
sg2
I0
sS'VBD'
p88
I1
sS'VBD-VP'
p89
I1
sS'CD'
p90
I1
sg3
I2
sS'JJ'
p91
I3
sS'IN'
p92
I2
sS'RB-VP'
p93
I1
sg5
VDrug
p94
sg7
I1
sS'JJ-NP'
p95
I3
sS'CD-NP'
p96
I1
sS'NN'
p97
I2
sS'IN-PP'
p98
I2
sS'NNS-NP'
p99
I1
sS'VBG-VP'
p100
I2
sS'NN-NP'
p101
I2
sg12
I2
sS'RB'
p102
I1
sS'NNS'
p103
I1
sa(dp104
S'VBG'
p105
I2
sg2
I0
sS'VBD'
p106
I1
sS'VBD-VP'
p107
I1
sS'CD'
p108
I1
sg3
I2
sS'JJ'
p109
I3
sS'IN'
p110
I2
sS'RB-VP'
p111
I1
sg5
VDrug
p112
sg7
I1
sS'JJ-NP'
p113
I3
sS'CD-NP'
p114
I1
sS'NN'
p115
I2
sS'IN-PP'
p116
I2
sS'NNS-NP'
p117
I1
sS'VBG-VP'
p118
I2
sS'NN-NP'
p119
I2
sg12
I2
sS'RB'
p120
I1
sS'NNS'
p121
I1
sa(dp122
S'VBG'
p123
I2
sg2
I2
sS'VBD'
p124
I1
sS'VBD-VP'
p125
I1
sS'CD'
p126
I1
sg3
I2
sS'JJ'
p127
I6
sS'IN'
p128
I2
sS'RB-VP'
p129
I1
sg5
VDrug
p130
sg7
I8
sS'JJ-NP'
p131
I6
sS'CD-NP'
p132
I1
sS'NN'
p133
I10
sS'IN-PP'
p134
I2
sS'NNS-NP'
p135
I3
sS'VBG-VP'
p136
I2
sS'NN-NP'
p137
I10
sg12
I6
sS'RB'
p138
I1
sS'NNS'
p139
I3
sa(dp140
g2
I0
sS'VBN'
p141
I1
sg3
I0
sS'JJ'
p142
I4
sS'IN'
p143
I1
sg5
VDrug
p144
sg7
I0
sS'VBN-VP'
p145
I1
sS'JJ-NP'
p146
I4
sS'NN'
p147
I3
sS'IN-PP'
p148
I1
sS'NNS-NP'
p149
I1
sS'NN-NP'
p150
I3
sg12
I1
sS'NNS'
p151
I1
sa(dp152
g2
I0
sg3
I0
sS'JJ'
p153
I2
sS'NNP-NP'
p154
I1
sg5
VDrug
p155
sg7
I1
sS'JJ-NP'
p156
I2
sS'NN'
p157
I1
sS'NNS-NP'
p158
I3
sS'NN-NP'
p159
I1
sg12
I2
sS'NNS'
p160
I3
sS'NNP'
p161
I1
sa(dp162
g2
I0
sg3
I0
sS'JJ'
p163
I1
sS'NNP-NP'
p164
I1
sg5
VDrug
p165
sg7
I0
sS'JJ-NP'
p166
I1
sS'NN'
p167
I2
sS'NNS-NP'
p168
I4
sS'NN-NP'
p169
I2
sg12
I2
sS'NNS'
p170
I4
sS'NNP'
p171
I1
sa(dp172
S'VB'
p173
I1
sg2
I0
sg3
I0
sS'JJ'
p174
I2
sS'NNP-NP'
p175
I2
sg5
VDrug
p176
sg7
I5
sS'JJ-NP'
p177
I2
sS'VB-VP'
p178
I1
sS'NN'
p179
I2
sS'NNS-NP'
p180
I3
sS'NN-NP'
p181
I2
sg12
I4
sS'NNS'
p182
I3
sS'NNP'
p183
I2
sa(dp184
S'VB'
p185
I1
sg2
I0
sg3
I0
sS'JJ'
p186
I1
sS'NNP-NP'
p187
I1
sg5
VDrug
p188
sg7
I3
sS'JJ-NP'
p189
I1
sS'VB-VP'
p190
I1
sS'NN'
p191
I2
sS'NNS-NP'
p192
I2
sS'NN-NP'
p193
I2
sg12
I4
sS'NNS'
p194
I2
sS'NNP'
p195
I1
sa(dp196
S'VB'
p197
I1
sg2
I0
sg3
I0
sS'JJ'
p198
I3
sS'NNP-NP'
p199
I1
sg5
VDrug
p200
sg7
I2
sS'JJ-NP'
p201
I3
sS'VB-VP'
p202
I1
sS'NN'
p203
I1
sS'NNS-NP'
p204
I2
sS'NN-NP'
p205
I1
sg12
I4
sS'NNS'
p206
I2
sS'NNP'
p207
I1
sa(dp208
S'VB'
p209
I1
sg2
I0
sg3
I0
sS'JJ'
p210
I3
sS'NNP-NP'
p211
I1
sg5
VDrug
p212
sg7
I2
sS'JJ-NP'
p213
I3
sS'VB-VP'
p214
I1
sS'NN'
p215
I1
sS'NNS-NP'
p216
I2
sS'NN-NP'
p217
I1
sg12
I5
sS'NNS'
p218
I2
sS'NNP'
p219
I1
sa(dp220
g2
I2
sS'VBN'
p221
I1
sS'CD'
p222
I6
sg3
I0
sS'VBP'
p223
I1
sS'VBP-VP'
p224
I1
sS'JJ'
p225
I1
sg5
VDrug
p226
sg7
I17
sS'VBN-VP'
p227
I1
sS'JJ-NP'
p228
I1
sS'CD-NP'
p229
I6
sS'NN'
p230
I11
sS'NNS-NP'
p231
I3
sS'NN-NP'
p232
I11
sg12
I0
sS'NNS'
p233
I3
sa(dp234
g2
I2
sS'VBN'
p235
I1
sS'CD'
p236
I5
sg3
I0
sS'VBP'
p237
I1
sS'VBP-VP'
p238
I1
sS'JJ'
p239
I1
sg5
VDrug
p240
sg7
I13
sS'VBN-VP'
p241
I1
sS'JJ-NP'
p242
I1
sS'CD-NP'
p243
I5
sS'NN'
p244
I7
sS'NNS-NP'
p245
I2
sS'NN-NP'
p246
I7
sg12
I0
sS'NNS'
p247
I2
sa(dp248
g2
I2
sS'VBN'
p249
I1
sS'CD'
p250
I4
sg3
I0
sS'VBP'
p251
I1
sS'VBP-VP'
p252
I1
sg5
VDrug
p253
sg7
I10
sS'VBN-VP'
p254
I1
sS'CD-NP'
p255
I4
sS'NN'
p256
I6
sS'NNS-NP'
p257
I1
sS'NN-NP'
p258
I6
sg12
I0
sS'NNS'
p259
I1
sa(dp260
g2
I1
sS'VBN'
p261
I1
sS'CD'
p262
I3
sg3
I0
sS'VBP'
p263
I1
sS'VBP-VP'
p264
I1
sS'JJ'
p265
I1
sg5
VDrug
p266
sg7
I7
sS'VBN-VP'
p267
I1
sS'JJ-NP'
p268
I1
sS'CD-NP'
p269
I3
sS'NN'
p270
I4
sS'NNS-NP'
p271
I1
sS'NN-NP'
p272
I4
sg12
I0
sS'NNS'
p273
I1
sa(dp274
g2
I1
sS'VBN'
p275
I2
sS'CD'
p276
I2
sg3
I0
sS'VBP'
p277
I1
sS'VBP-VP'
p278
I1
sS'JJ'
p279
I1
sg5
VDrug
p280
sg7
I4
sS'VBN-VP'
p281
I2
sS'JJ-NP'
p282
I1
sS'CD-NP'
p283
I2
sS'NN'
p284
I2
sS'NNS-NP'
p285
I1
sS'NN-NP'
p286
I2
sg12
I0
sS'NNS'
p287
I1
sa(dp288
g2
I0
sS'VBN'
p289
I2
sS'CD'
p290
I1
sg3
I0
sS'JJ'
p291
I1
sg5
VDrug
p292
sg7
I1
sS'VBN-VP'
p293
I2
sS'JJ-NP'
p294
I1
sS'CD-NP'
p295
I1
sS'NN'
p296
I1
sS'NNS-NP'
p297
I2
sS'NN-NP'
p298
I1
sg12
I0
sS'NNS'
p299
I2
sa(dp300
S'VBG'
p301
I1
sg2
I1
sS'VBD'
p302
I1
sS'NNS-NP'
p303
I1
sS'VBN'
p304
I1
sg3
I0
sS'JJ'
p305
I1
sS'NNP-NP'
p306
I2
sS'RB-VP'
p307
I1
sg5
VDrug
p308
sg7
I3
sS'VBN-VP'
p309
I1
sS'JJ-NP'
p310
I1
sS'NN'
p311
I4
sS'VBG-VP'
p312
I1
sS'NN-NP'
p313
I4
sg12
I0
sS'RB'
p314
I1
sS'VBD-VP'
p315
I1
sS'NNS'
p316
I1
sS'NNP'
p317
I2
sa(dp318
S'VB'
p319
I1
sS'VB-VP'
p320
I1
sg2
I0
sS'NNS'
p321
I1
sS'NNS-NP'
p322
I1
sS'JJ-NP'
p323
I1
sS'VBN'
p324
I1
sg3
I0
sS'NN-NP'
p325
I1
sS'NN'
p326
I1
sg12
I5
sS'JJ'
p327
I1
sg5
VDrug
p328
sg7
I0
sS'VBN-VP'
p329
I1
sa(dp330
S'VB'
p331
I1
sg2
I0
sS'VBD'
p332
I1
sS'VBD-VP'
p333
I1
sS'VBN'
p334
I1
sS'CD'
p335
I1
sg3
I0
sS'JJ'
p336
I4
sS'VBZ'
p337
I1
sS'VB-VP'
p338
I1
sS'NNP-NP'
p339
I3
sS'DT'
p340
I1
sg5
VDrug
p341
sg7
I0
sS'VBN-VP'
p342
I1
sS'JJ-NP'
p343
I4
sS'CD-NP'
p344
I1
sS'NN'
p345
I6
sS'VBZ-VP'
p346
I1
sS'NNS-NP'
p347
I6
sS'NN-NP'
p348
I6
sg12
I34
sS'DT-NP'
p349
I1
sS'NNS'
p350
I6
sS'NNP'
p351
I3
sa(dp352
S'JJ-NP'
p353
I1
sS'NN'
p354
I1
sg2
I0
sg3
I0
sS'NN-NP'
p355
I1
sg12
I0
sS'JJ'
p356
I1
sg5
VDisorder
p357
sg7
I1
sa(dp358
S'NN'
p359
I1
sg2
I0
sS'VBD'
p360
I1
sS'VBD-VP'
p361
I1
sg3
I0
sS'NN-NP'
p362
I1
sg12
I3
sS'NNP-NP'
p363
I1
sg5
VDisorder
p364
sg7
I1
sS'NNP'
p365
I1
sa(dp366
g2
I0
sS'VBN'
p367
I1
sg3
I0
sS'JJ'
p368
I1
sS'RB-VP'
p369
I1
sg5
VDrug
p370
sg7
I1
sS'VBN-VP'
p371
I1
sS'JJ-NP'
p372
I1
sS'NN'
p373
I1
sS'NNS-NP'
p374
I1
sS'NN-NP'
p375
I1
sg12
I0
sS'RB'
p376
I1
sS'NNS'
p377
I1
sa(dp378
g2
I1
sS'VBN'
p379
I1
sg3
I0
sS'JJ'
p380
I1
sg5
VDrug
p381
sg7
I0
sS'VBN-VP'
p382
I1
sS'JJ-NP'
p383
I1
sS'NN'
p384
I1
sS'NNS-NP'
p385
I1
sS'NN-NP'
p386
I1
sg12
I0
sS'NNS'
p387
I1
sa(dp388
S'JJ-NP'
p389
I1
sS'VB-VP'
p390
I1
sg2
I0
sS'IN-PP'
p391
I1
sS'VB'
p392
I1
sg3
I0
sS'NN-NP'
p393
I1
sS'NN'
p394
I1
sg12
I2
sS'JJ'
p395
I1
sS'IN'
p396
I1
sg5
VDrug
p397
sg7
I0
sa(dp398
S'VBG'
p399
I1
sg2
I0
sS'VBD'
p400
I1
sS'VBD-VP'
p401
I1
sS'CD'
p402
I1
sg3
I0
sS'JJ'
p403
I3
sS'IN'
p404
I1
sg5
VDisorder
p405
sg7
I0
sS'JJ-NP'
p406
I3
sS'CD-NP'
p407
I1
sS'NN'
p408
I2
sS'IN-PP'
p409
I1
sS'VBG-VP'
p410
I1
sS'NN-NP'
p411
I2
sg12
I5
sS'NNS'
p412
I1
sS'NNS-NP'
p413
I1
sa(dp414
S'VB'
p415
I1
sg2
I1
sg3
I0
sS'VBP'
p416
I1
sS'VBP-VP'
p417
I1
sS'JJ'
p418
I1
sS'VBZ'
p419
I1
sg5
VDrug
p420
sg7
I0
sS'JJ-NP'
p421
I1
sS'VB-VP'
p422
I1
sS'NN'
p423
I2
sS'VBZ-VP'
p424
I1
sS'NNS-NP'
p425
I1
sS'NN-NP'
p426
I2
sg12
I4
sS'NNS'
p427
I1
sa(dp428
S'VB'
p429
I1
sg2
I0
sg3
I0
sS'VBP'
p430
I1
sS'VBP-VP'
p431
I1
sS'JJ'
p432
I1
sS'NNP-NP'
p433
I1
sS'VBZ'
p434
I1
sg5
VDisorder
p435
sg7
I0
sS'JJ-NP'
p436
I1
sS'NN'
p437
I1
sS'VB-VP'
p438
I1
sS'VBZ-VP'
p439
I1
sS'NNS-NP'
p440
I1
sS'NN-NP'
p441
I1
sg12
I7
sS'NNS'
p442
I1
sS'NNP'
p443
I1
sa(dp444
g2
I0
sg3
I0
sS'JJ'
p445
I2
sg5
VDrug
p446
sg7
I3
sS'JJ-NP'
p447
I2
sS'NN'
p448
I2
sS'NNS-NP'
p449
I1
sS'NN-NP'
p450
I2
sg12
I1
sS'NNS'
p451
I1
sa(dp452
S'VB'
p453
I1
sg2
I0
sg3
I0
sS'JJ'
p454
I3
sS'NNP-NP'
p455
I1
sg5
VDisorder
p456
sg7
I0
sS'JJ-NP'
p457
I3
sS'NN'
p458
I4
sS'VB-VP'
p459
I1
sS'NNS-NP'
p460
I2
sS'NN-NP'
p461
I4
sg12
I4
sS'NNS'
p462
I2
sS'NNP'
p463
I1
sa(dp464
S'VB'
p465
I1
sg2
I0
sg3
I0
sS'JJ'
p466
I2
sS'NNP-NP'
p467
I1
sg5
VDisorder
p468
sg7
I0
sS'JJ-NP'
p469
I2
sS'NN'
p470
I2
sS'VB-VP'
p471
I1
sS'NNS-NP'
p472
I1
sS'NN-NP'
p473
I2
sg12
I9
sS'NNS'
p474
I1
sS'NNP'
p475
I1
sa(dp476
S'VB'
p477
I1
sS'VB-VP'
p478
I1
sg2
I0
sS'NNS'
p479
I1
sS'NNS-NP'
p480
I1
sS'JJ-NP'
p481
I3
sg3
I0
sS'NN-NP'
p482
I6
sS'NN'
p483
I6
sg12
I12
sS'JJ'
p484
I3
sS'NNP-NP'
p485
I1
sg5
VDisorder
p486
sg7
I0
sS'NNP'
p487
I1
sa(dp488
S'VB'
p489
I1
sg2
I1
sg3
I0
sS'JJ'
p490
I1
sS'VBZ'
p491
I1
sg5
VDrug
p492
sg7
I1
sS'JJ-NP'
p493
I1
sS'VB-VP'
p494
I1
sS'NN'
p495
I1
sS'VBZ-VP'
p496
I1
sS'NN-NP'
p497
I1
sg12
I1
sa(dp498
S'VB'
p499
I1
sg2
I0
sg3
I0
sS'JJ'
p500
I1
sS'VBZ'
p501
I1
sg5
VDrug
p502
sg7
I1
sS'JJ-NP'
p503
I1
sS'VB-VP'
p504
I1
sS'NN'
p505
I1
sS'VBZ-VP'
p506
I1
sS'NNS-NP'
p507
I1
sS'NN-NP'
p508
I1
sg12
I1
sS'NNS'
p509
I1
sa(dp510
g2
I0
sS'VBN'
p511
I1
sg3
I0
sS'JJ'
p512
I5
sg5
VDisorder
p513
sg7
I4
sS'VBN-VP'
p514
I1
sS'JJ-NP'
p515
I5
sS'NN'
p516
I6
sS'NNS-NP'
p517
I1
sS'NN-NP'
p518
I6
sg12
I1
sS'NNS'
p519
I1
sa(dp520
g2
I0
sS'VBN'
p521
I1
sg3
I0
sS'JJ'
p522
I4
sg5
VDrug
p523
sg7
I2
sS'VBN-VP'
p524
I1
sS'JJ-NP'
p525
I4
sS'NN'
p526
I2
sS'NNS-NP'
p527
I1
sS'NN-NP'
p528
I2
sg12
I3
sS'NNS'
p529
I1
sa(dp530
S'JJ-NP'
p531
I4
sS'NN'
p532
I5
sg2
I0
sS'NNS'
p533
I1
sS'NNS-NP'
p534
I1
sS'VBN'
p535
I1
sg3
I0
sS'NN-NP'
p536
I5
sg12
I3
sS'JJ'
p537
I4
sg5
VDrug
p538
sg7
I0
sS'VBN-VP'
p539
I1
sa(dp540
S'JJ-NP'
p541
I1
sg2
I0
sS'NN'
p542
I1
sS'VBN-NP'
p543
I1
sS'VBN'
p544
I1
sg3
I0
sS'NN-NP'
p545
I1
sg12
I3
sS'JJ'
p546
I1
sg5
VDrug
p547
sg7
I0
sa(dp548
S'JJ-NP'
p549
I2
sS'VBG'
p550
I1
sg2
I0
sS'NN'
p551
I1
sS'VBN-NP'
p552
I1
sS'VBG-VP'
p553
I1
sS'VBN'
p554
I1
sg3
I0
sS'NN-NP'
p555
I1
sg12
I6
sS'JJ'
p556
I2
sg5
VDrug
p557
sg7
I0
sa(dp558
S'VB'
p559
I1
sS'VBG'
p560
I1
sg2
I1
sS'VBD'
p561
I1
sS'VBD-VP'
p562
I1
sg3
I0
sS'JJ'
p563
I2
sS'NNP-NP'
p564
I1
sS'MD-VP'
p565
I1
sg5
VDrug
p566
sg7
I3
sS'MD'
p567
I1
sS'JJ-NP'
p568
I2
sS'VB-VP'
p569
I1
sS'NN'
p570
I2
sS'VBG-VP'
p571
I1
sS'NN-NP'
p572
I2
sg12
I2
sS'NNS'
p573
I1
sS'NNS-NP'
p574
I1
sS'NNP'
p575
I1
sa(dp576
S'VB'
p577
I1
sS'VBG'
p578
I1
sg2
I1
sS'VBD'
p579
I1
sS'VBD-VP'
p580
I1
sg3
I0
sS'JJ'
p581
I1
sS'NNP-NP'
p582
I1
sg5
VDrug
p583
sg7
I3
sS'JJ-NP'
p584
I1
sS'VB-VP'
p585
I1
sS'NN'
p586
I2
sS'VBG-VP'
p587
I1
sS'NN-NP'
p588
I2
sg12
I5
sS'NNS'
p589
I1
sS'NNS-NP'
p590
I1
sS'NNP'
p591
I1
sa(dp592
S'VB'
p593
I1
sS'VBG'
p594
I1
sg2
I1
sS'VBD'
p595
I1
sS'VBD-VP'
p596
I1
sg3
I0
sS'JJ'
p597
I2
sg5
VDrug
p598
sg7
I3
sS'JJ-NP'
p599
I2
sS'VB-VP'
p600
I1
sS'NN'
p601
I2
sS'VBG-VP'
p602
I1
sS'NN-NP'
p603
I2
sg12
I5
sS'NNS'
p604
I1
sS'NNS-NP'
p605
I1
sa(dp606
S'VB'
p607
I1
sS'VBG'
p608
I1
sg2
I1
sS'VBD'
p609
I1
sS'VBD-VP'
p610
I1
sg3
I0
sS'JJ'
p611
I2
sS'NNP-NP'
p612
I1
sg5
VDrug
p613
sg7
I1
sS'JJ-NP'
p614
I2
sS'VB-VP'
p615
I1
sS'NN'
p616
I1
sS'NNS-NP'
p617
I1
sS'VBG-VP'
p618
I1
sS'NN-NP'
p619
I1
sg12
I5
sS'NNS'
p620
I1
sS'NNP'
p621
I1
sa(dp622
S'VB'
p623
I1
sg2
I0
sS'VBD'
p624
I1
sS'VBD-VP'
p625
I1
sg3
I0
sS'JJ'
p626
I3
sS'NNP-NP'
p627
I1
sg5
VDrug
p628
sg7
I1
sS'JJ-NP'
p629
I3
sS'VB-VP'
p630
I1
sS'NN'
p631
I1
sS'NNS-NP'
p632
I1
sS'NN-NP'
p633
I1
sg12
I5
sS'NNS'
p634
I1
sS'NNP'
p635
I1
sa(dp636
S'VB'
p637
I1
sS'VBG'
p638
I1
sg2
I0
sS'VBD'
p639
I1
sS'VBD-VP'
p640
I1
sg3
I0
sS'JJ'
p641
I2
sS'NNP-NP'
p642
I1
sg5
VDrug
p643
sg7
I0
sS'JJ-NP'
p644
I2
sS'VB-VP'
p645
I1
sS'NN'
p646
I2
sS'VBG-VP'
p647
I1
sS'NN-NP'
p648
I2
sg12
I5
sS'NNS'
p649
I1
sS'NNS-NP'
p650
I1
sS'NNP'
p651
I1
sa(dp652
g2
I0
sS'VBN'
p653
I1
sS'CD'
p654
I8
sg3
I0
sS'JJ'
p655
I1
sS'NNP-NP'
p656
I4
sg5
VDisorder
p657
sg7
I9
sS'VBN-VP'
p658
I1
sS'JJ-NP'
p659
I1
sS'CD-NP'
p660
I8
sS'NN'
p661
I7
sS'NNS-NP'
p662
I1
sS'NN-NP'
p663
I7
sg12
I3
sS'NNS'
p664
I1
sS'NNP'
p665
I4
sa(dp666
g2
I0
sS'VBN'
p667
I1
sS'CD'
p668
I4
sg3
I0
sS'JJ'
p669
I1
sS'IN'
p670
I1
sS'NNP-NP'
p671
I1
sS'RB-VP'
p672
I1
sg5
VDrug
p673
sg7
I3
sS'VBN-VP'
p674
I1
sS'JJ-NP'
p675
I1
sS'CD-NP'
p676
I4
sS'NN'
p677
I3
sS'IN-PP'
p678
I1
sS'NNS-NP'
p679
I1
sS'NN-NP'
p680
I3
sg12
I3
sS'RB'
p681
I1
sS'NNS'
p682
I1
sS'NNP'
p683
I1
sa(dp684
g2
I0
sS'VBN'
p685
I2
sS'CD'
p686
I1
sg3
I0
sS'NNP-NP'
p687
I2
sg5
VDrug
p688
sg7
I1
sS'VBN-VP'
p689
I2
sS'CD-NP'
p690
I1
sS'NN'
p691
I3
sS'NNS-NP'
p692
I1
sS'NN-NP'
p693
I3
sg12
I6
sS'NNS'
p694
I1
sS'NNP'
p695
I2
sa(dp696
g2
I0
sS'VBN-NP'
p697
I1
sS'VBN'
p698
I1
sS'CD'
p699
I1
sg3
I0
sS'JJ'
p700
I1
sS'NNP-NP'
p701
I2
sg5
VDisorder
p702
sg7
I4
sS'VBN-VP'
p703
I1
sS'JJ-NP'
p704
I1
sS'CD-NP'
p705
I1
sS'NN'
p706
I2
sS'NNS-NP'
p707
I1
sS'NN-NP'
p708
I2
sg12
I6
sS'NNS'
p709
I1
sS'NNP'
p710
I2
sa(dp711
S'VBG'
p712
I1
sg2
I0
sS'NNS-NP'
p713
I1
sS'IN'
p714
I1
sg3
I1
sS'NNP-NP'
p715
I1
sS'VBZ'
p716
I1
sS'RB-VP'
p717
I1
sg5
VDisorder
p718
sg7
I2
sS'VBG-NP'
p719
I1
sS'NN'
p720
I1
sS'IN-PP'
p721
I1
sS'VBZ-VP'
p722
I1
sS'VBG-VP'
p723
I1
sS'NN-NP'
p724
I1
sg12
I3
sS'RB'
p725
I1
sS'NNS'
p726
I1
sS'NNP'
p727
I1
sa(dp728
S'VBG'
p729
I2
sg2
I0
sS'VBG-VP'
p730
I1
sS'IN'
p731
I1
sg3
I0
sS'NNP-NP'
p732
I2
sS'VBZ'
p733
I1
sS'RB-VP'
p734
I1
sg5
VDisorder
p735
sg7
I0
sS'VBG-NP'
p736
I1
sS'NN'
p737
I3
sS'IN-PP'
p738
I1
sS'VBZ-VP'
p739
I1
sS'NNS-NP'
p740
I1
sS'NN-NP'
p741
I3
sg12
I3
sS'RB'
p742
I1
sS'NNS'
p743
I1
sS'NNP'
p744
I2
sa(dp745
g2
I0
sS'NNS'
p746
I1
sS'NNS-NP'
p747
I1
sg3
I0
sg12
I0
sS'NNP-NP'
p748
I3
sg5
VDrug
p749
sg7
I0
sS'NNP'
p750
I3
sa(dp751
g2
I0
sS'VBD'
p752
I1
sS'VBD-VP'
p753
I1
sS'VBN'
p754
I1
sS'CD'
p755
I2
sg3
I0
sS'JJ'
p756
I2
sS'NNP-NP'
p757
I1
sg5
VDisorder
p758
sg7
I0
sS'VBN-VP'
p759
I1
sS'JJ-NP'
p760
I2
sS'CD-NP'
p761
I2
sS'NN'
p762
I2
sS'NNS-NP'
p763
I1
sS'NN-NP'
p764
I2
sg12
I10
sS'NNS'
p765
I1
sS'NNP'
p766
I1
sa(dp767
S'JJ-NP'
p768
I2
sS'CD-NP'
p769
I3
sg2
I0
sS'NNS'
p770
I6
sS'NNS-NP'
p771
I6
sS'VBN'
p772
I1
sS'CD'
p773
I3
sg3
I0
sg12
I13
sS'JJ'
p774
I2
sS'NNP-NP'
p775
I1
sS'NNP'
p776
I1
sg5
VDrug
p777
sg7
I0
sS'VBN-VP'
p778
I1
sa(dp779
g2
I0
sS'VBD'
p780
I1
sS'VBD-VP'
p781
I1
sS'VBN'
p782
I1
sS'CD'
p783
I2
sg3
I0
sS'JJ'
p784
I2
sS'NNP-NP'
p785
I1
sg5
VDisorder
p786
sg7
I0
sS'VBN-VP'
p787
I1
sS'JJ-NP'
p788
I2
sS'CD-NP'
p789
I2
sS'NN'
p790
I2
sS'NNS-NP'
p791
I1
sS'NN-NP'
p792
I2
sg12
I10
sS'NNS'
p793
I1
sS'NNP'
p794
I1
sa(dp795
g2
I0
sS'VBN'
p796
I1
sS'CD'
p797
I3
sg3
I0
sS'JJ'
p798
I2
sS'NNP-NP'
p799
I1
sg5
VDrug
p800
sg7
I0
sS'VBN-VP'
p801
I1
sS'JJ-NP'
p802
I2
sS'CD-NP'
p803
I3
sS'NN'
p804
I1
sS'NNS-NP'
p805
I6
sS'NN-NP'
p806
I1
sg12
I14
sS'NNS'
p807
I6
sS'NNP'
p808
I1
sa(dp809
g2
I0
sS'NN'
p810
I1
sS'NNS'
p811
I3
sS'NNS-NP'
p812
I3
sS'JJR'
p813
I1
sS'CD'
p814
I1
sg3
I0
sg12
I7
sS'RB'
p815
I1
sS'NNP-NP'
p816
I1
sS'CD-NP'
p817
I1
sg5
VDrug
p818
sg7
I2
sS'NNP'
p819
I1
sa(dp820
g2
I0
sS'CD'
p821
I1
sg3
I0
sS'NNP-NP'
p822
I1
sg5
VDrug
p823
sg7
I0
sS'CD-NP'
p824
I1
sS'NN'
p825
I2
sS'NNS-NP'
p826
I1
sS'JJR'
p827
I1
sS'NN-NP'
p828
I2
sg12
I7
sS'RB'
p829
I1
sS'NNS'
p830
I1
sS'NNP'
p831
I1
sa(dp832
S'VB'
p833
I1
sS'VB-VP'
p834
I1
sg2
I0
sS'VBP'
p835
I1
sS'NNS'
p836
I2
sS'NNS-NP'
p837
I1
sg3
I0
sS'NN-NP'
p838
I2
sS'NN'
p839
I3
sS'VBP-VP'
p840
I1
sS'NNP-NP'
p841
I1
sS'NNP'
p842
I1
sg5
VDrug
p843
sg7
I0
sg12
I9
sa(dp844
S'NN'
p845
I3
sg2
I0
sg3
I0
sS'NN-NP'
p846
I3
sg12
I0
sg5
VDisorder
p847
sg7
I0
sa(dp848
S'NN'
p849
I3
sg2
I0
sg3
I0
sS'NN-NP'
p850
I3
sg12
I4
sS'NNP-NP'
p851
I1
sg5
VDisorder
p852
sg7
I0
sS'NNP'
p853
I1
sa(dp854
S'VB'
p855
I1
sS'NN'
p856
I3
sg2
I0
sS'JJ-NP'
p857
I1
sg3
I0
sS'NN-NP'
p858
I3
sg12
I4
sS'JJ'
p859
I1
sS'NNP-NP'
p860
I1
sS'VB-VP'
p861
I1
sg5
VDisorder
p862
sg7
I0
sS'NNP'
p863
I1
sa(dp864
S'VB'
p865
I1
sS'NN'
p866
I3
sg2
I0
sS'JJ-NP'
p867
I1
sg3
I0
sS'NN-NP'
p868
I3
sg12
I4
sS'JJ'
p869
I1
sS'VB-VP'
p870
I1
sg5
VDisorder
p871
sg7
I0
sa(dp872
S'VBG'
p873
I1
sg2
I0
sS'VBD'
p874
I1
sS'VBD-VP'
p875
I1
sS'CD'
p876
I1
sg3
I1
sS'JJ'
p877
I2
sS'IN'
p878
I1
sg5
VDrug
p879
sg7
I4
sS'JJ-NP'
p880
I2
sS'CD-NP'
p881
I1
sS'NN'
p882
I5
sS'IN-PP'
p883
I1
sS'VBG-VP'
p884
I1
sS'NN-NP'
p885
I5
sg12
I3
sS'NNS'
p886
I1
sS'NNS-NP'
p887
I1
sa(dp888
S'VBG'
p889
I1
sg2
I0
sS'VBD'
p890
I1
sS'NNS-NP'
p891
I1
sS'CD'
p892
I1
sg3
I0
sS'JJ'
p893
I1
sg5
VDrug
p894
sg7
I3
sS'JJ-NP'
p895
I1
sS'CD-NP'
p896
I1
sS'NN'
p897
I5
sS'VBG-VP'
p898
I1
sS'NN-NP'
p899
I5
sg12
I3
sS'VBD-VP'
p900
I1
sS'NNS'
p901
I1
sa(dp902
S'VBG'
p903
I1
sg2
I0
sS'VBD'
p904
I1
sS'NNS-NP'
p905
I1
sS'CD'
p906
I1
sg3
I0
sS'JJ'
p907
I1
sg5
VDrug
p908
sg7
I2
sS'JJ-NP'
p909
I1
sS'CD-NP'
p910
I1
sS'NN'
p911
I3
sS'VBG-VP'
p912
I1
sS'NN-NP'
p913
I3
sg12
I3
sS'VBD-VP'
p914
I1
sS'NNS'
p915
I1
sa(dp916
S'VBG'
p917
I1
sg2
I0
sS'VBD'
p918
I1
sS'NNS-NP'
p919
I1
sS'CD'
p920
I1
sg3
I0
sS'JJ'
p921
I2
sg5
VDrug
p922
sg7
I1
sS'JJ-NP'
p923
I2
sS'CD-NP'
p924
I1
sS'NN'
p925
I2
sS'VBG-VP'
p926
I1
sS'NN-NP'
p927
I2
sg12
I3
sS'VBD-VP'
p928
I1
sS'NNS'
p929
I1
sa(dp930
S'JJ-NP'
p931
I1
sS'NN'
p932
I1
sg2
I1
sS'NNS'
p933
I1
sS'RB'
p934
I1
sS'NNS-NP'
p935
I1
sS'RB-NP'
p936
I1
sS'VBN'
p937
I1
sg3
I0
sS'NN-NP'
p938
I1
sg12
I0
sS'JJ'
p939
I1
sg5
VDisorder
p940
sg7
I2
sS'VBN-VP'
p941
I1
sa(dp942
S'NN'
p943
I1
sg2
I1
sS'NNS'
p944
I2
sS'NNS-NP'
p945
I2
sS'VBN'
p946
I1
sg3
I0
sS'NN-NP'
p947
I1
sg12
I1
sg5
VDisorder
p948
sg7
I1
sS'VBN-VP'
p949
I1
sa(dp950
S'NN'
p951
I2
sg2
I0
sS'NNS'
p952
I1
sS'NNS-NP'
p953
I1
sg3
I0
sS'NN-NP'
p954
I2
sg12
I2
sg5
VDrug
p955
sg7
I1
sa(dp956
S'NN'
p957
I1
sS'VBG'
p958
I1
sS'CD-NP'
p959
I1
sg2
I0
sS'NNS'
p960
I1
sS'NNS-NP'
p961
I1
sS'VBN'
p962
I1
sS'CD'
p963
I1
sg3
I0
sS'NN-NP'
p964
I1
sS'VBP'
p965
I1
sS'VBP-VP'
p966
I1
sS'VBG-NP'
p967
I1
sS'VBN-VP'
p968
I1
sg5
VDisorder
p969
sg7
I0
sg12
I2
sa(dp970
S'JJ-NP'
p971
I1
sS'VBG'
p972
I1
sS'CD-NP'
p973
I1
sg2
I0
sS'VBG-VP'
p974
I1
sS'NNS-NP'
p975
I2
sS'VBN'
p976
I1
sS'CD'
p977
I1
sg3
I0
sS'VBP-VP'
p978
I1
sS'VBP'
p979
I1
sg12
I6
sS'JJ'
p980
I1
sS'VBN-VP'
p981
I1
sg5
VDisorder
p982
sg7
I0
sS'NNS'
p983
I2
sa(dp984
g2
I0
sS'VBD'
p985
I1
sS'VBD-VP'
p986
I1
sS'CD'
p987
I1
sg3
I0
sg5
VDisorder
p988
sg7
I1
sS'CD-NP'
p989
I1
sS'NN'
p990
I1
sS'NNS-NP'
p991
I1
sS'NN-NP'
p992
I1
sg12
I1
sS'NNS'
p993
I1
sa(dp994
S'JJ-NP'
p995
I1
sS'CD-NP'
p996
I1
sg2
I0
sS'VBD'
p997
I1
sS'VBD-VP'
p998
I1
sS'NNS-NP'
p999
I1
sS'CD'
p1000
I1
sg3
I0
sS'NN-NP'
p1001
I1
sS'NN'
p1002
I1
sg12
I2
sS'JJ'
p1003
I1
sg5
VDisorder
p1004
sg7
I1
sS'NNS'
p1005
I1
sa(dp1006
S'CD-NP'
p1007
I1
sg2
I0
sS'VBD'
p1008
I1
sS'VBD-VP'
p1009
I1
sS'CD'
p1010
I1
sg3
I0
sS'NN-NP'
p1011
I5
sS'NN'
p1012
I5
sg12
I1
sg5
VDisorder
p1013
sg7
I0
sa(dp1014
S'NN'
p1015
I3
sg2
I0
sS'VBD'
p1016
I1
sS'VBD-VP'
p1017
I1
sS'CD'
p1018
I1
sg3
I0
sS'NN-NP'
p1019
I3
sg12
I3
sg5
VDisorder
p1020
sg7
I0
sS'CD-NP'
p1021
I1
sa(dp1022
S'VBG'
p1023
I1
sS'NN'
p1024
I1
sg2
I0
sS'NNS'
p1025
I1
sS'NNS-NP'
p1026
I1
sg3
I0
sS'NN-NP'
p1027
I1
sg12
I1
sS'VBG-NP'
p1028
I1
sg5
VDisorder
p1029
sg7
I1
sa(dp1030
S'JJ-NP'
p1031
I2
sS'VBG'
p1032
I1
sS'NN'
p1033
I1
sg2
I0
sS'NNS'
p1034
I3
sS'NNS-NP'
p1035
I3
sg3
I0
sS'NN-NP'
p1036
I1
sg12
I6
sS'JJ'
p1037
I2
sS'VBG-NP'
p1038
I1
sg5
VDrug
p1039
sg7
I0
sa(dp1040
S'RB-NP'
p1041
I1
sg2
I0
sS'CD'
p1042
I1
sg3
I0
sS'JJ'
p1043
I1
sS'NNP-NP'
p1044
I1
sg5
VDrug
p1045
sg7
I2
sS'JJ-NP'
p1046
I1
sS'CD-NP'
p1047
I1
sS'NN'
p1048
I6
sS'NNS-NP'
p1049
I1
sS'NN-NP'
p1050
I6
sg12
I6
sS'RB'
p1051
I1
sS'NNS'
p1052
I1
sS'NNP'
p1053
I1
sa(dp1054
g2
I0
sS'CD'
p1055
I1
sg3
I0
sS'JJ'
p1056
I4
sS'NNP-NP'
p1057
I1
sg5
VDrug
p1058
sg7
I0
sS'JJ-NP'
p1059
I4
sS'CD-NP'
p1060
I1
sS'NN'
p1061
I1
sS'NNS-NP'
p1062
I1
sS'NN-NP'
p1063
I1
sg12
I6
sS'NNS'
p1064
I1
sS'NNP'
p1065
I1
sa(dp1066
S'VB'
p1067
I1
sg2
I0
sg3
I0
sS'JJ'
p1068
I1
sS'NNP-NP'
p1069
I1
sS'VBZ'
p1070
I1
sg5
VDrug
p1071
sg7
I4
sS'JJ-NP'
p1072
I1
sS'NN'
p1073
I7
sS'VB-VP'
p1074
I1
sS'VBZ-VP'
p1075
I1
sS'NNS-NP'
p1076
I1
sS'NN-NP'
p1077
I7
sg12
I7
sS'NNS'
p1078
I1
sS'NNP'
p1079
I1
sa(dp1080
S'VB'
p1081
I1
sg2
I0
sS'VBN'
p1082
I1
sg3
I0
sS'JJ'
p1083
I3
sS'VBZ'
p1084
I1
sS'NNP-NP'
p1085
I1
sg5
VDrug
p1086
sg7
I0
sS'VBN-VP'
p1087
I1
sS'JJ-NP'
p1088
I3
sS'NN'
p1089
I1
sS'VB-VP'
p1090
I1
sS'VBZ-VP'
p1091
I1
sS'NN-NP'
p1092
I1
sg12
I7
sS'NNP'
p1093
I1
sa(dp1094
S'JJ-NP'
p1095
I3
sS'VBG'
p1096
I1
sS'NN'
p1097
I2
sg2
I0
sS'VBD'
p1098
I1
sS'VBD-VP'
p1099
I1
sS'VBG-VP'
p1100
I1
sg3
I0
sS'NN-NP'
p1101
I2
sg12
I2
sS'JJ'
p1102
I3
sS'NNP-NP'
p1103
I1
sg5
VDisorder
p1104
sg7
I0
sS'NNP'
p1105
I1
sa(dp1106
S'JJ-NP'
p1107
I2
sS'VBG'
p1108
I1
sS'NN'
p1109
I3
sg2
I0
sS'VBG-VP'
p1110
I1
sg3
I0
sS'NN-NP'
p1111
I3
sg12
I7
sS'JJ'
p1112
I2
sS'NNP-NP'
p1113
I1
sg5
VDisorder
p1114
sg7
I0
sS'NNP'
p1115
I1
sa(dp1116
S'VBG'
p1117
I1
sg2
I0
sS'VBN-NP'
p1118
I1
sS'VBN'
p1119
I1
sg3
I0
sS'VBP'
p1120
I1
sS'VBP-VP'
p1121
I1
sS'JJ'
p1122
I2
sS'NNP-NP'
p1123
I1
sS'RB-VP'
p1124
I1
sg5
VDisorder
p1125
sg7
I0
sS'VBN-VP'
p1126
I1
sS'JJ-NP'
p1127
I2
sS'NN'
p1128
I6
sS'VBG-VP'
p1129
I1
sS'NN-NP'
p1130
I6
sg12
I6
sS'RB'
p1131
I1
sS'NNP'
p1132
I1
sa(dp1133
S'VBG'
p1134
I1
sg2
I0
sS'VBN-NP'
p1135
I1
sS'VBN'
p1136
I1
sg3
I0
sS'VBP'
p1137
I1
sS'VBP-VP'
p1138
I1
sS'JJ'
p1139
I3
sS'NNP-NP'
p1140
I1
sS'VBZ'
p1141
I1
sS'RB-VP'
p1142
I1
sg5
VDisorder
p1143
sg7
I0
sS'VBN-VP'
p1144
I1
sS'JJ-NP'
p1145
I3
sS'NN'
p1146
I5
sS'VBZ-VP'
p1147
I1
sS'VBG-VP'
p1148
I1
sS'NN-NP'
p1149
I5
sg12
I9
sS'RB'
p1150
I1
sS'NNP'
p1151
I1
sa(dp1152
S'VBG'
p1153
I1
sg2
I0
sS'VBN-NP'
p1154
I1
sS'VBN'
p1155
I2
sg3
I0
sS'VBP'
p1156
I1
sS'VBP-VP'
p1157
I1
sS'JJ'
p1158
I2
sS'VBZ'
p1159
I1
sS'NNP-NP'
p1160
I2
sS'RB-VP'
p1161
I1
sg5
VDisorder
p1162
sg7
I0
sS'VBN-VP'
p1163
I1
sS'JJ-NP'
p1164
I2
sS'VBG-NP'
p1165
I1
sS'NN'
p1166
I8
sS'VBZ-VP'
p1167
I1
sS'NN-NP'
p1168
I8
sg12
I2
sS'RB'
p1169
I1
sS'NNP'
p1170
I2
sa(dp1171
S'VBG'
p1172
I1
sg2
I0
sS'VBD'
p1173
I1
sS'VBD-VP'
p1174
I1
sS'VBN'
p1175
I1
sg3
I0
sS'VBP'
p1176
I1
sS'VBP-VP'
p1177
I1
sS'JJ'
p1178
I2
sS'VBZ'
p1179
I1
sS'NNP-NP'
p1180
I2
sS'RB-VP'
p1181
I1
sg5
VDisorder
p1182
sg7
I0
sS'VBN-VP'
p1183
I1
sS'JJ-NP'
p1184
I2
sS'VBG-NP'
p1185
I1
sS'NN'
p1186
I8
sS'VBZ-VP'
p1187
I1
sS'NN-NP'
p1188
I8
sg12
I5
sS'RB'
p1189
I1
sS'NNP'
p1190
I2
sa(dp1191
S'VBG'
p1192
I1
sg2
I0
sS'VBN-NP'
p1193
I1
sS'VBN'
p1194
I1
sg3
I0
sS'VBP'
p1195
I1
sS'VBP-VP'
p1196
I1
sS'JJ'
p1197
I1
sS'NNP-NP'
p1198
I2
sS'RB-VP'
p1199
I1
sg5
VDisorder
p1200
sg7
I0
sS'VBN-VP'
p1201
I1
sS'JJ-NP'
p1202
I1
sS'NN'
p1203
I7
sS'VBG-VP'
p1204
I1
sS'NN-NP'
p1205
I7
sg12
I6
sS'RB'
p1206
I1
sS'NNP'
p1207
I2
sa(dp1208
S'VBG'
p1209
I1
sg2
I0
sS'VBN-NP'
p1210
I1
sS'VBN'
p1211
I1
sg3
I0
sS'VBP'
p1212
I1
sS'VBP-VP'
p1213
I1
sS'JJ'
p1214
I1
sS'NNP-NP'
p1215
I1
sS'VBZ'
p1216
I1
sS'RB-VP'
p1217
I1
sg5
VDisorder
p1218
sg7
I0
sS'VBN-VP'
p1219
I1
sS'JJ-NP'
p1220
I1
sS'NN'
p1221
I6
sS'VBZ-VP'
p1222
I1
sS'VBG-VP'
p1223
I1
sS'NN-NP'
p1224
I6
sg12
I9
sS'RB'
p1225
I1
sS'NNP'
p1226
I1
sa(dp1227
g2
I1
sS'VBN'
p1228
I1
sS'CD'
p1229
I1
sg3
I1
sS'JJ'
p1230
I1
sS'IN'
p1231
I1
sg5
VDisorder
p1232
sg7
I3
sS'VBN-VP'
p1233
I1
sS'JJ-NP'
p1234
I1
sS'CD-NP'
p1235
I1
sS'NN'
p1236
I3
sS'IN-PP'
p1237
I1
sS'NNS-NP'
p1238
I2
sS'NN-NP'
p1239
I3
sg12
I1
sS'NNS'
p1240
I2
sa(dp1241
g2
I0
sS'VBN'
p1242
I1
sS'CD'
p1243
I1
sg3
I1
sS'JJ'
p1244
I2
sS'IN'
p1245
I1
sg5
VDrug
p1246
sg7
I2
sS'VBN-VP'
p1247
I1
sS'JJ-NP'
p1248
I2
sS'CD-NP'
p1249
I1
sS'NN'
p1250
I1
sS'IN-PP'
p1251
I1
sS'NNS-NP'
p1252
I2
sS'NN-NP'
p1253
I1
sg12
I5
sS'NNS'
p1254
I2
sa(dp1255
S'JJ-NP'
p1256
I1
sS'NN'
p1257
I2
sg2
I0
sS'IN-PP'
p1258
I1
sS'NNS'
p1259
I1
sS'NNS-NP'
p1260
I1
sS'VBN'
p1261
I1
sS'CD'
p1262
I1
sg3
I1
sS'NN-NP'
p1263
I2
sg12
I5
sS'JJ'
p1264
I1
sS'IN'
p1265
I1
sS'CD-NP'
p1266
I1
sg5
VDrug
p1267
sg7
I1
sS'VBN-VP'
p1268
I1
sa(dp1269
g2
I1
sS'VBD'
p1270
I1
sS'VBD-VP'
p1271
I1
sS'VBN'
p1272
I1
sg3
I0
sS'JJ'
p1273
I3
sS'NNP-NP'
p1274
I1
sg5
VDrug
p1275
sg7
I3
sS'VBN-VP'
p1276
I1
sS'JJ-NP'
p1277
I3
sS'NN'
p1278
I4
sS'NN-NP'
p1279
I4
sg12
I1
sS'NNP'
p1280
I1
sa(dp1281
g2
I0
sS'VBD'
p1282
I2
sS'VBD-VP'
p1283
I2
sS'VBN'
p1284
I1
sg3
I0
sS'JJ'
p1285
I2
sS'NNP-NP'
p1286
I1
sg5
VDisorder
p1287
sg7
I0
sS'VBN-VP'
p1288
I1
sS'JJ-NP'
p1289
I2
sS'NN'
p1290
I3
sS'NN-NP'
p1291
I3
sg12
I4
sS'NNP'
p1292
I1
sa(dp1293
S'VBG'
p1294
I1
sS'NN'
p1295
I2
sg2
I0
sS'NNS-NP'
p1296
I1
sS'NNS'
p1297
I1
sS'VBG-VP'
p1298
I1
sS'VBN'
p1299
I1
sg3
I0
sS'NN-NP'
p1300
I2
sg12
I2
sS'RB'
p1301
I1
sS'RB-VP'
p1302
I1
sg5
VDrug
p1303
sg7
I1
sS'VBN-VP'
p1304
I1
sa(dp1305
S'VBG'
p1306
I1
sg2
I0
sS'VBG-VP'
p1307
I1
sS'CD'
p1308
I1
sg3
I0
sS'JJ'
p1309
I2
sS'MD-VP'
p1310
I1
sg5
VDrug
p1311
sg7
I0
sS'MD'
p1312
I1
sS'JJ-NP'
p1313
I2
sS'CD-NP'
p1314
I1
sS'NN'
p1315
I4
sS'NNS-NP'
p1316
I1
sS'NN-NP'
p1317
I4
sg12
I3
sS'NNS'
p1318
I1
sa(dp1319
S'JJ-NP'
p1320
I2
sS'NN'
p1321
I1
sg2
I0
sS'NNS'
p1322
I2
sS'NNS-NP'
p1323
I2
sg3
I0
sS'NN-NP'
p1324
I1
sg12
I5
sS'JJ'
p1325
I2
sg5
VDisorder
p1326
sg7
I1
sa(dp1327
S'MD'
p1328
I1
sS'NN'
p1329
I6
sg2
I0
sS'NNS'
p1330
I1
sS'NNS-NP'
p1331
I1
sg3
I0
sS'NN-NP'
p1332
I6
sg12
I8
sS'MD-VP'
p1333
I1
sg5
VDrug
p1334
sg7
I0
sa(dp1335
S'VBG'
p1336
I1
sg2
I0
sS'VBD'
p1337
I1
sS'VBD-VP'
p1338
I1
sS'VBN'
p1339
I1
sg3
I0
sS'JJ'
p1340
I1
sg5
VDrug
p1341
sg7
I3
sS'VBN-VP'
p1342
I1
sS'JJ-NP'
p1343
I1
sS'NN'
p1344
I3
sS'VBG-VP'
p1345
I1
sS'NN-NP'
p1346
I3
sg12
I9
sS'NNS'
p1347
I1
sS'NNS-NP'
p1348
I1
sa(dp1349
S'JJ-NP'
p1350
I1
sS'NN'
p1351
I1
sg2
I0
sS'VBD'
p1352
I1
sS'VBD-VP'
p1353
I1
sS'NNS-NP'
p1354
I4
sg3
I0
sS'NN-NP'
p1355
I1
sg12
I9
sS'JJ'
p1356
I1
sg5
VDisorder
p1357
sg7
I1
sS'NNS'
p1358
I4
sa(dp1359
S'VB'
p1360
I1
sS'VBG'
p1361
I1
sg2
I1
sS'VBN-NP'
p1362
I1
sS'VBG-VP'
p1363
I1
sS'VBN'
p1364
I2
sg3
I0
sS'JJ'
p1365
I3
sS'VBZ'
p1366
I1
sg5
VDrug
p1367
sg7
I4
sS'VBN-VP'
p1368
I1
sS'JJ-NP'
p1369
I3
sS'NN'
p1370
I4
sS'VB-VP'
p1371
I1
sS'VBZ-VP'
p1372
I1
sS'NNS-NP'
p1373
I2
sS'NN-NP'
p1374
I4
sg12
I15
sS'NNS'
p1375
I2
sa(dp1376
S'VB'
p1377
I1
sS'VBG'
p1378
I1
sg2
I1
sS'VBN-NP'
p1379
I1
sS'VBG-VP'
p1380
I1
sS'VBN'
p1381
I1
sg3
I0
sS'JJ'
p1382
I3
sS'VBZ'
p1383
I1
sg5
VDrug
p1384
sg7
I4
sS'VBN-VP'
p1385
I1
sS'JJ-NP'
p1386
I3
sS'NN'
p1387
I4
sS'VB-VP'
p1388
I1
sS'VBZ-VP'
p1389
I1
sS'NNS-NP'
p1390
I2
sS'NN-NP'
p1391
I4
sg12
I18
sS'NNS'
p1392
I2
sa(dp1393
g2
I0
sS'VBD'
p1394
I1
sS'VBD-VP'
p1395
I1
sS'VBN'
p1396
I1
sS'CD'
p1397
I3
sg3
I0
sS'JJ'
p1398
I3
sS'NNP-NP'
p1399
I1
sS'RB-VP'
p1400
I1
sg5
VDrug
p1401
sg7
I0
sS'VBN-VP'
p1402
I1
sS'JJ-NP'
p1403
I3
sS'CD-NP'
p1404
I3
sS'NN'
p1405
I2
sS'NNS-NP'
p1406
I1
sS'NN-NP'
p1407
I2
sg12
I1
sS'RB'
p1408
I1
sS'NNS'
p1409
I1
sS'NNP'
p1410
I1
sa(dp1411
g2
I2
sS'VBD'
p1412
I2
sS'VBD-VP'
p1413
I2
sS'VBN'
p1414
I1
sg3
I0
sS'JJ'
p1415
I1
sg5
VDrug
p1416
sg7
I2
sS'VBN-VP'
p1417
I1
sS'JJ-NP'
p1418
I1
sS'NN'
p1419
I2
sS'NNS-NP'
p1420
I2
sS'NN-NP'
p1421
I2
sg12
I7
sS'NNS'
p1422
I2
sa(dp1423
g2
I2
sS'VBD'
p1424
I2
sS'VBD-VP'
p1425
I2
sS'VBN'
p1426
I1
sg3
I0
sS'JJ'
p1427
I1
sg5
VDrug
p1428
sg7
I2
sS'VBN-VP'
p1429
I1
sS'JJ-NP'
p1430
I1
sS'NN'
p1431
I2
sS'NNS-NP'
p1432
I2
sS'NN-NP'
p1433
I2
sg12
I7
sS'NNS'
p1434
I2
sa(dp1435
g2
I1
sS'VBD'
p1436
I1
sS'VBD-VP'
p1437
I1
sS'VBN'
p1438
I1
sg3
I0
sS'JJ'
p1439
I1
sg5
VDrug
p1440
sg7
I1
sS'VBN-VP'
p1441
I1
sS'JJ-NP'
p1442
I1
sS'NN'
p1443
I1
sS'NNS-NP'
p1444
I2
sS'NN-NP'
p1445
I1
sg12
I7
sS'NNS'
p1446
I2
sa(dp1447
S'NN'
p1448
I1
sg2
I0
sg3
I0
sS'NN-NP'
p1449
I1
sg12
I0
sg5
VDrug
p1450
sg7
I0
sa(dp1451
g2
I0
sS'VBN-NP'
p1452
I1
sS'VBN'
p1453
I1
sg3
I1
sS'JJ'
p1454
I3
sS'IN'
p1455
I1
sS'NNP-NP'
p1456
I1
sg5
VDrug
p1457
sg7
I5
sS'JJ-NP'
p1458
I3
sS'NN'
p1459
I6
sS'IN-PP'
p1460
I1
sS'NNS-NP'
p1461
I2
sS'NN-NP'
p1462
I6
sg12
I1
sS'NNS'
p1463
I2
sS'NNP'
p1464
I1
sa(dp1465
g2
I0
sS'VBN-NP'
p1466
I1
sS'VBN'
p1467
I1
sg3
I1
sS'JJ'
p1468
I3
sS'IN'
p1469
I1
sS'NNP-NP'
p1470
I1
sg5
VDrug
p1471
sg7
I5
sS'JJ-NP'
p1472
I3
sS'NN'
p1473
I6
sS'IN-PP'
p1474
I1
sS'NNS-NP'
p1475
I1
sS'NN-NP'
p1476
I6
sg12
I4
sS'NNS'
p1477
I1
sS'NNP'
p1478
I1
sa(dp1479
g2
I0
sS'VBN-NP'
p1480
I1
sS'VBN'
p1481
I1
sg3
I0
sS'VBP'
p1482
I1
sS'VBP-VP'
p1483
I1
sS'JJ'
p1484
I1
sS'IN'
p1485
I1
sS'NNP-NP'
p1486
I1
sg5
VDrug
p1487
sg7
I2
sS'JJ-NP'
p1488
I1
sS'NN'
p1489
I2
sS'IN-PP'
p1490
I1
sS'NNS-NP'
p1491
I2
sS'NN-NP'
p1492
I2
sg12
I4
sS'NNS'
p1493
I2
sS'NNP'
p1494
I1
sa(dp1495
g2
I0
sS'VBN-NP'
p1496
I1
sS'VBN'
p1497
I1
sg3
I0
sS'VBP'
p1498
I1
sS'VBP-VP'
p1499
I1
sS'JJ'
p1500
I1
sS'IN'
p1501
I1
sS'NNP-NP'
p1502
I1
sg5
VDrug
p1503
sg7
I2
sS'JJ-NP'
p1504
I1
sS'NN'
p1505
I2
sS'IN-PP'
p1506
I1
sS'NNS-NP'
p1507
I2
sS'NN-NP'
p1508
I2
sg12
I4
sS'NNS'
p1509
I2
sS'NNP'
p1510
I1
sa(dp1511
g2
I0
sS'VBN-NP'
p1512
I1
sS'VBN'
p1513
I1
sg3
I0
sS'VBP'
p1514
I1
sS'VBP-VP'
p1515
I1
sS'JJ'
p1516
I2
sS'IN'
p1517
I1
sS'NNP-NP'
p1518
I1
sg5
VDrug
p1519
sg7
I1
sS'JJ-NP'
p1520
I2
sS'NN'
p1521
I1
sS'IN-PP'
p1522
I1
sS'NNS-NP'
p1523
I2
sS'NN-NP'
p1524
I1
sg12
I4
sS'NNS'
p1525
I2
sS'NNP'
p1526
I1
sa(dp1527
g2
I0
sS'VBN-NP'
p1528
I1
sS'VBN'
p1529
I1
sg3
I0
sS'VBP'
p1530
I1
sS'VBP-VP'
p1531
I1
sS'JJ'
p1532
I2
sS'IN'
p1533
I1
sS'NNP-NP'
p1534
I1
sg5
VDrug
p1535
sg7
I1
sS'JJ-NP'
p1536
I2
sS'NN'
p1537
I1
sS'IN-PP'
p1538
I1
sS'NNS-NP'
p1539
I2
sS'NN-NP'
p1540
I1
sg12
I4
sS'NNS'
p1541
I2
sS'NNP'
p1542
I1
sa(dp1543
g2
I0
sS'VBN-NP'
p1544
I1
sS'VBN'
p1545
I1
sg3
I0
sS'VBP'
p1546
I1
sS'VBP-VP'
p1547
I1
sS'JJ'
p1548
I3
sS'IN'
p1549
I1
sS'NNP-NP'
p1550
I1
sg5
VDrug
p1551
sg7
I0
sS'JJ-NP'
p1552
I3
sS'NN'
p1553
I5
sS'IN-PP'
p1554
I1
sS'NNS-NP'
p1555
I2
sS'NN-NP'
p1556
I5
sg12
I4
sS'NNS'
p1557
I2
sS'NNP'
p1558
I1
sa(dp1559
g2
I0
sS'VBN-NP'
p1560
I1
sS'VBN'
p1561
I1
sg3
I0
sS'VBP'
p1562
I1
sS'VBP-VP'
p1563
I1
sS'JJ'
p1564
I3
sS'IN'
p1565
I1
sS'NNP-NP'
p1566
I1
sg5
VDrug
p1567
sg7
I0
sS'JJ-NP'
p1568
I3
sS'NN'
p1569
I5
sS'IN-PP'
p1570
I1
sS'NNS-NP'
p1571
I2
sS'NN-NP'
p1572
I5
sg12
I4
sS'NNS'
p1573
I2
sS'NNP'
p1574
I1
sa(dp1575
S'JJ-NP'
p1576
I2
sS'NN'
p1577
I3
sg2
I0
sS'NNS'
p1578
I1
sS'NNS-NP'
p1579
I1
sg3
I0
sS'NN-NP'
p1580
I3
sg12
I0
sS'JJ'
p1581
I2
sg5
VDrug
p1582
sg7
I0
sa(dp1583
S'VB'
p1584
I1
sS'VB-VP'
p1585
I1
sg2
I0
sS'NNS'
p1586
I1
sS'NNS-NP'
p1587
I1
sS'JJ-NP'
p1588
I1
sg3
I0
sS'NN-NP'
p1589
I3
sS'NN'
p1590
I3
sg12
I0
sS'JJ'
p1591
I1
sg5
VDrug
p1592
sg7
I1
sa(dp1593
S'VB'
p1594
I2
sg2
I0
sS'VBD'
p1595
I2
sS'VBD-VP'
p1596
I2
sg3
I0
sS'VBP'
p1597
I1
sS'VBP-VP'
p1598
I1
sS'JJ'
p1599
I2
sg5
VDrug
p1600
sg7
I0
sS'JJ-NP'
p1601
I2
sS'VB-VP'
p1602
I2
sS'NN'
p1603
I3
sS'NNS-NP'
p1604
I1
sS'NN-NP'
p1605
I3
sg12
I15
sS'NNS'
p1606
I1
sa(dp1607
S'JJ-NP'
p1608
I1
sS'NN'
p1609
I1
sg2
I0
sS'JJR-NP'
p1610
I1
sS'NNS'
p1611
I1
sS'NNS-NP'
p1612
I1
sS'JJR'
p1613
I1
sg3
I0
sS'NN-NP'
p1614
I1
sg12
I2
sS'JJ'
p1615
I1
sg5
VDrug
p1616
sg7
I2
sa(dp1617
S'JJ-NP'
p1618
I1
sS'NN'
p1619
I1
sg2
I0
sS'JJR-NP'
p1620
I1
sS'NNS'
p1621
I1
sS'NNS-NP'
p1622
I1
sS'JJR'
p1623
I1
sg3
I0
sS'NN-NP'
p1624
I1
sg12
I4
sS'JJ'
p1625
I1
sg5
VDrug
p1626
sg7
I2
sa(dp1627
S'JJ-NP'
p1628
I1
sS'NN'
p1629
I4
sg2
I0
sS'JJR-NP'
p1630
I1
sS'NNS'
p1631
I1
sS'NNS-NP'
p1632
I1
sS'JJR'
p1633
I1
sg3
I0
sS'NN-NP'
p1634
I4
sg12
I6
sS'JJ'
p1635
I1
sg5
VDisorder
p1636
sg7
I1
sa(dp1637
S'VB'
p1638
I1
sg2
I1
sg3
I0
sS'JJ'
p1639
I3
sS'NNP-NP'
p1640
I1
sS'MD-VP'
p1641
I1
sg5
VDrug
p1642
sg7
I3
sS'MD'
p1643
I1
sS'JJ-NP'
p1644
I3
sS'VB-VP'
p1645
I1
sS'NN'
p1646
I1
sS'JJR-NP'
p1647
I1
sS'NNS-NP'
p1648
I1
sS'JJR'
p1649
I1
sS'NN-NP'
p1650
I1
sg12
I3
sS'NNS'
p1651
I1
sS'NNP'
p1652
I1
sa(dp1653
S'VB'
p1654
I1
sg2
I1
sg3
I0
sS'JJ'
p1655
I1
sS'NNP-NP'
p1656
I1
sS'MD-VP'
p1657
I1
sg5
VDrug
p1658
sg7
I2
sS'MD'
p1659
I1
sS'JJ-NP'
p1660
I1
sS'VB-VP'
p1661
I1
sS'NN'
p1662
I3
sS'JJR-NP'
p1663
I1
sS'NNS-NP'
p1664
I1
sS'JJR'
p1665
I1
sS'NN-NP'
p1666
I3
sg12
I3
sS'NNS'
p1667
I1
sS'NNP'
p1668
I1
sa(dp1669
S'VB'
p1670
I1
sg2
I1
sg3
I0
sS'JJ'
p1671
I3
sS'NNP-NP'
p1672
I1
sS'MD-VP'
p1673
I1
sg5
VDrug
p1674
sg7
I3
sS'MD'
p1675
I1
sS'JJ-NP'
p1676
I3
sS'VB-VP'
p1677
I1
sS'NN'
p1678
I1
sS'JJR-NP'
p1679
I1
sS'NNS-NP'
p1680
I1
sS'JJR'
p1681
I1
sS'NN-NP'
p1682
I1
sg12
I4
sS'NNS'
p1683
I1
sS'NNP'
p1684
I1
sa(dp1685
S'VB'
p1686
I1
sg2
I1
sg3
I0
sS'JJ'
p1687
I1
sS'NNP-NP'
p1688
I1
sS'MD-VP'
p1689
I1
sg5
VDrug
p1690
sg7
I2
sS'MD'
p1691
I1
sS'JJ-NP'
p1692
I1
sS'VB-VP'
p1693
I1
sS'NN'
p1694
I3
sS'JJR-NP'
p1695
I1
sS'NNS-NP'
p1696
I1
sS'JJR'
p1697
I1
sS'NN-NP'
p1698
I3
sg12
I4
sS'NNS'
p1699
I1
sS'NNP'
p1700
I1
sa(dp1701
S'VB'
p1702
I1
sg2
I1
sg3
I0
sS'JJ'
p1703
I3
sS'NNP-NP'
p1704
I1
sS'MD-VP'
p1705
I1
sg5
VDrug
p1706
sg7
I3
sS'MD'
p1707
I1
sS'JJ-NP'
p1708
I3
sS'VB-VP'
p1709
I1
sS'NN'
p1710
I1
sS'JJR-NP'
p1711
I1
sS'NNS-NP'
p1712
I1
sS'JJR'
p1713
I1
sS'NN-NP'
p1714
I1
sg12
I5
sS'NNS'
p1715
I1
sS'NNP'
p1716
I1
sa(dp1717
S'VB'
p1718
I1
sg2
I1
sg3
I0
sS'JJ'
p1719
I1
sS'NNP-NP'
p1720
I1
sS'MD-VP'
p1721
I1
sg5
VDrug
p1722
sg7
I2
sS'MD'
p1723
I1
sS'JJ-NP'
p1724
I1
sS'VB-VP'
p1725
I1
sS'NN'
p1726
I3
sS'JJR-NP'
p1727
I1
sS'NNS-NP'
p1728
I1
sS'JJR'
p1729
I1
sS'NN-NP'
p1730
I3
sg12
I5
sS'NNS'
p1731
I1
sS'NNP'
p1732
I1
sa(dp1733
S'VB'
p1734
I1
sg2
I1
sg3
I0
sS'JJ'
p1735
I3
sS'NNP-NP'
p1736
I1
sS'MD-VP'
p1737
I1
sg5
VDrug
p1738
sg7
I3
sS'MD'
p1739
I1
sS'JJ-NP'
p1740
I3
sS'VB-VP'
p1741
I1
sS'NN'
p1742
I1
sS'JJR-NP'
p1743
I1
sS'NNS-NP'
p1744
I1
sS'JJR'
p1745
I1
sS'NN-NP'
p1746
I1
sg12
I5
sS'NNS'
p1747
I1
sS'NNP'
p1748
I1
sa(dp1749
S'VB'
p1750
I1
sg2
I1
sg3
I0
sS'JJ'
p1751
I1
sS'NNP-NP'
p1752
I1
sS'MD-VP'
p1753
I1
sg5
VDrug
p1754
sg7
I2
sS'MD'
p1755
I1
sS'JJ-NP'
p1756
I1
sS'VB-VP'
p1757
I1
sS'NN'
p1758
I3
sS'JJR-NP'
p1759
I1
sS'NNS-NP'
p1760
I1
sS'JJR'
p1761
I1
sS'NN-NP'
p1762
I3
sg12
I5
sS'NNS'
p1763
I1
sS'NNP'
p1764
I1
sa(dp1765
S'VB'
p1766
I1
sg2
I1
sg3
I0
sS'JJ'
p1767
I3
sS'NNP-NP'
p1768
I1
sS'MD-VP'
p1769
I1
sg5
VDrug
p1770
sg7
I3
sS'MD'
p1771
I1
sS'JJ-NP'
p1772
I3
sS'VB-VP'
p1773
I1
sS'NN'
p1774
I1
sS'JJR-NP'
p1775
I1
sS'NNS-NP'
p1776
I1
sS'JJR'
p1777
I1
sS'NN-NP'
p1778
I1
sg12
I5
sS'NNS'
p1779
I1
sS'NNP'
p1780
I1
sa(dp1781
S'VB'
p1782
I1
sg2
I1
sg3
I0
sS'JJ'
p1783
I1
sS'NNP-NP'
p1784
I1
sS'MD-VP'
p1785
I1
sg5
VDrug
p1786
sg7
I2
sS'MD'
p1787
I1
sS'JJ-NP'
p1788
I1
sS'VB-VP'
p1789
I1
sS'NN'
p1790
I3
sS'JJR-NP'
p1791
I1
sS'NNS-NP'
p1792
I1
sS'JJR'
p1793
I1
sS'NN-NP'
p1794
I3
sg12
I5
sS'NNS'
p1795
I1
sS'NNP'
p1796
I1
sa(dp1797
S'VB'
p1798
I1
sg2
I1
sg3
I0
sS'JJ'
p1799
I3
sS'NNP-NP'
p1800
I1
sS'MD-VP'
p1801
I1
sg5
VDrug
p1802
sg7
I3
sS'MD'
p1803
I1
sS'JJ-NP'
p1804
I3
sS'VB-VP'
p1805
I1
sS'NN'
p1806
I1
sS'JJR-NP'
p1807
I1
sS'NNS-NP'
p1808
I1
sS'JJR'
p1809
I1
sS'NN-NP'
p1810
I1
sg12
I5
sS'NNS'
p1811
I1
sS'NNP'
p1812
I1
sa(dp1813
S'VB'
p1814
I1
sg2
I1
sg3
I0
sS'JJ'
p1815
I1
sS'NNP-NP'
p1816
I1
sS'MD-VP'
p1817
I1
sg5
VDrug
p1818
sg7
I2
sS'MD'
p1819
I1
sS'JJ-NP'
p1820
I1
sS'VB-VP'
p1821
I1
sS'NN'
p1822
I2
sS'JJR-NP'
p1823
I1
sS'NNS-NP'
p1824
I1
sS'JJR'
p1825
I1
sS'NN-NP'
p1826
I2
sg12
I5
sS'NNS'
p1827
I1
sS'NNP'
p1828
I1
sa(dp1829
S'VB'
p1830
I1
sg2
I1
sg3
I0
sS'JJ'
p1831
I1
sS'NNP-NP'
p1832
I1
sS'MD-VP'
p1833
I1
sg5
VDrug
p1834
sg7
I2
sS'MD'
p1835
I1
sS'JJ-NP'
p1836
I1
sS'VB-VP'
p1837
I1
sS'NN'
p1838
I1
sS'JJR-NP'
p1839
I1
sS'NNS-NP'
p1840
I1
sS'JJR'
p1841
I1
sS'NN-NP'
p1842
I1
sg12
I5
sS'NNS'
p1843
I1
sS'NNP'
p1844
I1
sa(dp1845
S'VB'
p1846
I1
sS'VBG'
p1847
I1
sg2
I0
sS'VBG-VP'
p1848
I1
sS'VBN'
p1849
I1
sg3
I0
sS'JJ'
p1850
I2
sg5
VDisorder
p1851
sg7
I1
sS'VBN-VP'
p1852
I1
sS'JJ-NP'
p1853
I2
sS'NN'
p1854
I1
sS'VB-VP'
p1855
I1
sS'NNS-NP'
p1856
I3
sS'NN-NP'
p1857
I1
sg12
I11
sS'NNS'
p1858
I3
sa(dp1859
S'VB'
p1860
I1
sS'VBG'
p1861
I1
sg2
I0
sS'NNS-NP'
p1862
I3
sS'VBN'
p1863
I1
sg3
I0
sS'JJ'
p1864
I3
sg5
VDisorder
p1865
sg7
I1
sS'VBN-VP'
p1866
I1
sS'JJ-NP'
p1867
I3
sS'NN'
p1868
I1
sS'VB-VP'
p1869
I1
sS'VBG-VP'
p1870
I1
sS'NN-NP'
p1871
I1
sg12
I12
sS'NNS'
p1872
I3
sa(dp1873
S'VB'
p1874
I1
sS'VBG'
p1875
I1
sg2
I0
sS'VBG-VP'
p1876
I1
sS'VBN'
p1877
I1
sg3
I0
sS'JJ'
p1878
I3
sg5
VDisorder
p1879
sg7
I0
sS'VBN-VP'
p1880
I1
sS'JJ-NP'
p1881
I3
sS'NN'
p1882
I1
sS'VB-VP'
p1883
I1
sS'NNS-NP'
p1884
I3
sS'NN-NP'
p1885
I1
sg12
I11
sS'NNS'
p1886
I3
sa(dp1887
S'VB'
p1888
I1
sS'VBG'
p1889
I1
sg2
I0
sS'VBG-VP'
p1890
I1
sS'VBN'
p1891
I1
sg3
I0
sS'JJ'
p1892
I1
sg5
VDisorder
p1893
sg7
I0
sS'VBN-VP'
p1894
I1
sS'JJ-NP'
p1895
I1
sS'NN'
p1896
I4
sS'VB-VP'
p1897
I1
sS'NNS-NP'
p1898
I3
sS'NN-NP'
p1899
I4
sg12
I12
sS'NNS'
p1900
I3
sa(dp1901
g2
I1
sS'VBD'
p1902
I3
sS'VBD-VP'
p1903
I3
sS'VBN'
p1904
I1
sS'CD'
p1905
I1
sg3
I0
sS'JJ'
p1906
I2
sg5
VDrug
p1907
sg7
I2
sS'VBN-VP'
p1908
I1
sS'JJ-NP'
p1909
I2
sS'CD-NP'
p1910
I1
sS'NN'
p1911
I2
sS'VBN-NP'
p1912
I1
sS'NNS-NP'
p1913
I4
sS'NN-NP'
p1914
I2
sg12
I17
sS'NNS'
p1915
I4
sa(dp1916
S'JJ-NP'
p1917
I1
sS'CD-NP'
p1918
I1
sg2
I0
sS'NNS'
p1919
I3
sS'NNS-NP'
p1920
I3
sS'CD'
p1921
I1
sg3
I0
sg12
I0
sS'JJ'
p1922
I1
sg5
VDrug
p1923
sg7
I3
sa(dp1924
S'JJ-NP'
p1925
I1
sS'CD-NP'
p1926
I1
sg2
I0
sS'NNS'
p1927
I1
sS'NNS-NP'
p1928
I1
sS'CD'
p1929
I1
sg3
I0
sg12
I3
sS'JJ'
p1930
I1
sg5
VDisorder
p1931
sg7
I2
sa(dp1932
g2
I0
sS'CD'
p1933
I1
sg3
I0
sS'VBZ'
p1934
I1
sS'NNP-NP'
p1935
I1
sg5
VDrug
p1936
sg7
I1
sS'CD-NP'
p1937
I1
sS'NN'
p1938
I2
sS'VBZ-VP'
p1939
I1
sS'NNS-NP'
p1940
I1
sS'NN-NP'
p1941
I2
sg12
I0
sS'NNS'
p1942
I1
sS'NNP'
p1943
I1
sa(dp1944
g2
I0
sS'CD'
p1945
I1
sg3
I0
sS'NNP-NP'
p1946
I1
sg5
VDrug
p1947
sg7
I1
sS'CD-NP'
p1948
I1
sS'NN'
p1949
I2
sS'NNS-NP'
p1950
I1
sS'NN-NP'
p1951
I2
sg12
I1
sS'NNS'
p1952
I1
sS'NNP'
p1953
I1
sa(dp1954
S'NN'
p1955
I6
sg2
I1
sS'VBD'
p1956
I1
sS'VBD-VP'
p1957
I1
sS'VBZ-VP'
p1958
I1
sS'NNS-NP'
p1959
I1
sS'VBN'
p1960
I1
sg3
I0
sS'NN-NP'
p1961
I6
sg12
I9
sS'VBZ'
p1962
I1
sS'VBN-VP'
p1963
I1
sg5
VDisorder
p1964
sg7
I0
sS'NNS'
p1965
I1
sa(dp1966
S'VBG'
p1967
I1
sg2
I0
sS'VBD'
p1968
I1
sS'VBD-VP'
p1969
I1
sS'VBN'
p1970
I1
sg3
I0
sg5
VDisorder
p1971
sg7
I0
sS'VBN-VP'
p1972
I1
sS'NN'
p1973
I5
sS'VBG-VP'
p1974
I1
sS'NN-NP'
p1975
I5
sg12
I0
sS'NNS'
p1976
I2
sS'NNS-NP'
p1977
I2
sa(dp1978
S'NN'
p1979
I6
sg2
I0
sS'VBD'
p1980
I1
sS'VBD-VP'
p1981
I1
sS'NNS-NP'
p1982
I1
sS'VBN'
p1983
I1
sg3
I0
sS'NN-NP'
p1984
I6
sg12
I9
sS'VBN-VP'
p1985
I1
sg5
VDisorder
p1986
sg7
I0
sS'NNS'
p1987
I1
sa(dp1988
g2
I0
sg3
I0
sS'NNP-NP'
p1989
I1
sg5
VDrug
p1990
sg7
I4
sS'NN'
p1991
I5
sS'NNS-NP'
p1992
I2
sS'NN-NP'
p1993
I5
sg12
I1
sS'NNS'
p1994
I2
sS'NNP'
p1995
I1
sa(dp1996
g2
I0
sS'VBD'
p1997
I1
sS'VBD-VP'
p1998
I1
sg3
I0
sS'JJ'
p1999
I2
sg5
VDrug
p2000
sg7
I1
sS'JJ-NP'
p2001
I2
sS'NN'
p2002
I1
sS'NNS-NP'
p2003
I1
sS'NN-NP'
p2004
I1
sg12
I1
sS'NNS'
p2005
I1
sa(dp2006
S'NN'
p2007
I1
sg2
I0
sS'NNS'
p2008
I1
sS'NNS-NP'
p2009
I1
sg3
I0
sS'NN-NP'
p2010
I1
sg12
I2
sS'NNP-NP'
p2011
I2
sg5
VDrug
p2012
sg7
I1
sS'NNP'
p2013
I2
sa(dp2014
S'VB'
p2015
I1
sg2
I0
sS'VBN'
p2016
I2
sS'CD'
p2017
I1
sg3
I0
sS'JJ'
p2018
I1
sS'NNP-NP'
p2019
I1
sS'VB-VP'
p2020
I1
sg5
VDisorder
p2021
sg7
I2
sS'VBN-VP'
p2022
I2
sS'JJ-NP'
p2023
I1
sS'CD-NP'
p2024
I1
sS'NN'
p2025
I2
sS'NNS-NP'
p2026
I1
sS'NN-NP'
p2027
I2
sg12
I13
sS'NNS'
p2028
I1
sS'NNP'
p2029
I1
sa(dp2030
S'VB'
p2031
I1
sg2
I0
sS'VBN'
p2032
I2
sS'CD'
p2033
I1
sg3
I0
sS'JJ'
p2034
I4
sg7
I1
sS'NNP-NP'
p2035
I1
sg5
VDrug
p2036
sS'VB-VP'
p2037
I1
sS'VBN-VP'
p2038
I2
sS'JJ-NP'
p2039
I4
sS'CD-NP'
p2040
I1
sS'NN'
p2041
I1
sS'NNS-NP'
p2042
I1
sS'NN-NP'
p2043
I1
sg12
I22
sS'NNS'
p2044
I1
sS'NNP'
p2045
I1
sa(dp2046
S'RB-NP'
p2047
I1
sg2
I1
sS'VBN'
p2048
I1
sS'CD'
p2049
I2
sg3
I0
sS'JJ'
p2050
I1
sS'NNP-NP'
p2051
I3
sg5
VDrug
p2052
sg7
I3
sS'VBN-VP'
p2053
I1
sS'JJ-NP'
p2054
I1
sS'CD-NP'
p2055
I2
sS'NN'
p2056
I2
sS'NNS-NP'
p2057
I1
sS'NN-NP'
p2058
I2
sg12
I7
sS'RB'
p2059
I1
sS'NNS'
p2060
I1
sS'NNP'
p2061
I3
sa(dp2062
S'RB-NP'
p2063
I1
sg2
I0
sS'VBN'
p2064
I1
sS'CD'
p2065
I2
sg3
I0
sS'JJ'
p2066
I1
sS'NNP-NP'
p2067
I3
sg5
VDisorder
p2068
sg7
I0
sS'VBN-VP'
p2069
I1
sS'JJ-NP'
p2070
I1
sS'CD-NP'
p2071
I2
sS'NN'
p2072
I1
sS'NNS-NP'
p2073
I1
sS'NN-NP'
p2074
I1
sg12
I9
sS'RB'
p2075
I1
sS'NNS'
p2076
I1
sS'NNP'
p2077
I3
sa(dp2078
S'VBG'
p2079
I1
sg2
I1
sS'VBD'
p2080
I1
sS'VBD-VP'
p2081
I1
sS'CD'
p2082
I1
sg3
I0
sS'JJ'
p2083
I2
sg5
VDisorder
p2084
sg7
I1
sS'JJ-NP'
p2085
I2
sS'CD-NP'
p2086
I1
sS'NN'
p2087
I2
sS'NNS-NP'
p2088
I1
sS'VBG-VP'
p2089
I1
sS'NN-NP'
p2090
I2
sg12
I2
sS'NNS'
p2091
I1
sa(dp2092
g2
I1
sS'VBN'
p2093
I1
sS'CD'
p2094
I1
sg3
I0
sS'JJ'
p2095
I1
sg5
VDisorder
p2096
sg7
I2
sS'VBN-VP'
p2097
I1
sS'JJ-NP'
p2098
I1
sS'CD-NP'
p2099
I1
sS'NN'
p2100
I4
sS'NNS-NP'
p2101
I1
sS'NN-NP'
p2102
I4
sg12
I1
sS'NNS'
p2103
I1
sa(dp2104
g2
I1
sS'VBN'
p2105
I1
sS'CD'
p2106
I1
sg3
I0
sS'JJ'
p2107
I1
sg5
VDisorder
p2108
sg7
I2
sS'VBN-VP'
p2109
I1
sS'JJ-NP'
p2110
I1
sS'CD-NP'
p2111
I1
sS'NN'
p2112
I4
sS'NNS-NP'
p2113
I1
sS'NN-NP'
p2114
I4
sg12
I1
sS'NNS'
p2115
I1
sa(dp2116
g2
I0
sS'VBN'
p2117
I1
sS'CD'
p2118
I1
sg3
I0
sS'JJ'
p2119
I1
sg5
VDrug
p2120
sg7
I1
sS'VBN-VP'
p2121
I1
sS'JJ-NP'
p2122
I1
sS'CD-NP'
p2123
I1
sS'NN'
p2124
I2
sS'NNS-NP'
p2125
I1
sS'NN-NP'
p2126
I2
sg12
I6
sS'NNS'
p2127
I1
sa(dp2128
g2
I0
sS'VBN'
p2129
I1
sS'CD'
p2130
I1
sg3
I0
sS'JJ'
p2131
I1
sg5
VDrug
p2132
sg7
I1
sS'VBN-VP'
p2133
I1
sS'JJ-NP'
p2134
I1
sS'CD-NP'
p2135
I1
sS'NN'
p2136
I2
sS'NNS-NP'
p2137
I1
sS'NN-NP'
p2138
I2
sg12
I6
sS'NNS'
p2139
I1
sa(dp2140
S'NN'
p2141
I2
sg2
I0
sg3
I0
sS'NN-NP'
p2142
I2
sg12
I0
sg5
VDrug
p2143
sg7
I2
sa(dp2144
S'NN'
p2145
I3
sg2
I0
sg3
I0
sS'NN-NP'
p2146
I3
sg12
I0
sg5
VDrug
p2147
sg7
I0
sa(dp2148
g2
I1
sS'VBD'
p2149
I1
sS'VBD-VP'
p2150
I1
sS'VBN'
p2151
I1
sg3
I0
sS'JJ'
p2152
I2
sS'NNP-NP'
p2153
I2
sg5
VDrug
p2154
sg7
I4
sS'VBN-VP'
p2155
I1
sS'JJ-NP'
p2156
I2
sS'NN'
p2157
I4
sS'NN-NP'
p2158
I4
sg12
I2
sS'NNP'
p2159
I2
sa(dp2160
S'JJ-NP'
p2161
I1
sS'NN'
p2162
I3
sg2
I0
sS'VBD'
p2163
I1
sS'VBD-VP'
p2164
I1
sS'VBN'
p2165
I1
sg3
I0
sS'NN-NP'
p2166
I3
sg12
I3
sS'JJ'
p2167
I1
sS'NNP-NP'
p2168
I2
sS'NNP'
p2169
I2
sg5
VDisorder
p2170
sg7
I2
sS'VBN-VP'
p2171
I1
sa(dp2172
S'JJ-NP'
p2173
I2
sS'NN'
p2174
I3
sg2
I0
sS'NNS'
p2175
I1
sS'NNS-NP'
p2176
I1
sS'VBN'
p2177
I1
sg3
I0
sS'NN-NP'
p2178
I3
sg12
I5
sS'JJ'
p2179
I2
sS'NNP-NP'
p2180
I2
sS'NNP'
p2181
I2
sg5
VDisorder
p2182
sg7
I2
sS'VBN-VP'
p2183
I1
sa(dp2184
S'JJ-NP'
p2185
I2
sS'NN'
p2186
I1
sg2
I0
sS'VBD'
p2187
I1
sS'VBD-VP'
p2188
I1
sS'VBN'
p2189
I1
sg3
I0
sS'NN-NP'
p2190
I1
sg12
I3
sS'JJ'
p2191
I2
sS'NNP-NP'
p2192
I1
sS'NNP'
p2193
I1
sg5
VDisorder
p2194
sg7
I0
sS'VBN-VP'
p2195
I1
sa(dp2196
S'JJ-NP'
p2197
I1
sS'NN'
p2198
I2
sg2
I0
sS'NNS'
p2199
I1
sS'NNS-NP'
p2200
I1
sS'VBN'
p2201
I1
sg3
I0
sS'NN-NP'
p2202
I2
sg12
I5
sS'JJ'
p2203
I1
sS'NNP-NP'
p2204
I1
sS'NNP'
p2205
I1
sg5
VDisorder
p2206
sg7
I0
sS'VBN-VP'
p2207
I1
sa(dp2208
g2
I0
sS'VBD'
p2209
I1
sS'VBD-VP'
p2210
I1
sS'VBN'
p2211
I1
sg3
I0
sS'JJ'
p2212
I2
sS'NNP-NP'
p2213
I1
sg5
VDisorder
p2214
sg7
I0
sS'VBN-VP'
p2215
I1
sS'JJ-NP'
p2216
I2
sS'NN'
p2217
I4
sS'NN-NP'
p2218
I4
sg12
I3
sS'NNP'
p2219
I1
sa(dp2220
g2
I0
sS'VBN'
p2221
I1
sg3
I0
sS'JJ'
p2222
I1
sS'NNP-NP'
p2223
I1
sg5
VDisorder
p2224
sg7
I0
sS'VBN-VP'
p2225
I1
sS'JJ-NP'
p2226
I1
sS'NN'
p2227
I3
sS'NNS-NP'
p2228
I1
sS'NN-NP'
p2229
I3
sg12
I5
sS'NNS'
p2230
I1
sS'NNP'
p2231
I1
sa(dp2232
S'JJ-NP'
p2233
I2
sg2
I0
sS'NN'
p2234
I1
sg3
I0
sS'NN-NP'
p2235
I1
sg12
I4
sS'RB'
p2236
I1
sS'JJ'
p2237
I2
sg5
VDrug
p2238
sS'RB-VP'
p2239
I1
sg7
I0
sa(dp2240
g2
I1
sS'VBN-NP'
p2241
I1
sS'VBN'
p2242
I1
sg3
I0
sS'VBP'
p2243
I1
sS'VBP-VP'
p2244
I1
sS'JJ'
p2245
I1
sg5
VDisorder
p2246
sg7
I4
sS'JJ-NP'
p2247
I1
sS'NN'
p2248
I1
sS'NNS-NP'
p2249
I3
sS'NN-NP'
p2250
I1
sg12
I1
sS'NNS'
p2251
I3
sa(dp2252
S'VB'
p2253
I1
sg2
I0
sS'VBN'
p2254
I2
sg3
I0
sS'JJ'
p2255
I1
sS'RB-VP'
p2256
I1
sg5
VDisorder
p2257
sg7
I0
sS'VBN-VP'
p2258
I2
sS'JJ-NP'
p2259
I1
sS'VB-VP'
p2260
I1
sS'NN'
p2261
I1
sS'NNS-NP'
p2262
I1
sS'NN-NP'
p2263
I1
sg12
I1
sS'RB'
p2264
I1
sS'NNS'
p2265
I1
sa(dp2266
S'VB'
p2267
I1
sg2
I1
sS'VBN'
p2268
I1
sg3
I0
sS'JJ'
p2269
I1
sS'RB-VP'
p2270
I1
sg5
VDrug
p2271
sg7
I0
sS'VBN-VP'
p2272
I1
sS'JJ-NP'
p2273
I1
sS'VB-VP'
p2274
I1
sS'NN'
p2275
I2
sS'NNS-NP'
p2276
I1
sS'NN-NP'
p2277
I2
sg12
I4
sS'RB'
p2278
I1
sS'NNS'
p2279
I1
sa(dp2280
S'VB'
p2281
I1
sg2
I1
sS'VBN'
p2282
I1
sS'CD'
p2283
I1
sg3
I0
sS'VBP'
p2284
I1
sS'VBP-VP'
p2285
I1
sS'JJ'
p2286
I2
sS'MD-VP'
p2287
I1
sg5
VDisorder
p2288
sg7
I3
sS'VBN-VP'
p2289
I1
sS'MD'
p2290
I1
sS'JJ-NP'
p2291
I2
sS'CD-NP'
p2292
I1
sS'VB-VP'
p2293
I1
sS'NNS-NP'
p2294
I1
sS'NN-NP'
p2295
I2
sS'NN'
p2296
I2
sg12
I6
sS'NNS'
p2297
I1
sa(dp2298
S'VBG'
p2299
I1
sg2
I1
sS'VBD'
p2300
I1
sS'NNS-NP'
p2301
I1
sS'VBN'
p2302
I1
sg3
I0
sS'JJ'
p2303
I1
sg5
VDrug
p2304
sg7
I1
sS'VBN-VP'
p2305
I1
sS'JJ-NP'
p2306
I1
sS'NN'
p2307
I1
sS'VBG-VP'
p2308
I1
sS'NN-NP'
p2309
I1
sg12
I1
sS'VBD-VP'
p2310
I1
sS'NNS'
p2311
I1
sa(dp2312
g2
I0
sS'VBN'
p2313
I1
sg3
I0
sS'JJ'
p2314
I1
sS'RB-VP'
p2315
I1
sg5
VDisorder
p2316
sg7
I2
sS'VBN-VP'
p2317
I1
sS'JJ-NP'
p2318
I1
sS'NN'
p2319
I1
sS'NNS-NP'
p2320
I1
sS'NN-NP'
p2321
I1
sg12
I10
sS'RB'
p2322
I1
sS'NNS'
p2323
I1
sa(dp2324
S'VB'
p2325
I1
sS'NN'
p2326
I1
sg2
I0
sS'JJ-NP'
p2327
I3
sS'NNS'
p2328
I2
sS'NNS-NP'
p2329
I2
sS'VBN'
p2330
I1
sg3
I0
sS'NN-NP'
p2331
I1
sg12
I1
sS'JJ'
p2332
I3
sS'VB-VP'
p2333
I1
sg5
VDrug
p2334
sg7
I3
sS'VBN-VP'
p2335
I1
sa(dp2336
g2
I1
sS'VBN'
p2337
I1
sg3
I0
sS'VBP'
p2338
I1
sS'VBP-VP'
p2339
I1
sS'JJ'
p2340
I1
sS'NNP-NP'
p2341
I1
sg5
VDisorder
p2342
sg7
I0
sS'VBN-VP'
p2343
I1
sS'JJ-NP'
p2344
I1
sS'NN'
p2345
I3
sS'NNS-NP'
p2346
I1
sS'NN-NP'
p2347
I3
sg12
I2
sS'NNS'
p2348
I1
sS'NNP'
p2349
I1
sa(dp2350
S'VBP-VP'
p2351
I1
sS'NN'
p2352
I1
sg2
I1
sS'VBD'
p2353
I1
sS'NNS'
p2354
I1
sS'NNS-NP'
p2355
I1
sg3
I0
sS'NN-NP'
p2356
I1
sS'VBP'
p2357
I1
sg12
I3
sS'VBD-VP'
p2358
I1
sS'NNP-NP'
p2359
I1
sg5
VDisorder
p2360
sg7
I0
sS'NNP'
p2361
I1
sa(dp2362
S'VBP-VP'
p2363
I1
sS'JJ-NP'
p2364
I1
sS'NN'
p2365
I4
sg2
I1
sS'NNS'
p2366
I1
sS'NNS-NP'
p2367
I1
sS'VBN'
p2368
I1
sg3
I0
sS'NN-NP'
p2369
I4
sS'VBP'
p2370
I1
sg12
I6
sS'JJ'
p2371
I1
sS'NNP-NP'
p2372
I1
sS'VBN-VP'
p2373
I1
sg5
VDisorder
p2374
sg7
I0
sS'NNP'
p2375
I1
sa(dp2376
g2
I0
sS'VBN'
p2377
I1
sg3
I0
sS'JJ'
p2378
I1
sS'NNP-NP'
p2379
I1
sg5
VDisorder
p2380
sg7
I0
sS'VBN-VP'
p2381
I1
sS'JJ-NP'
p2382
I1
sS'NN'
p2383
I4
sS'NNS-NP'
p2384
I1
sS'NN-NP'
p2385
I4
sg12
I2
sS'NNS'
p2386
I1
sS'NNP'
p2387
I1
sa(dp2388
S'NN'
p2389
I1
sg2
I0
sS'VBD'
p2390
I1
sS'NNS'
p2391
I1
sS'NNS-NP'
p2392
I1
sg3
I0
sS'NN-NP'
p2393
I1
sg12
I3
sS'VBD-VP'
p2394
I1
sS'NNP-NP'
p2395
I1
sg5
VDisorder
p2396
sg7
I0
sS'NNP'
p2397
I1
sa(dp2398
g2
I0
sS'VBN'
p2399
I1
sg3
I0
sS'JJ'
p2400
I1
sS'NNP-NP'
p2401
I1
sg5
VDisorder
p2402
sg7
I0
sS'VBN-VP'
p2403
I1
sS'JJ-NP'
p2404
I1
sS'NN'
p2405
I1
sS'NNS-NP'
p2406
I1
sS'NN-NP'
p2407
I1
sg12
I6
sS'NNS'
p2408
I1
sS'NNP'
p2409
I1
sa(dp2410
S'JJ-NP'
p2411
I1
sS'NN'
p2412
I1
sg2
I0
sg3
I0
sS'NN-NP'
p2413
I1
sg12
I4
sS'JJ'
p2414
I1
sg5
VDrug
p2415
sg7
I0
sa(dp2416
S'JJ-NP'
p2417
I2
sS'NN'
p2418
I1
sg2
I0
sS'VBN'
p2419
I1
sg3
I0
sS'NN-NP'
p2420
I1
sg12
I5
sS'JJ'
p2421
I2
sg5
VDrug
p2422
sg7
I0
sS'VBN-VP'
p2423
I1
sa(dp2424
S'VBG'
p2425
I2
sg2
I1
sS'VBD'
p2426
I1
sS'VBD-VP'
p2427
I1
sS'VBN'
p2428
I1
sS'CD'
p2429
I1
sg3
I0
sS'VBP'
p2430
I1
sS'VBP-VP'
p2431
I1
sS'JJ'
p2432
I2
sS'IN'
p2433
I1
sS'VBZ'
p2434
I1
sg5
VDisorder
p2435
sg7
I1
sS'VBN-VP'
p2436
I1
sS'JJ-NP'
p2437
I2
sS'CD-NP'
p2438
I1
sS'NN'
p2439
I2
sS'IN-PP'
p2440
I1
sS'NNS-NP'
p2441
I1
sS'VBG-VP'
p2442
I2
sS'NN-NP'
p2443
I1
sg12
I2
sS'NNS'
p2444
I1
sa(dp2445
S'VBG'
p2446
I2
sg2
I1
sS'VBD'
p2447
I1
sS'VBD-VP'
p2448
I1
sS'VBN'
p2449
I1
sS'CD'
p2450
I2
sg3
I0
sS'VBP'
p2451
I1
sS'VBP-VP'
p2452
I1
sS'JJ'
p2453
I3
sS'IN'
p2454
I1
sg5
VDisorder
p2455
sg7
I0
sS'VBN-VP'
p2456
I1
sS'JJ-NP'
p2457
I3
sS'CD-NP'
p2458
I2
sS'NN'
p2459
I5
sS'IN-PP'
p2460
I1
sS'NNS-NP'
p2461
I1
sS'VBG-VP'
p2462
I2
sS'NN-NP'
p2463
I5
sg12
I2
sS'NNS'
p2464
I1
sa(dp2465
S'VBG'
p2466
I2
sg2
I0
sS'VBD'
p2467
I1
sS'VBD-VP'
p2468
I1
sS'VBN'
p2469
I1
sS'CD'
p2470
I2
sg3
I0
sS'JJ'
p2471
I3
sS'IN'
p2472
I1
sS'VBZ'
p2473
I1
sg5
VDisorder
p2474
sg7
I0
sS'VBN-VP'
p2475
I1
sS'JJ-NP'
p2476
I3
sS'CD-NP'
p2477
I2
sS'NN'
p2478
I6
sS'IN-PP'
p2479
I1
sS'NNS-NP'
p2480
I1
sS'VBG-VP'
p2481
I2
sS'NN-NP'
p2482
I6
sg12
I2
sS'NNS'
p2483
I1
sa(dp2484
S'VB'
p2485
I2
sg2
I0
sS'VBN'
p2486
I1
sg3
I0
sS'JJ'
p2487
I1
sS'NNP-NP'
p2488
I1
sg5
VDrug
p2489
sg7
I3
sS'VBN-VP'
p2490
I1
sS'JJ-NP'
p2491
I1
sS'NN'
p2492
I2
sS'VB-VP'
p2493
I2
sS'NNS-NP'
p2494
I1
sS'NN-NP'
p2495
I2
sg12
I6
sS'NNS'
p2496
I1
sS'NNP'
p2497
I1
sa(dp2498
S'JJ-NP'
p2499
I1
sS'NN'
p2500
I3
sg2
I0
sS'VBN'
p2501
I1
sS'CD'
p2502
I8
sg3
I0
sS'NN-NP'
p2503
I3
sg12
I3
sS'JJ'
p2504
I1
sS'NNP-NP'
p2505
I4
sS'CD-NP'
p2506
I8
sS'NNP'
p2507
I4
sg5
VDisorder
p2508
sg7
I8
sS'VBN-VP'
p2509
I1
sa(dp2510
g2
I0
sS'VBN'
p2511
I1
sS'CD'
p2512
I4
sg3
I0
sS'NNP-NP'
p2513
I2
sg5
VDisorder
p2514
sg7
I4
sS'VBN-VP'
p2515
I1
sS'CD-NP'
p2516
I4
sS'NN'
p2517
I1
sS'NN-NP'
p2518
I1
sg12
I3
sS'NNP'
p2519
I2
sa(dp2520
S'VBG'
p2521
I1
sg2
I1
sS'VBN'
p2522
I1
sS'CD'
p2523
I4
sg3
I0
sS'JJ'
p2524
I1
sS'NNP-NP'
p2525
I2
sg5
VDisorder
p2526
sg7
I4
sS'VBN-VP'
p2527
I1
sS'JJ-NP'
p2528
I1
sS'VBG-NP'
p2529
I1
sS'CD-NP'
p2530
I4
sS'NN'
p2531
I1
sS'JJR-NP'
p2532
I1
sS'NNS-NP'
p2533
I3
sS'JJR'
p2534
I1
sS'NN-NP'
p2535
I1
sg12
I1
sS'NNS'
p2536
I3
sS'NNP'
p2537
I2
sa(dp2538
S'VBG'
p2539
I1
sg2
I0
sS'CD'
p2540
I4
sg3
I0
sS'JJ'
p2541
I1
sS'NNP-NP'
p2542
I2
sg5
VDisorder
p2543
sg7
I3
sS'JJ-NP'
p2544
I1
sS'VBG-NP'
p2545
I1
sS'CD-NP'
p2546
I4
sS'NN'
p2547
I3
sS'JJR-NP'
p2548
I1
sS'NNS-NP'
p2549
I3
sS'JJR'
p2550
I1
sS'NN-NP'
p2551
I3
sg12
I1
sS'NNS'
p2552
I3
sS'NNP'
p2553
I2
sa(dp2554
S'MD'
p2555
I1
sS'VB'
p2556
I2
sS'VB-VP'
p2557
I2
sg2
I1
sS'JJ-NP'
p2558
I1
sS'VBN'
p2559
I1
sg3
I0
sS'NN-NP'
p2560
I1
sS'NN'
p2561
I1
sg12
I0
sS'JJ'
p2562
I1
sS'MD-VP'
p2563
I1
sg5
VDrug
p2564
sg7
I1
sS'VBN-VP'
p2565
I1
sa(dp2566
S'MD'
p2567
I1
sS'VB'
p2568
I2
sS'VBN-VP'
p2569
I1
sS'VB-VP'
p2570
I2
sg2
I0
sS'VBN'
p2571
I1
sg3
I0
sS'NN-NP'
p2572
I1
sS'NN'
p2573
I1
sg12
I5
sS'NNP-NP'
p2574
I1
sS'MD-VP'
p2575
I1
sg5
VDisorder
p2576
sg7
I0
sS'NNP'
p2577
I1
sa(dp2578
g2
I0
sg3
I0
sS'JJ'
p2579
I1
sS'NNP-NP'
p2580
I2
sg5
VDrug
p2581
sg7
I0
sS'JJ-NP'
p2582
I1
sS'NN'
p2583
I1
sS'NNS-NP'
p2584
I1
sS'NN-NP'
p2585
I1
sg12
I0
sS'NNS'
p2586
I1
sS'NNP'
p2587
I2
sa(dp2588
S'VBG'
p2589
I1
sS'NN'
p2590
I2
sg2
I1
sS'NNS'
p2591
I1
sS'NNS-NP'
p2592
I1
sS'VBG-VP'
p2593
I1
sg3
I0
sS'NN-NP'
p2594
I2
sg12
I0
sS'NNP-NP'
p2595
I2
sg5
VDrug
p2596
sg7
I3
sS'NNP'
p2597
I2
sa(dp2598
S'VBG'
p2599
I1
sg2
I1
sS'VBG-VP'
p2600
I1
sg3
I0
sS'NNP-NP'
p2601
I2
sg5
VDrug
p2602
sg7
I3
sS'NN'
p2603
I2
sS'NNS-NP'
p2604
I1
sS'NN-NP'
p2605
I2
sg12
I4
sS'NNS'
p2606
I1
sS'NNP'
p2607
I2
sa(dp2608
g2
I0
sS'VBD'
p2609
I1
sS'VBD-VP'
p2610
I1
sS'CD'
p2611
I1
sg3
I0
sS'JJ'
p2612
I1
sS'NNP-NP'
p2613
I3
sg5
VDrug
p2614
sg7
I1
sS'JJ-NP'
p2615
I1
sS'CD-NP'
p2616
I1
sS'NN'
p2617
I1
sS'NNS-NP'
p2618
I1
sS'NN-NP'
p2619
I1
sg12
I3
sS'NNS'
p2620
I1
sS'NNP'
p2621
I3
sa(dp2622
g2
I0
sS'VBD'
p2623
I1
sS'VBD-VP'
p2624
I1
sS'CD'
p2625
I1
sg3
I0
sS'JJ'
p2626
I1
sS'NNP-NP'
p2627
I2
sg5
VDrug
p2628
sg7
I1
sS'JJ-NP'
p2629
I1
sS'CD-NP'
p2630
I1
sS'NN'
p2631
I1
sS'NNS-NP'
p2632
I1
sS'NN-NP'
p2633
I1
sg12
I6
sS'NNS'
p2634
I1
sS'NNP'
p2635
I2
sa(dp2636
g2
I0
sS'VBD'
p2637
I1
sS'VBD-VP'
p2638
I1
sg3
I0
sS'JJ'
p2639
I1
sS'NNP-NP'
p2640
I2
sg5
VDrug
p2641
sg7
I1
sS'JJ-NP'
p2642
I1
sS'NN'
p2643
I1
sS'NNS-NP'
p2644
I1
sS'NN-NP'
p2645
I1
sg12
I10
sS'NNS'
p2646
I1
sS'NNP'
p2647
I2
sa(dp2648
g2
I0
sS'VBD'
p2649
I1
sS'VBD-VP'
p2650
I1
sS'CD'
p2651
I1
sg3
I0
sS'JJ'
p2652
I1
sS'NNP-NP'
p2653
I4
sg5
VDrug
p2654
sg7
I1
sS'JJ-NP'
p2655
I1
sS'CD-NP'
p2656
I1
sS'NN'
p2657
I1
sS'NNS-NP'
p2658
I1
sS'NN-NP'
p2659
I1
sg12
I17
sS'NNS'
p2660
I1
sS'NNP'
p2661
I4
sa(dp2662
S'VB'
p2663
I1
sg2
I0
sS'VBN-NP'
p2664
I1
sS'VBN'
p2665
I1
sg3
I0
sS'JJ'
p2666
I1
sS'DT'
p2667
I1
sg5
VDrug
p2668
sg7
I2
sS'JJ-NP'
p2669
I1
sS'VB-VP'
p2670
I1
sS'NN'
p2671
I1
sS'NN-NP'
p2672
I1
sg12
I0
sS'DT-NP'
p2673
I1
sa(dp2674
S'DT-NP'
p2675
I1
sg2
I0
sS'VBN-NP'
p2676
I1
sS'VBN'
p2677
I1
sg3
I0
sS'JJ'
p2678
I1
sS'RB-VP'
p2679
I1
sg5
VDisorder
p2680
sS'DT'
p2681
I1
sg7
I0
sS'JJ-NP'
p2682
I1
sS'NN'
p2683
I1
sS'NNS-NP'
p2684
I2
sS'NN-NP'
p2685
I1
sg12
I6
sS'RB'
p2686
I1
sS'NNS'
p2687
I2
sa(dp2688
g2
I0
sS'VBN'
p2689
I1
sS'CD'
p2690
I1
sg3
I0
sS'JJ'
p2691
I5
sS'RB-VP'
p2692
I1
sg5
VDisorder
p2693
sg7
I1
sS'VBN-VP'
p2694
I1
sS'JJ-NP'
p2695
I5
sS'CD-NP'
p2696
I1
sS'NN'
p2697
I2
sS'NNS-NP'
p2698
I2
sS'NN-NP'
p2699
I2
sg12
I4
sS'RB'
p2700
I1
sS'NNS'
p2701
I2
sa(dp2702
g2
I0
sS'VBN'
p2703
I1
sS'CD'
p2704
I1
sg3
I0
sS'JJ'
p2705
I2
sS'RB-VP'
p2706
I1
sg5
VDisorder
p2707
sg7
I1
sS'VBN-VP'
p2708
I1
sS'JJ-NP'
p2709
I2
sS'CD-NP'
p2710
I1
sS'NN'
p2711
I2
sS'NNS-NP'
p2712
I1
sS'NN-NP'
p2713
I2
sg12
I6
sS'RB'
p2714
I1
sS'NNS'
p2715
I1
sa(dp2716
g2
I0
sS'VBN'
p2717
I1
sS'CD'
p2718
I1
sg3
I0
sS'JJ'
p2719
I3
sS'RB-VP'
p2720
I1
sg5
VDisorder
p2721
sg7
I1
sS'VBN-VP'
p2722
I1
sS'JJ-NP'
p2723
I3
sS'CD-NP'
p2724
I1
sS'NN'
p2725
I2
sS'NNS-NP'
p2726
I1
sS'NN-NP'
p2727
I2
sg12
I8
sS'RB'
p2728
I1
sS'NNS'
p2729
I1
sa(dp2730
g2
I0
sg3
I0
sS'JJ'
p2731
I1
sS'IN'
p2732
I1
sg5
VDrug
p2733
sg7
I0
sS'JJ-NP'
p2734
I1
sS'NN'
p2735
I4
sS'IN-PP'
p2736
I1
sS'NNS-NP'
p2737
I1
sS'NN-NP'
p2738
I4
sg12
I1
sS'NNS'
p2739
I1
sa(dp2740
S'JJ-NP'
p2741
I1
sS'NN'
p2742
I2
sg2
I0
sS'IN-PP'
p2743
I1
sS'NNS'
p2744
I1
sS'NNS-NP'
p2745
I1
sg3
I0
sS'NN-NP'
p2746
I2
sg12
I2
sS'JJ'
p2747
I1
sS'IN'
p2748
I1
sg5
VDrug
p2749
sg7
I0
sa(dp2750
S'VB'
p2751
I1
sg2
I0
sS'VBN'
p2752
I1
sg3
I0
sS'JJ'
p2753
I2
sS'IN'
p2754
I1
sS'NNP-NP'
p2755
I1
sg5
VDrug
p2756
sg7
I2
sS'VBN-VP'
p2757
I1
sS'JJ-NP'
p2758
I2
sS'VB-VP'
p2759
I1
sS'NN'
p2760
I1
sS'IN-PP'
p2761
I1
sS'NNS-NP'
p2762
I2
sS'NN-NP'
p2763
I1
sg12
I2
sS'NNS'
p2764
I2
sS'NNP'
p2765
I1
sa(dp2766
S'VB'
p2767
I2
sg2
I0
sS'VBN'
p2768
I1
sg3
I0
sS'JJ'
p2769
I1
sS'IN'
p2770
I1
sS'NNP-NP'
p2771
I1
sg5
VDrug
p2772
sg7
I2
sS'VBN-VP'
p2773
I1
sS'JJ-NP'
p2774
I1
sS'VB-VP'
p2775
I2
sS'NN'
p2776
I1
sS'IN-PP'
p2777
I1
sS'NNS-NP'
p2778
I1
sS'NN-NP'
p2779
I1
sg12
I2
sS'NNS'
p2780
I1
sS'NNP'
p2781
I1
sa(dp2782
S'VB'
p2783
I2
sg2
I0
sS'VBN'
p2784
I1
sg3
I0
sS'JJ'
p2785
I3
sS'IN'
p2786
I1
sS'NNP-NP'
p2787
I1
sg5
VDrug
p2788
sg7
I0
sS'VBN-VP'
p2789
I1
sS'JJ-NP'
p2790
I3
sS'VB-VP'
p2791
I2
sS'NN'
p2792
I2
sS'IN-PP'
p2793
I1
sS'NNS-NP'
p2794
I1
sS'NN-NP'
p2795
I2
sg12
I2
sS'NNS'
p2796
I1
sS'NNP'
p2797
I1
sa(dp2798
S'VB'
p2799
I1
sg2
I0
sS'VBN'
p2800
I1
sg3
I0
sS'JJ'
p2801
I2
sS'IN'
p2802
I1
sS'NNP-NP'
p2803
I1
sg5
VDrug
p2804
sg7
I2
sS'VBN-VP'
p2805
I1
sS'JJ-NP'
p2806
I2
sS'VB-VP'
p2807
I1
sS'NN'
p2808
I1
sS'IN-PP'
p2809
I1
sS'NNS-NP'
p2810
I2
sS'NN-NP'
p2811
I1
sg12
I3
sS'NNS'
p2812
I2
sS'NNP'
p2813
I1
sa(dp2814
S'VB'
p2815
I2
sg2
I0
sS'VBN'
p2816
I1
sg3
I0
sS'JJ'
p2817
I1
sS'IN'
p2818
I1
sS'NNP-NP'
p2819
I1
sg5
VDrug
p2820
sg7
I2
sS'VBN-VP'
p2821
I1
sS'JJ-NP'
p2822
I1
sS'VB-VP'
p2823
I2
sS'NN'
p2824
I1
sS'IN-PP'
p2825
I1
sS'NNS-NP'
p2826
I1
sS'NN-NP'
p2827
I1
sg12
I3
sS'NNS'
p2828
I1
sS'NNP'
p2829
I1
sa(dp2830
S'VB'
p2831
I2
sg2
I0
sS'VBN'
p2832
I1
sg3
I0
sS'JJ'
p2833
I1
sS'IN'
p2834
I1
sS'NNP-NP'
p2835
I1
sg5
VDrug
p2836
sg7
I2
sS'VBN-VP'
p2837
I1
sS'JJ-NP'
p2838
I1
sS'VB-VP'
p2839
I2
sS'NN'
p2840
I1
sS'IN-PP'
p2841
I1
sS'NNS-NP'
p2842
I1
sS'NN-NP'
p2843
I1
sg12
I3
sS'NNS'
p2844
I1
sS'NNP'
p2845
I1
sa(dp2846
S'VB'
p2847
I2
sg2
I0
sS'VBN'
p2848
I1
sg3
I0
sS'JJ'
p2849
I3
sS'IN'
p2850
I1
sS'NNP-NP'
p2851
I1
sg5
VDrug
p2852
sg7
I0
sS'VBN-VP'
p2853
I1
sS'JJ-NP'
p2854
I3
sS'VB-VP'
p2855
I2
sS'NN'
p2856
I2
sS'IN-PP'
p2857
I1
sS'NNS-NP'
p2858
I1
sS'NN-NP'
p2859
I2
sg12
I3
sS'NNS'
p2860
I1
sS'NNP'
p2861
I1
sa(dp2862
g2
I0
sS'VBN-NP'
p2863
I1
sS'VBD-VP'
p2864
I1
sS'VBN'
p2865
I1
sg3
I1
sS'JJ'
p2866
I2
sS'IN'
p2867
I1
sS'WP$'
p2868
I1
sS'NNP-NP'
p2869
I1
sg5
VDisorder
p2870
sg7
I3
sS'JJ-NP'
p2871
I2
sS'NN'
p2872
I3
sS'IN-PP'
p2873
I1
sS'VBD'
p2874
I1
sS'NNS-NP'
p2875
I1
sS'NN-NP'
p2876
I3
sg12
I4
sS'WP$-NP'
p2877
I1
sS'NNS'
p2878
I1
sS'NNP'
p2879
I1
sa(dp2880
g2
I0
sS'VBN-NP'
p2881
I1
sS'VBD-VP'
p2882
I1
sS'VBN'
p2883
I1
sg3
I1
sS'JJ'
p2884
I1
sS'IN'
p2885
I1
sS'WP$'
p2886
I1
sS'NNP-NP'
p2887
I2
sg5
VDisorder
p2888
sg7
I1
sS'JJ-NP'
p2889
I1
sS'NN'
p2890
I1
sS'IN-PP'
p2891
I1
sS'VBD'
p2892
I1
sS'NNS-NP'
p2893
I3
sS'NN-NP'
p2894
I1
sg12
I4
sS'WP$-NP'
p2895
I1
sS'NNS'
p2896
I3
sS'NNP'
p2897
I2
sa(dp2898
S'RB-NP'
p2899
I1
sS'DT-NP'
p2900
I1
sg2
I0
sS'VBN'
p2901
I1
sS'CD'
p2902
I1
sg3
I0
sS'JJ'
p2903
I1
sS'IN'
p2904
I1
sS'NNP-NP'
p2905
I1
sS'DT'
p2906
I1
sg5
VDisorder
p2907
sg7
I1
sS'VBN-VP'
p2908
I1
sS'JJ-NP'
p2909
I1
sS'CD-NP'
p2910
I1
sS'NN'
p2911
I1
sS'IN-PP'
p2912
I1
sS'NNS-NP'
p2913
I1
sS'NN-NP'
p2914
I1
sg12
I5
sS'RB'
p2915
I1
sS'NNS'
p2916
I1
sS'NNP'
p2917
I1
sa(dp2918
S'RB-NP'
p2919
I1
sS'DT-NP'
p2920
I1
sg2
I0
sS'VBN'
p2921
I1
sS'CD'
p2922
I1
sg3
I0
sS'JJ'
p2923
I1
sS'IN'
p2924
I1
sS'NNP-NP'
p2925
I1
sS'DT'
p2926
I1
sg5
VDisorder
p2927
sg7
I0
sS'VBN-VP'
p2928
I1
sS'JJ-NP'
p2929
I1
sS'CD-NP'
p2930
I1
sS'NN'
p2931
I1
sS'IN-PP'
p2932
I1
sS'NNS-NP'
p2933
I1
sS'NN-NP'
p2934
I1
sg12
I5
sS'RB'
p2935
I1
sS'NNS'
p2936
I1
sS'NNP'
p2937
I1
sa(dp2938
S'VB'
p2939
I2
sg2
I2
sg3
I0
sS'JJ'
p2940
I5
sS'VBZ'
p2941
I1
sS'NNP-NP'
p2942
I1
sS'MD-VP'
p2943
I1
sg5
VDrug
p2944
sg7
I2
sS'MD'
p2945
I1
sS'JJ-NP'
p2946
I5
sS'VB-VP'
p2947
I2
sS'NN'
p2948
I2
sS'VBZ-VP'
p2949
I1
sS'NNS-NP'
p2950
I1
sS'NN-NP'
p2951
I2
sg12
I3
sS'NNS'
p2952
I1
sS'NNP'
p2953
I1
sa(dp2954
S'VB'
p2955
I1
sg2
I1
sg3
I0
sS'JJ'
p2956
I3
sS'VBZ'
p2957
I1
sS'NNP-NP'
p2958
I1
sS'MD-VP'
p2959
I1
sg5
VDrug
p2960
sg7
I1
sS'MD'
p2961
I1
sS'JJ-NP'
p2962
I3
sS'VB-VP'
p2963
I1
sS'NN'
p2964
I2
sS'VBZ-VP'
p2965
I1
sS'NNS-NP'
p2966
I1
sS'NN-NP'
p2967
I2
sg12
I3
sS'NNS'
p2968
I1
sS'NNP'
p2969
I1
sa(dp2970
S'VB'
p2971
I1
sg2
I1
sg3
I0
sS'JJ'
p2972
I3
sS'VBZ'
p2973
I1
sS'NNP-NP'
p2974
I1
sS'MD-VP'
p2975
I1
sg5
VDrug
p2976
sg7
I0
sS'MD'
p2977
I1
sS'JJ-NP'
p2978
I3
sS'VB-VP'
p2979
I1
sS'NN'
p2980
I5
sS'VBZ-VP'
p2981
I1
sS'NNS-NP'
p2982
I1
sS'NN-NP'
p2983
I5
sg12
I3
sS'NNS'
p2984
I1
sS'NNP'
p2985
I1
sa(dp2986
S'VB'
p2987
I2
sg2
I2
sg3
I0
sS'JJ'
p2988
I5
sS'VBZ'
p2989
I1
sS'NNP-NP'
p2990
I2
sg5
VDrug
p2991
sg7
I2
sS'JJ-NP'
p2992
I5
sS'VB-VP'
p2993
I2
sS'NN'
p2994
I2
sS'VBZ-VP'
p2995
I1
sS'NNS-NP'
p2996
I1
sS'NN-NP'
p2997
I2
sg12
I5
sS'NNS'
p2998
I1
sS'NNP'
p2999
I2
sa(dp3000
S'VB'
p3001
I1
sg2
I1
sg3
I0
sS'JJ'
p3002
I3
sS'VBZ'
p3003
I1
sS'NNP-NP'
p3004
I2
sg5
VDrug
p3005
sg7
I1
sS'JJ-NP'
p3006
I3
sS'VB-VP'
p3007
I1
sS'NN'
p3008
I2
sS'VBZ-VP'
p3009
I1
sS'NNS-NP'
p3010
I1
sS'NN-NP'
p3011
I2
sg12
I5
sS'NNS'
p3012
I1
sS'NNP'
p3013
I2
sa(dp3014
S'VB'
p3015
I1
sg2
I1
sg3
I0
sS'JJ'
p3016
I3
sS'VBZ'
p3017
I1
sS'NNP-NP'
p3018
I2
sg5
VDrug
p3019
sg7
I0
sS'JJ-NP'
p3020
I3
sS'VB-VP'
p3021
I1
sS'NN'
p3022
I5
sS'VBZ-VP'
p3023
I1
sS'NNS-NP'
p3024
I1
sS'NN-NP'
p3025
I5
sg12
I5
sS'NNS'
p3026
I1
sS'NNP'
p3027
I2
sa(dp3028
S'VB'
p3029
I1
sg2
I0
sS'VBN-NP'
p3030
I1
sS'VBN'
p3031
I1
sS'CD'
p3032
I3
sg3
I0
sS'JJ'
p3033
I4
sS'VB-VP'
p3034
I1
sS'NNP-NP'
p3035
I2
sg5
VDisorder
p3036
sg7
I0
sS'JJ-NP'
p3037
I4
sS'CD-NP'
p3038
I3
sS'NN'
p3039
I3
sS'NNS-NP'
p3040
I3
sS'NN-NP'
p3041
I3
sg12
I0
sS'NNS'
p3042
I3
sS'NNP'
p3043
I2
sa(dp3044
S'VB'
p3045
I1
sg2
I0
sS'VBN-NP'
p3046
I1
sS'VBN'
p3047
I1
sS'CD'
p3048
I3
sg3
I0
sS'JJ'
p3049
I1
sS'VB-VP'
p3050
I1
sS'NNP-NP'
p3051
I2
sg5
VDisorder
p3052
sg7
I0
sS'JJ-NP'
p3053
I1
sS'CD-NP'
p3054
I3
sS'NN'
p3055
I2
sS'NNS-NP'
p3056
I1
sS'NN-NP'
p3057
I2
sg12
I7
sS'NNS'
p3058
I1
sS'NNP'
p3059
I2
sa(dp3060
S'VBG'
p3061
I1
sS'NN'
p3062
I1
sg2
I0
sS'VBD'
p3063
I1
sS'VBD-VP'
p3064
I1
sS'NNS'
p3065
I1
sS'NNS-NP'
p3066
I1
sS'VBG-NP'
p3067
I1
sg3
I0
sS'NN-NP'
p3068
I1
sg12
I6
sS'NNP-NP'
p3069
I1
sg5
VDisorder
p3070
sg7
I0
sS'NNP'
p3071
I1
sa(dp3072
S'JJ-NP'
p3073
I1
sS'VBG'
p3074
I1
sS'NN'
p3075
I5
sg2
I0
sS'VBD'
p3076
I1
sS'VBD-VP'
p3077
I1
sS'NNS'
p3078
I1
sS'NNS-NP'
p3079
I1
sS'VBG-NP'
p3080
I1
sg3
I0
sS'NN-NP'
p3081
I5
sg12
I8
sS'JJ'
p3082
I1
sS'NNP-NP'
p3083
I1
sg5
VDisorder
p3084
sg7
I0
sS'NNP'
p3085
I1
sa(dp3086
g3
I0
sS'NN-NP'
p3087
I1
sg2
I0
sS'NN'
p3088
I1
sg5
VDisorder
p3089
sg7
I0
sg12
I1
sa(dp3090
S'JJ-NP'
p3091
I2
sS'NN'
p3092
I4
sg2
I0
sS'NNS'
p3093
I1
sS'NNS-NP'
p3094
I1
sg3
I0
sS'NN-NP'
p3095
I4
sg12
I0
sS'JJ'
p3096
I2
sS'NNP-NP'
p3097
I1
sg5
VDisorder
p3098
sg7
I2
sS'NNP'
p3099
I1
sa(dp3100
S'JJ-NP'
p3101
I2
sS'NN'
p3102
I4
sg2
I0
sS'NNS'
p3103
I1
sS'NNS-NP'
p3104
I1
sg3
I0
sS'NN-NP'
p3105
I4
sg12
I0
sS'JJ'
p3106
I2
sg5
VDrug
p3107
sg7
I2
sa(dp3108
S'JJ-NP'
p3109
I1
sS'NN'
p3110
I1
sg2
I0
sS'VBN-NP'
p3111
I1
sS'NNS'
p3112
I1
sS'NNS-NP'
p3113
I1
sS'VBN'
p3114
I1
sg3
I0
sS'NN-NP'
p3115
I1
sg12
I0
sS'JJ'
p3116
I1
sS'NNP-NP'
p3117
I1
sg5
VDrug
p3118
sg7
I1
sS'NNP'
p3119
I1
sa(dp3120
S'NN'
p3121
I1
sg2
I0
sS'VBN-NP'
p3122
I1
sS'NNS'
p3123
I1
sS'NNS-NP'
p3124
I1
sS'VBN'
p3125
I2
sg3
I0
sS'NN-NP'
p3126
I1
sg12
I0
sg5
VDrug
p3127
sg7
I0
sS'VBN-VP'
p3128
I1
sa(dp3129
S'VBG'
p3130
I1
sg2
I2
sS'VBD'
p3131
I2
sS'VBD-VP'
p3132
I2
sg3
I0
sS'VBP'
p3133
I1
sS'VBP-VP'
p3134
I1
sS'JJ'
p3135
I2
sg5
VDisorder
p3136
sg7
I7
sS'JJ-NP'
p3137
I2
sS'NN'
p3138
I13
sS'VBG-VP'
p3139
I1
sS'NN-NP'
p3140
I13
sg12
I5
sa(dp3141
S'VBG'
p3142
I1
sg2
I2
sS'VBD'
p3143
I2
sS'VBD-VP'
p3144
I2
sg3
I0
sS'VBP'
p3145
I1
sS'VBP-VP'
p3146
I1
sS'JJ'
p3147
I2
sg5
VDisorder
p3148
sg7
I7
sS'JJ-NP'
p3149
I2
sS'NN'
p3150
I13
sS'VBG-VP'
p3151
I1
sS'NN-NP'
p3152
I13
sg12
I9
sa(dp3153
S'JJ-NP'
p3154
I1
sS'VBG'
p3155
I1
sg2
I0
sS'NN'
p3156
I1
sS'NNS'
p3157
I1
sS'NNS-NP'
p3158
I1
sS'VBG-VP'
p3159
I1
sg3
I0
sS'NN-NP'
p3160
I1
sg12
I3
sS'JJ'
p3161
I1
sg5
VDisorder
p3162
sg7
I0
sa(dp3163
g2
I0
sS'VBN-NP'
p3164
I1
sS'VBN'
p3165
I1
sg3
I0
sS'JJ'
p3166
I2
sg5
VDrug
p3167
sg7
I1
sS'JJ-NP'
p3168
I2
sS'NN'
p3169
I7
sS'NNS-NP'
p3170
I1
sS'NN-NP'
p3171
I7
sg12
I1
sS'NNS'
p3172
I1
sa(dp3173
g2
I0
sS'VBN-NP'
p3174
I1
sS'VBN'
p3175
I1
sg3
I0
sS'JJ'
p3176
I6
sg5
VDrug
p3177
sg7
I0
sS'JJ-NP'
p3178
I6
sS'NN'
p3179
I9
sS'NNS-NP'
p3180
I1
sS'NN-NP'
p3181
I9
sg12
I1
sS'NNS'
p3182
I1
sa(dp3183
S'JJ-NP'
p3184
I2
sS'NN'
p3185
I3
sg2
I0
sS'NNS'
p3186
I1
sS'NNS-NP'
p3187
I1
sg3
I0
sS'NN-NP'
p3188
I3
sg12
I2
sS'JJ'
p3189
I2
sS'NNP-NP'
p3190
I1
sg5
VDrug
p3191
sg7
I1
sS'NNP'
p3192
I1
sa(dp3193
S'JJ-NP'
p3194
I4
sS'NN'
p3195
I5
sg2
I0
sS'NNS'
p3196
I1
sS'NNS-NP'
p3197
I1
sg3
I0
sS'NN-NP'
p3198
I5
sg12
I2
sS'JJ'
p3199
I4
sS'NNP-NP'
p3200
I1
sg5
VDrug
p3201
sg7
I0
sS'NNP'
p3202
I1
sa(dp3203
g2
I0
sS'VBN-NP'
p3204
I1
sS'VBN'
p3205
I1
sg3
I0
sS'JJ'
p3206
I2
sS'NNP-NP'
p3207
I1
sg5
VDrug
p3208
sg7
I1
sS'JJ-NP'
p3209
I2
sS'NN'
p3210
I5
sS'NNS-NP'
p3211
I1
sS'NN-NP'
p3212
I5
sg12
I9
sS'NNS'
p3213
I1
sS'NNP'
p3214
I1
sa(dp3215
g2
I0
sS'VBN-NP'
p3216
I1
sS'VBN'
p3217
I1
sg3
I0
sS'JJ'
p3218
I3
sS'NNP-NP'
p3219
I1
sg5
VDrug
p3220
sg7
I0
sS'JJ-NP'
p3221
I3
sS'NN'
p3222
I2
sS'NNS-NP'
p3223
I1
sS'NN-NP'
p3224
I2
sg12
I9
sS'NNS'
p3225
I1
sS'NNP'
p3226
I1
sa(dp3227
S'VBG'
p3228
I1
sg2
I0
sS'NNS-NP'
p3229
I1
sS'CD'
p3230
I1
sg3
I0
sS'JJ'
p3231
I1
sS'NNP-NP'
p3232
I3
sg5
VDrug
p3233
sg7
I3
sS'JJ-NP'
p3234
I1
sS'CD-NP'
p3235
I1
sS'NN'
p3236
I3
sS'VBG-VP'
p3237
I1
sS'NN-NP'
p3238
I3
sg12
I3
sS'NNS'
p3239
I1
sS'NNP'
p3240
I3
sa(dp3241
S'VBG'
p3242
I1
sg2
I0
sS'NNS-NP'
p3243
I2
sS'CD'
p3244
I1
sg3
I0
sS'JJ'
p3245
I3
sS'NNP-NP'
p3246
I1
sg5
VDrug
p3247
sg7
I1
sS'JJ-NP'
p3248
I3
sS'CD-NP'
p3249
I1
sS'NN'
p3250
I3
sS'VBG-VP'
p3251
I1
sS'NN-NP'
p3252
I3
sg12
I3
sS'NNS'
p3253
I2
sS'NNP'
p3254
I1
sa(dp3255
S'VBG'
p3256
I1
sg2
I0
sS'NNS-NP'
p3257
I2
sS'CD'
p3258
I1
sg3
I0
sS'JJ'
p3259
I4
sS'NNP-NP'
p3260
I1
sg5
VDrug
p3261
sg7
I0
sS'JJ-NP'
p3262
I4
sS'CD-NP'
p3263
I1
sS'NN'
p3264
I3
sS'VBG-VP'
p3265
I1
sS'NN-NP'
p3266
I3
sg12
I3
sS'NNS'
p3267
I2
sS'NNP'
p3268
I1
sa(dp3269
S'JJ-NP'
p3270
I3
sg2
I0
sS'NN'
p3271
I2
sS'VBN'
p3272
I1
sg3
I0
sS'NN-NP'
p3273
I2
sg12
I4
sS'JJ'
p3274
I3
sS'NNP-NP'
p3275
I1
sS'VBN-VP'
p3276
I1
sg5
VDrug
p3277
sg7
I0
sS'NNP'
p3278
I1
sa(dp3279
S'JJ-NP'
p3280
I5
sg2
I0
sS'NN'
p3281
I4
sS'VBN'
p3282
I1
sg3
I0
sS'NN-NP'
p3283
I4
sg12
I4
sS'JJ'
p3284
I5
sS'NNP-NP'
p3285
I2
sS'VBN-VP'
p3286
I1
sg5
VDrug
p3287
sg7
I0
sS'NNP'
p3288
I2
sa(dp3289
S'JJ-NP'
p3290
I1
sS'NN'
p3291
I4
sg2
I0
sS'CD'
p3292
I2
sg3
I0
sS'NN-NP'
p3293
I4
sg12
I8
sS'JJ'
p3294
I1
sg5
VDrug
p3295
sg7
I0
sS'CD-NP'
p3296
I2
sa(dp3297
S'JJ-NP'
p3298
I1
sS'NN'
p3299
I6
sg2
I0
sS'NNS'
p3300
I2
sS'NNS-NP'
p3301
I2
sS'CD'
p3302
I2
sg3
I0
sS'NN-NP'
p3303
I6
sg12
I0
sS'JJ'
p3304
I1
sg5
VDrug
p3305
sg7
I2
sS'CD-NP'
p3306
I2
sa(dp3307
g2
I0
sS'CD'
p3308
I1
sg3
I0
sS'JJ'
p3309
I2
sS'NNP-NP'
p3310
I1
sg5
VDisorder
p3311
sg7
I1
sS'JJ-NP'
p3312
I2
sS'CD-NP'
p3313
I1
sS'NN'
p3314
I2
sS'NNS-NP'
p3315
I1
sS'NN-NP'
p3316
I2
sg12
I6
sS'NNS'
p3317
I1
sS'NNP'
p3318
I1
sa(dp3319
S'VB'
p3320
I1
sg2
I1
sS'VBD'
p3321
I1
sS'VBD-VP'
p3322
I1
sS'VBN'
p3323
I1
sS'CD'
p3324
I1
sg3
I0
sS'JJ'
p3325
I2
sS'VB-VP'
p3326
I1
sg5
VDisorder
p3327
sg7
I3
sS'JJ-NP'
p3328
I2
sS'CD-NP'
p3329
I1
sS'NN'
p3330
I6
sS'VBN-NP'
p3331
I1
sS'NNS-NP'
p3332
I1
sS'NN-NP'
p3333
I6
sg12
I4
sS'NNS'
p3334
I1
sa(dp3335
S'VB'
p3336
I1
sg2
I0
sS'VBD'
p3337
I1
sS'VBD-VP'
p3338
I1
sS'VBN'
p3339
I1
sS'CD'
p3340
I1
sg3
I0
sS'JJ'
p3341
I2
sS'VB-VP'
p3342
I1
sS'NNP-NP'
p3343
I1
sg5
VDrug
p3344
sg7
I0
sS'JJ-NP'
p3345
I2
sS'CD-NP'
p3346
I1
sS'NN'
p3347
I4
sS'VBN-NP'
p3348
I1
sS'NNS-NP'
p3349
I1
sS'NN-NP'
p3350
I4
sg12
I8
sS'NNS'
p3351
I1
sS'NNP'
p3352
I1
sa(dp3353
S'VBG'
p3354
I1
sg2
I0
sS'IN-PP'
p3355
I1
sS'VBG-VP'
p3356
I1
sg3
I0
sg12
I0
sS'IN'
p3357
I1
sg5
VDisorder
p3358
sg7
I0
sa(dp3359
g2
I0
sS'VBN'
p3360
I2
sg3
I0
sS'JJ'
p3361
I1
sg5
VDisorder
p3362
sg7
I0
sS'VBN-VP'
p3363
I2
sS'JJ-NP'
p3364
I1
sS'NN'
p3365
I1
sS'NNS-NP'
p3366
I1
sS'NN-NP'
p3367
I1
sg12
I0
sS'NNS'
p3368
I1
sa(dp3369
g2
I0
sg3
I0
sS'JJ'
p3370
I4
sS'NNP-NP'
p3371
I1
sg5
VDrug
p3372
sg7
I0
sS'JJ-NP'
p3373
I4
sS'NN'
p3374
I5
sS'NNS-NP'
p3375
I2
sS'NN-NP'
p3376
I5
sg12
I0
sS'NNS'
p3377
I2
sS'NNP'
p3378
I1
sa(dp3379
g2
I0
sg3
I0
sS'JJ'
p3380
I4
sS'NNP-NP'
p3381
I2
sg5
VDrug
p3382
sg7
I0
sS'JJ-NP'
p3383
I4
sS'NN'
p3384
I4
sS'NNS-NP'
p3385
I2
sS'NN-NP'
p3386
I4
sg12
I2
sS'NNS'
p3387
I2
sS'NNP'
p3388
I2
sa(dp3389
S'JJ-NP'
p3390
I4
sS'NN'
p3391
I3
sg2
I0
sS'NNS'
p3392
I2
sS'NNS-NP'
p3393
I2
sg3
I0
sS'NN-NP'
p3394
I3
sg12
I3
sS'JJ'
p3395
I4
sS'NNP-NP'
p3396
I2
sg5
VDrug
p3397
sg7
I0
sS'NNP'
p3398
I2
sa(dp3399
S'JJ-NP'
p3400
I4
sS'NN'
p3401
I3
sg2
I0
sS'NNS'
p3402
I2
sS'NNS-NP'
p3403
I2
sg3
I0
sS'NN-NP'
p3404
I3
sg12
I4
sS'JJ'
p3405
I4
sS'NNP-NP'
p3406
I2
sg5
VDrug
p3407
sg7
I0
sS'NNP'
p3408
I2
sa(dp3409
S'VBP-VP'
p3410
I1
sS'NN'
p3411
I2
sg2
I0
sS'VBD'
p3412
I1
sS'VBD-VP'
p3413
I1
sS'NNS-NP'
p3414
I1
sg3
I0
sS'NN-NP'
p3415
I4
sS'VBP'
p3416
I1
sg12
I7
sS'JJ'
p3417
I1
sS'NNP'
p3418
I2
sg5
VDrug
p3419
sg7
I0
sS'NNS'
p3420
I1
sa(dp3421
S'NN'
p3422
I2
sg2
I0
sS'VBD'
p3423
I1
sS'VBD-VP'
p3424
I1
sS'NNS'
p3425
I1
sS'NNS-NP'
p3426
I1
sg3
I0
sS'NN-NP'
p3427
I4
sS'VBP'
p3428
I2
sS'VBP-VP'
p3429
I2
sS'JJ'
p3430
I1
sS'NNP-NP'
p3431
I1
sS'NNP'
p3432
I1
sg5
VDrug
p3433
sg7
I0
sg12
I9
sa(dp3434
g2
I0
sS'VBD'
p3435
I1
sS'VBD-VP'
p3436
I1
sg3
I0
sS'VBP'
p3437
I2
sS'VBP-VP'
p3438
I2
sS'JJ'
p3439
I1
sS'NNP-NP'
p3440
I1
sg5
VDrug
p3441
sg7
I0
sS'JJ-NP'
p3442
I1
sS'NN'
p3443
I1
sS'NNS-NP'
p3444
I1
sS'NN-NP'
p3445
I1
sg12
I10
sS'NNS'
p3446
I1
sS'NNP'
p3447
I1
sa(dp3448
g2
I0
sS'VBD'
p3449
I1
sS'VBD-VP'
p3450
I1
sg3
I0
sS'VBP'
p3451
I2
sS'VBP-VP'
p3452
I2
sS'JJ'
p3453
I1
sS'NNP-NP'
p3454
I2
sg5
VDrug
p3455
sg7
I0
sS'JJ-NP'
p3456
I1
sS'NN'
p3457
I1
sS'NNS-NP'
p3458
I1
sS'NN-NP'
p3459
I1
sg12
I11
sS'NNS'
p3460
I1
sS'NNP'
p3461
I2
sa(dp3462
g2
I0
sS'VBN'
p3463
I1
sg3
I0
sS'JJ'
p3464
I3
sg5
VDrug
p3465
sg7
I0
sS'VBN-VP'
p3466
I1
sS'JJ-NP'
p3467
I3
sS'NN'
p3468
I3
sS'NNS-NP'
p3469
I1
sS'NN-NP'
p3470
I3
sg12
I0
sS'NNS'
p3471
I1
sa(dp3472
S'VB'
p3473
I1
sS'VBG'
p3474
I1
sg2
I0
sS'IN'
p3475
I2
sS'CD'
p3476
I1
sg3
I0
sS'JJ'
p3477
I1
sS'VBZ'
p3478
I1
sS'VB-VP'
p3479
I1
sS'NNP-NP'
p3480
I1
sg5
VDrug
p3481
sg7
I0
sS'JJ-NP'
p3482
I1
sS'CD-NP'
p3483
I1
sS'NN'
p3484
I4
sS'IN-PP'
p3485
I2
sS'VBZ-VP'
p3486
I1
sS'VBG-VP'
p3487
I1
sS'NN-NP'
p3488
I4
sg12
I6
sS'NNP'
p3489
I1
sa(dp3490
S'VBG'
p3491
I1
sg2
I0
sS'VBN-NP'
p3492
I1
sS'VBN'
p3493
I1
sg3
I0
sS'JJ'
p3494
I1
sg5
VDrug
p3495
sg7
I1
sS'JJ-NP'
p3496
I1
sS'VBG-NP'
p3497
I1
sS'NN'
p3498
I1
sS'NNS-NP'
p3499
I1
sS'NN-NP'
p3500
I1
sg12
I3
sS'NNS'
p3501
I1
sa(dp3502
S'VB'
p3503
I1
sS'VBG'
p3504
I1
sg2
I2
sS'VBG-VP'
p3505
I1
sS'VBN'
p3506
I1
sg3
I0
sS'JJ'
p3507
I2
sS'NNP-NP'
p3508
I1
sg5
VDisorder
p3509
sg7
I3
sS'VBN-VP'
p3510
I1
sS'JJ-NP'
p3511
I2
sS'VB-VP'
p3512
I1
sS'NN'
p3513
I5
sS'NNS-NP'
p3514
I1
sS'NN-NP'
p3515
I5
sg12
I3
sS'NNS'
p3516
I1
sS'NNP'
p3517
I1
sa(dp3518
S'VB'
p3519
I1
sS'VBG'
p3520
I1
sg2
I2
sS'NNS-NP'
p3521
I1
sS'VBN'
p3522
I1
sg3
I0
sS'JJ'
p3523
I2
sS'NNP-NP'
p3524
I1
sg5
VDisorder
p3525
sg7
I3
sS'VBN-VP'
p3526
I1
sS'JJ-NP'
p3527
I2
sS'VB-VP'
p3528
I1
sS'NN'
p3529
I5
sS'VBG-VP'
p3530
I1
sS'NN-NP'
p3531
I5
sg12
I6
sS'NNS'
p3532
I1
sS'NNP'
p3533
I1
sa(dp3534
S'VB'
p3535
I1
sS'VBG'
p3536
I1
sg2
I2
sS'NNS-NP'
p3537
I1
sS'VBN'
p3538
I1
sg3
I0
sS'JJ'
p3539
I2
sS'NNP-NP'
p3540
I1
sg5
VDisorder
p3541
sg7
I3
sS'VBN-VP'
p3542
I1
sS'JJ-NP'
p3543
I2
sS'NN'
p3544
I5
sS'VB-VP'
p3545
I1
sS'VBG-VP'
p3546
I1
sS'NN-NP'
p3547
I5
sg12
I7
sS'NNS'
p3548
I1
sS'NNP'
p3549
I1
sa(dp3550
S'VB'
p3551
I1
sS'VBG'
p3552
I1
sg2
I2
sS'VBG-VP'
p3553
I1
sS'VBN'
p3554
I1
sg3
I0
sS'JJ'
p3555
I2
sg5
VDisorder
p3556
sg7
I3
sS'VBN-VP'
p3557
I1
sS'JJ-NP'
p3558
I2
sS'NN'
p3559
I5
sS'VB-VP'
p3560
I1
sS'NNS-NP'
p3561
I1
sS'NN-NP'
p3562
I5
sg12
I8
sS'NNS'
p3563
I1
sa(dp3564
S'VB'
p3565
I1
sS'VBG'
p3566
I1
sg2
I2
sS'NNS-NP'
p3567
I1
sS'VBN'
p3568
I1
sg3
I0
sS'JJ'
p3569
I2
sg5
VDisorder
p3570
sg7
I3
sS'VBN-VP'
p3571
I1
sS'JJ-NP'
p3572
I2
sS'VB-VP'
p3573
I1
sS'NN'
p3574
I5
sS'VBG-VP'
p3575
I1
sS'NN-NP'
p3576
I5
sg12
I9
sS'NNS'
p3577
I1
sa(dp3578
S'VB'
p3579
I1
sS'VBG'
p3580
I1
sg2
I1
sS'NNS-NP'
p3581
I1
sS'VBN'
p3582
I1
sg3
I0
sS'JJ'
p3583
I1
sS'NNP-NP'
p3584
I1
sg5
VDrug
p3585
sg7
I1
sS'VBN-VP'
p3586
I1
sS'JJ-NP'
p3587
I1
sS'NN'
p3588
I1
sS'VB-VP'
p3589
I1
sS'VBG-VP'
p3590
I1
sS'NN-NP'
p3591
I1
sg12
I10
sS'NNS'
p3592
I1
sS'NNP'
p3593
I1
sa(dp3594
S'VB'
p3595
I1
sS'VBG'
p3596
I1
sg2
I1
sS'VBG-VP'
p3597
I1
sS'VBN'
p3598
I1
sg3
I0
sS'JJ'
p3599
I2
sg5
VDisorder
p3600
sg7
I4
sS'VBN-VP'
p3601
I1
sS'JJ-NP'
p3602
I2
sS'VB-VP'
p3603
I1
sS'NN'
p3604
I3
sS'NNS-NP'
p3605
I1
sS'NN-NP'
p3606
I3
sg12
I3
sS'NNS'
p3607
I1
sa(dp3608
S'VB'
p3609
I1
sS'VBG'
p3610
I1
sg2
I1
sS'NNS-NP'
p3611
I1
sS'VBN'
p3612
I1
sg3
I0
sS'JJ'
p3613
I2
sg5
VDisorder
p3614
sg7
I4
sS'VBN-VP'
p3615
I1
sS'JJ-NP'
p3616
I2
sS'VB-VP'
p3617
I1
sS'NN'
p3618
I3
sS'VBG-VP'
p3619
I1
sS'NN-NP'
p3620
I3
sg12
I6
sS'NNS'
p3621
I1
sa(dp3622
S'VB'
p3623
I1
sS'VBG'
p3624
I1
sg2
I1
sS'VBG-VP'
p3625
I1
sS'VBN'
p3626
I1
sg3
I0
sS'JJ'
p3627
I2
sg5
VDisorder
p3628
sg7
I4
sS'VBN-VP'
p3629
I1
sS'JJ-NP'
p3630
I2
sS'NN'
p3631
I3
sS'VB-VP'
p3632
I1
sS'NNS-NP'
p3633
I1
sS'NN-NP'
p3634
I3
sg12
I7
sS'NNS'
p3635
I1
sa(dp3636
S'VB'
p3637
I1
sS'VBG'
p3638
I1
sg2
I1
sS'VBG-VP'
p3639
I1
sS'VBN'
p3640
I1
sg3
I0
sS'JJ'
p3641
I2
sg5
VDisorder
p3642
sg7
I4
sS'VBN-VP'
p3643
I1
sS'JJ-NP'
p3644
I2
sS'NN'
p3645
I3
sS'VB-VP'
p3646
I1
sS'NNS-NP'
p3647
I1
sS'NN-NP'
p3648
I3
sg12
I8
sS'NNS'
p3649
I1
sa(dp3650
S'VB'
p3651
I1
sS'VBG'
p3652
I1
sg2
I1
sS'NNS-NP'
p3653
I1
sS'VBN'
p3654
I1
sg3
I0
sS'JJ'
p3655
I2
sg5
VDisorder
p3656
sg7
I4
sS'VBN-VP'
p3657
I1
sS'JJ-NP'
p3658
I2
sS'VB-VP'
p3659
I1
sS'NN'
p3660
I3
sS'VBG-VP'
p3661
I1
sS'NN-NP'
p3662
I3
sg12
I9
sS'NNS'
p3663
I1
sa(dp3664
S'VB'
p3665
I1
sS'VBG'
p3666
I1
sg2
I1
sS'NNS-NP'
p3667
I1
sS'VBN'
p3668
I1
sg3
I0
sS'JJ'
p3669
I1
sg5
VDrug
p3670
sg7
I1
sS'VBN-VP'
p3671
I1
sS'JJ-NP'
p3672
I1
sS'NN'
p3673
I1
sS'VB-VP'
p3674
I1
sS'VBG-VP'
p3675
I1
sS'NN-NP'
p3676
I1
sg12
I13
sS'NNS'
p3677
I1
sa(dp3678
S'VB'
p3679
I1
sg2
I0
sS'VBN'
p3680
I3
sS'VB-NP'
p3681
I1
sS'CD'
p3682
I2
sg3
I0
sS'JJ'
p3683
I2
sS'NNP-NP'
p3684
I2
sg5
VDrug
p3685
sg7
I3
sS'VBN-VP'
p3686
I1
sS'JJ-NP'
p3687
I1
sS'CD-NP'
p3688
I1
sS'NN'
p3689
I11
sS'NNS-NP'
p3690
I1
sS'NN-NP'
p3691
I3
sg12
I3
sS'NNS'
p3692
I1
sS'NNP'
p3693
I5
sa(dp3694
S'VB'
p3695
I1
sg2
I0
sS'VBN'
p3696
I1
sS'VB-NP'
p3697
I1
sS'CD'
p3698
I2
sg3
I0
sS'JJ'
p3699
I1
sS'NNP-NP'
p3700
I2
sg5
VDisorder
p3701
sg7
I1
sS'VBN-VP'
p3702
I1
sS'JJ-NP'
p3703
I1
sS'CD-NP'
p3704
I1
sS'NN'
p3705
I4
sS'NNS-NP'
p3706
I1
sS'NN-NP'
p3707
I2
sg12
I8
sS'NNS'
p3708
I1
sS'NNP'
p3709
I3
sa(dp3710
S'VB'
p3711
I1
sg2
I0
sS'VBN'
p3712
I1
sg3
I0
sS'JJ'
p3713
I3
sS'NNP-NP'
p3714
I1
sg5
VDrug
p3715
sg7
I1
sS'VBN-VP'
p3716
I1
sS'JJ-NP'
p3717
I3
sS'NN'
p3718
I2
sS'VB-VP'
p3719
I1
sS'NNS-NP'
p3720
I1
sS'NN-NP'
p3721
I2
sg12
I4
sS'NNS'
p3722
I1
sS'NNP'
p3723
I1
sa(dp3724
S'VB'
p3725
I1
sg2
I0
sS'VBN'
p3726
I1
sg3
I0
sS'JJ'
p3727
I3
sS'NNP-NP'
p3728
I1
sg5
VDrug
p3729
sg7
I0
sS'VBN-VP'
p3730
I1
sS'JJ-NP'
p3731
I3
sS'NN'
p3732
I4
sS'VB-VP'
p3733
I1
sS'NNS-NP'
p3734
I1
sS'NN-NP'
p3735
I4
sg12
I4
sS'NNS'
p3736
I1
sS'NNP'
p3737
I1
sa(dp3738
S'VB'
p3739
I1
sg2
I0
sS'VBN'
p3740
I1
sg3
I0
sS'JJ'
p3741
I3
sS'NNP-NP'
p3742
I1
sg5
VDrug
p3743
sg7
I0
sS'VBN-VP'
p3744
I1
sS'JJ-NP'
p3745
I3
sS'NN'
p3746
I4
sS'VB-VP'
p3747
I1
sS'NNS-NP'
p3748
I1
sS'NN-NP'
p3749
I4
sg12
I4
sS'NNS'
p3750
I1
sS'NNP'
p3751
I1
sa(dp3752
S'VB'
p3753
I1
sg2
I0
sS'VBN'
p3754
I1
sg3
I0
sS'JJ'
p3755
I3
sS'NNP-NP'
p3756
I1
sg5
VDrug
p3757
sg7
I1
sS'VBN-VP'
p3758
I1
sS'JJ-NP'
p3759
I3
sS'NN'
p3760
I2
sS'VB-VP'
p3761
I1
sS'NNS-NP'
p3762
I1
sS'NN-NP'
p3763
I2
sg12
I5
sS'NNS'
p3764
I1
sS'NNP'
p3765
I1
sa(dp3766
S'VB'
p3767
I1
sg2
I0
sS'VBN'
p3768
I1
sg3
I0
sS'JJ'
p3769
I3
sS'NNP-NP'
p3770
I1
sg5
VDrug
p3771
sg7
I0
sS'VBN-VP'
p3772
I1
sS'JJ-NP'
p3773
I3
sS'NN'
p3774
I3
sS'VB-VP'
p3775
I1
sS'NNS-NP'
p3776
I1
sS'NN-NP'
p3777
I3
sg12
I5
sS'NNS'
p3778
I1
sS'NNP'
p3779
I1
sa(dp3780
S'VB'
p3781
I1
sg2
I0
sS'VBN'
p3782
I1
sg3
I0
sS'JJ'
p3783
I3
sS'NNP-NP'
p3784
I1
sg5
VDrug
p3785
sg7
I0
sS'VBN-VP'
p3786
I1
sS'JJ-NP'
p3787
I3
sS'NN'
p3788
I3
sS'VB-VP'
p3789
I1
sS'NNS-NP'
p3790
I1
sS'NN-NP'
p3791
I3
sg12
I5
sS'NNS'
p3792
I1
sS'NNP'
p3793
I1
sa(dp3794
S'JJ-NP'
p3795
I4
sS'VBG'
p3796
I1
sS'NN'
p3797
I1
sg2
I0
sS'NNS'
p3798
I1
sS'NNS-NP'
p3799
I1
sg3
I0
sS'NN-NP'
p3800
I1
sg12
I1
sS'JJ'
p3801
I4
sS'VBG-NP'
p3802
I1
sg5
VDrug
p3803
sg7
I1
sa(dp3804
S'JJ-NP'
p3805
I1
sS'NN'
p3806
I2
sg2
I0
sS'VBN'
p3807
I1
sg3
I0
sS'NN-NP'
p3808
I2
sg12
I1
sS'JJ'
p3809
I1
sg5
VDrug
p3810
sg7
I0
sS'VBN-VP'
p3811
I1
sa(dp3812
S'JJ-NP'
p3813
I1
sS'NN'
p3814
I1
sg2
I0
sS'NNS'
p3815
I1
sS'NNS-NP'
p3816
I1
sS'VBN'
p3817
I1
sg3
I0
sS'NN-NP'
p3818
I1
sg12
I4
sS'JJ'
p3819
I1
sg5
VDisorder
p3820
sg7
I1
sS'VBN-VP'
p3821
I1
sa(dp3822
g2
I0
sS'VBD'
p3823
I1
sS'VBD-VP'
p3824
I1
sS'CD'
p3825
I1
sg3
I0
sS'JJ'
p3826
I2
sg5
VDisorder
p3827
sg7
I3
sS'JJ-NP'
p3828
I2
sS'CD-NP'
p3829
I1
sS'NN'
p3830
I1
sS'NNS-NP'
p3831
I3
sS'NN-NP'
p3832
I1
sg12
I4
sS'NNS'
p3833
I3
sa(dp3834
S'RB-NP'
p3835
I1
sg2
I2
sg3
I0
sS'VBP'
p3836
I1
sS'VBP-VP'
p3837
I1
sS'JJ'
p3838
I2
sS'IN'
p3839
I1
sS'VBZ'
p3840
I1
sg5
VDrug
p3841
sg7
I4
sS'JJ-NP'
p3842
I2
sS'NN'
p3843
I5
sS'IN-PP'
p3844
I1
sS'VBZ-VP'
p3845
I1
sS'NNS-NP'
p3846
I2
sS'NN-NP'
p3847
I5
sg12
I1
sS'RB'
p3848
I1
sS'NNS'
p3849
I2
sa(dp3850
S'NN'
p3851
I1
sg2
I0
sS'LS'
p3852
I1
sS'NNS'
p3853
I2
sS'VBN'
p3854
I1
sg3
I0
sg12
I0
sS'JJ'
p3855
I2
sg5
VDisorder
p3856
sg7
I0
sS'VBN-VP'
p3857
I1
sa(dp3858
g2
I0
sS'NNS'
p3859
I1
sS'VBN'
p3860
I1
sg3
I0
sg12
I0
sS'JJ'
p3861
I1
sg5
VDisorder
p3862
sg7
I0
sS'VBN-VP'
p3863
I1
sa(dp3864
S'VB'
p3865
I1
sg2
I1
sS'VBN-NP'
p3866
I1
sS'VBN'
p3867
I1
sg3
I0
sS'JJ'
p3868
I3
sS'IN'
p3869
I1
sS'NNP-NP'
p3870
I1
sg5
VDisorder
p3871
sg7
I1
sS'JJ-NP'
p3872
I1
sS'VB-VP'
p3873
I1
sS'NN'
p3874
I1
sS'NNS-NP'
p3875
I2
sS'NN-NP'
p3876
I1
sg12
I3
sS'NNS'
p3877
I4
sS'NNP'
p3878
I1
sa(dp3879
S'VB'
p3880
I1
sg2
I1
sS'VBN-NP'
p3881
I1
sS'VBN'
p3882
I1
sg3
I0
sS'JJ'
p3883
I3
sS'IN'
p3884
I1
sS'NNP-NP'
p3885
I1
sg5
VDisorder
p3886
sg7
I1
sS'JJ-NP'
p3887
I1
sS'VB-VP'
p3888
I1
sS'NN'
p3889
I1
sS'NNS-NP'
p3890
I1
sS'NN-NP'
p3891
I2
sg12
I3
sS'NNS'
p3892
I3
sS'NNP'
p3893
I1
sa(dp3894
g2
I0
sS'VBN-NP'
p3895
I1
sS'VBN'
p3896
I1
sg3
I0
sS'JJ'
p3897
I2
sS'IN'
p3898
I1
sS'NNP-NP'
p3899
I1
sg5
VDisorder
p3900
sg7
I2
sS'JJ-NP'
p3901
I3
sS'NN'
p3902
I2
sS'NNS-NP'
p3903
I3
sS'NN-NP'
p3904
I1
sg12
I3
sS'NNS'
p3905
I2
sS'NNP'
p3906
I1
sa(dp3907
g2
I0
sS'VBN-NP'
p3908
I1
sS'VBN'
p3909
I1
sg3
I0
sS'JJ'
p3910
I2
sS'IN'
p3911
I1
sS'NNP-NP'
p3912
I1
sg5
VDisorder
p3913
sg7
I0
sS'JJ-NP'
p3914
I3
sS'NN'
p3915
I1
sS'NNS-NP'
p3916
I4
sS'NN-NP'
p3917
I2
sg12
I3
sS'NNS'
p3918
I2
sS'NNP'
p3919
I1
sa(dp3920
S'VB'
p3921
I1
sS'VBG'
p3922
I1
sg2
I0
sg3
I0
sS'JJ'
p3923
I1
sS'NNP-NP'
p3924
I2
sS'MD-VP'
p3925
I1
sg5
VDrug
p3926
sg7
I0
sS'MD'
p3927
I1
sS'JJ-NP'
p3928
I1
sS'NN'
p3929
I1
sS'VB-VP'
p3930
I1
sS'VBG-VP'
p3931
I1
sS'NN-NP'
p3932
I1
sg12
I2
sS'NNP'
p3933
I2
sa(dp3934
S'VB'
p3935
I1
sg2
I0
sS'VBD'
p3936
I1
sS'VBD-VP'
p3937
I1
sS'VBN'
p3938
I1
sg3
I0
sS'JJ'
p3939
I1
sg5
VDrug
p3940
sg7
I1
sS'VBN-VP'
p3941
I1
sS'JJ-NP'
p3942
I1
sS'VB-VP'
p3943
I1
sS'NN'
p3944
I1
sS'NNS-NP'
p3945
I3
sS'NN-NP'
p3946
I1
sg12
I4
sS'NNS'
p3947
I3
sa(dp3948
S'VB'
p3949
I1
sg2
I0
sS'VBD'
p3950
I1
sS'VBD-VP'
p3951
I1
sS'VBN'
p3952
I1
sg3
I0
sS'JJ'
p3953
I3
sg5
VDrug
p3954
sg7
I1
sS'VBN-VP'
p3955
I1
sS'JJ-NP'
p3956
I3
sS'VB-VP'
p3957
I1
sS'NN'
p3958
I1
sS'NNS-NP'
p3959
I2
sS'NN-NP'
p3960
I1
sg12
I6
sS'NNS'
p3961
I2
sa(dp3962
g2
I2
sS'VBN-NP'
p3963
I1
sS'VBN'
p3964
I3
sS'CD'
p3965
I1
sg3
I0
sS'JJ'
p3966
I1
sg5
VDisorder
p3967
sg7
I2
sS'VBN-VP'
p3968
I2
sS'JJ-NP'
p3969
I1
sS'CD-NP'
p3970
I1
sS'NN'
p3971
I2
sS'NNS-NP'
p3972
I1
sS'NN-NP'
p3973
I2
sg12
I5
sS'NNS'
p3974
I1
sa(dp3975
S'CD-NP'
p3976
I2
sg2
I0
sS'VBN-NP'
p3977
I1
sS'NNS'
p3978
I1
sS'NNS-NP'
p3979
I1
sS'VBN'
p3980
I3
sS'CD'
p3981
I2
sg3
I0
sS'NN-NP'
p3982
I2
sS'NN'
p3983
I2
sg12
I5
sg5
VDisorder
p3984
sg7
I1
sS'VBN-VP'
p3985
I2
sa(dp3986
S'NN'
p3987
I2
sg2
I0
sS'VBD'
p3988
I1
sS'VBD-VP'
p3989
I1
sS'VBN-NP'
p3990
I1
sS'NNS-NP'
p3991
I2
sS'VBN'
p3992
I1
sS'CD'
p3993
I4
sg3
I0
sS'NN-NP'
p3994
I2
sg12
I3
sS'NNP-NP'
p3995
I3
sS'CD-NP'
p3996
I4
sS'NNP'
p3997
I3
sg5
VDrug
p3998
sg7
I3
sS'NNS'
p3999
I2
sa(dp4000
S'NN'
p4001
I2
sg2
I0
sS'VBD'
p4002
I1
sS'VBD-VP'
p4003
I1
sS'VBN-NP'
p4004
I1
sS'NNS-NP'
p4005
I3
sS'VBN'
p4006
I1
sS'CD'
p4007
I4
sg3
I0
sS'NN-NP'
p4008
I2
sg12
I7
sS'NNP-NP'
p4009
I2
sS'CD-NP'
p4010
I4
sS'NNP'
p4011
I2
sg5
VDisorder
p4012
sg7
I2
sS'NNS'
p4013
I3
sa(dp4014
S'VB'
p4015
I1
sg2
I0
sS'VBN-NP'
p4016
I1
sS'VBN'
p4017
I1
sg3
I0
sS'JJ'
p4018
I1
sS'IN'
p4019
I1
sg5
VDrug
p4020
sg7
I1
sS'JJ-NP'
p4021
I1
sS'VB-VP'
p4022
I1
sS'NN'
p4023
I2
sS'IN-PP'
p4024
I1
sS'NNS-NP'
p4025
I1
sS'NN-NP'
p4026
I2
sg12
I7
sS'NNS'
p4027
I1
sa(dp4028
S'VB'
p4029
I1
sg2
I0
sS'VBN-NP'
p4030
I1
sS'VBN'
p4031
I1
sg3
I0
sS'JJ'
p4032
I2
sS'IN'
p4033
I1
sS'RB-VP'
p4034
I1
sg5
VDisorder
p4035
sg7
I0
sS'JJ-NP'
p4036
I2
sS'VB-VP'
p4037
I1
sS'NN'
p4038
I3
sS'IN-PP'
p4039
I1
sS'NNS-NP'
p4040
I4
sS'NN-NP'
p4041
I3
sg12
I13
sS'RB'
p4042
I1
sS'NNS'
p4043
I4
sa(dp4044
S'JJ-NP'
p4045
I1
sS'NN'
p4046
I1
sg2
I0
sS'NNS'
p4047
I2
sS'NNS-NP'
p4048
I2
sg3
I0
sS'NN-NP'
p4049
I1
sg12
I2
sS'JJ'
p4050
I1
sg5
VDrug
p4051
sg7
I2
sa(dp4052
S'JJ-NP'
p4053
I1
sS'NN'
p4054
I2
sg2
I0
sS'NNS'
p4055
I2
sS'NNS-NP'
p4056
I2
sg3
I0
sS'NN-NP'
p4057
I2
sg12
I2
sS'JJ'
p4058
I1
sg5
VDrug
p4059
sg7
I0
sa(dp4060
S'NN'
p4061
I1
sg2
I0
sS'VBD'
p4062
I1
sS'VBD-VP'
p4063
I1
sS'IN-PP'
p4064
I1
sS'NNS-NP'
p4065
I1
sg3
I0
sS'NN-NP'
p4066
I1
sg12
I3
sS'IN'
p4067
I1
sS'NNP-NP'
p4068
I1
sS'NNP'
p4069
I1
sg5
VDrug
p4070
sg7
I2
sS'NNS'
p4071
I1
sa(dp4072
S'NN'
p4073
I1
sg2
I0
sS'VBD'
p4074
I1
sS'VBD-VP'
p4075
I1
sS'IN-PP'
p4076
I1
sS'NNS-NP'
p4077
I2
sg3
I0
sS'NN-NP'
p4078
I1
sg12
I3
sS'IN'
p4079
I1
sS'NNP-NP'
p4080
I1
sS'NNP'
p4081
I1
sg5
VDrug
p4082
sg7
I0
sS'NNS'
p4083
I2
sa(dp4084
S'JJ-NP'
p4085
I1
sS'VBG'
p4086
I1
sS'NN'
p4087
I2
sg2
I1
sS'VBG-VP'
p4088
I1
sS'VBN'
p4089
I1
sg3
I0
sS'NN-NP'
p4090
I2
sg12
I1
sS'JJ'
p4091
I1
sg5
VDrug
p4092
sg7
I1
sS'VBN-VP'
p4093
I1
sa(dp4094
S'VBG'
p4095
I1
sg2
I1
sS'NNS-NP'
p4096
I3
sS'VBN'
p4097
I1
sS'CD'
p4098
I8
sg3
I0
sS'VBP'
p4099
I1
sS'VBP-VP'
p4100
I1
sS'JJ'
p4101
I2
sS'NNP-NP'
p4102
I6
sg5
VDisorder
p4103
sg7
I12
sS'VBN-VP'
p4104
I1
sS'JJ-NP'
p4105
I2
sS'CD-NP'
p4106
I8
sS'NN'
p4107
I3
sS'VBG-VP'
p4108
I1
sS'NN-NP'
p4109
I3
sg12
I1
sS'NNS'
p4110
I3
sS'NNP'
p4111
I6
sa(dp4112
S'VBG'
p4113
I1
sg2
I0
sS'VBD'
p4114
I1
sS'VBD-VP'
p4115
I1
sS'VBN'
p4116
I1
sS'CD'
p4117
I4
sg3
I0
sS'VBP'
p4118
I1
sS'VBP-VP'
p4119
I1
sS'JJ'
p4120
I2
sS'NNP-NP'
p4121
I2
sg5
VDrug
p4122
sg7
I3
sS'VBN-VP'
p4123
I1
sS'JJ-NP'
p4124
I2
sS'CD-NP'
p4125
I4
sS'NN'
p4126
I2
sS'VBG-VP'
p4127
I1
sS'NN-NP'
p4128
I2
sg12
I7
sS'NNS'
p4129
I2
sS'NNS-NP'
p4130
I2
sS'NNP'
p4131
I2
sa(dp4132
g2
I0
sg3
I0
sS'JJ'
p4133
I1
sg5
VDrug
p4134
sg7
I0
sS'JJ-NP'
p4135
I1
sS'NN'
p4136
I2
sS'NNS-NP'
p4137
I1
sS'NN-NP'
p4138
I2
sg12
I1
sS'NNS'
p4139
I1
sa(dp4140
S'JJ-NP'
p4141
I2
sS'NN'
p4142
I4
sg2
I1
sS'NNS'
p4143
I1
sS'NNS-NP'
p4144
I1
sS'VBN'
p4145
I1
sg3
I0
sS'NN-NP'
p4146
I4
sg12
I0
sS'JJ'
p4147
I2
sS'NNP-NP'
p4148
I1
sS'NNP'
p4149
I1
sg5
VDisorder
p4150
sg7
I4
sS'VBN-VP'
p4151
I1
sa(dp4152
S'JJ-NP'
p4153
I2
sS'NN'
p4154
I4
sg2
I0
sS'NNS'
p4155
I1
sS'NNS-NP'
p4156
I1
sS'VBN'
p4157
I1
sg3
I0
sS'NN-NP'
p4158
I4
sg12
I2
sS'JJ'
p4159
I2
sS'NNP-NP'
p4160
I1
sS'VBN-VP'
p4161
I1
sg5
VDrug
p4162
sg7
I0
sS'NNP'
p4163
I1
sa(dp4164
g2
I0
sS'VBN'
p4165
I1
sg3
I0
sS'JJ'
p4166
I1
sg5
VDrug
p4167
sg7
I1
sS'VBN-VP'
p4168
I1
sS'JJ-NP'
p4169
I1
sS'NN'
p4170
I2
sS'NNS-NP'
p4171
I1
sS'NN-NP'
p4172
I2
sg12
I0
sS'NNS'
p4173
I1
sa(dp4174
g2
I0
sS'VBN'
p4175
I1
sg3
I0
sS'JJ'
p4176
I1
sg5
VDrug
p4177
sg7
I1
sS'VBN-VP'
p4178
I1
sS'JJ-NP'
p4179
I1
sS'NN'
p4180
I2
sS'NNS-NP'
p4181
I1
sS'NN-NP'
p4182
I2
sg12
I0
sS'NNS'
p4183
I1
sa(dp4184
g2
I0
sS'VBN-NP'
p4185
I1
sS'VBN'
p4186
I1
sS'CD'
p4187
I2
sg3
I0
sS'JJ'
p4188
I1
sS'NNP-NP'
p4189
I1
sg5
VDrug
p4190
sg7
I1
sS'JJ-NP'
p4191
I1
sS'CD-NP'
p4192
I2
sS'NN'
p4193
I1
sS'NNS-NP'
p4194
I2
sS'NN-NP'
p4195
I1
sg12
I1
sS'NNS'
p4196
I2
sS'NNP'
p4197
I1
sa(dp4198
g2
I0
sS'VBN-NP'
p4199
I1
sS'VBN'
p4200
I1
sS'CD'
p4201
I2
sg3
I0
sS'JJ'
p4202
I1
sg5
VDrug
p4203
sg7
I0
sS'JJ-NP'
p4204
I1
sS'CD-NP'
p4205
I2
sS'NN'
p4206
I1
sS'NNS-NP'
p4207
I3
sS'NN-NP'
p4208
I1
sg12
I1
sS'NNS'
p4209
I3
sa(dp4210
S'JJ-NP'
p4211
I1
sS'CD-NP'
p4212
I3
sg2
I0
sS'JJR-NP'
p4213
I1
sS'NNS'
p4214
I1
sS'VBN-NP'
p4215
I1
sS'NNS-NP'
p4216
I1
sS'JJR'
p4217
I1
sS'VBN'
p4218
I1
sg3
I0
sg12
I4
sS'JJ'
p4219
I1
sS'CD'
p4220
I3
sg5
VDrug
p4221
sg7
I0
sa(dp4222
S'VBG'
p4223
I1
sS'NN'
p4224
I2
sg2
I1
sS'VBG-VP'
p4225
I1
sg3
I0
sS'NN-NP'
p4226
I2
sg12
I0
sg5
VDrug
p4227
sg7
I1
sa(dp4228
S'VBG'
p4229
I1
sS'NN'
p4230
I4
sg2
I0
sS'VBG-VP'
p4231
I1
sg3
I0
sS'NN-NP'
p4232
I4
sg12
I0
sg5
VDrug
p4233
sg7
I0
sa(dp4234
S'JJ-NP'
p4235
I2
sS'VBG'
p4236
I2
sg2
I0
sS'NN'
p4237
I1
sS'VBN-NP'
p4238
I1
sS'NNS'
p4239
I1
sS'NNS-NP'
p4240
I1
sS'VBN'
p4241
I1
sg3
I0
sS'NN-NP'
p4242
I1
sg12
I8
sS'JJ'
p4243
I2
sS'VBG-NP'
p4244
I2
sg5
VDisorder
p4245
sg7
I1
sa(dp4246
S'JJ-NP'
p4247
I2
sS'VBG'
p4248
I2
sS'NN'
p4249
I6
sg2
I0
sS'VBN-NP'
p4250
I1
sS'NNS'
p4251
I3
sS'NNS-NP'
p4252
I3
sS'VBN'
p4253
I1
sg3
I0
sS'NN-NP'
p4254
I6
sg12
I14
sS'JJ'
p4255
I2
sS'VBG-NP'
p4256
I2
sg5
VDrug
p4257
sg7
I0
sa(dp4258
S'MD'
p4259
I1
sS'NN'
p4260
I1
sg2
I0
sg3
I0
sS'NN-NP'
p4261
I1
sg12
I3
sS'NNP-NP'
p4262
I1
sS'MD-VP'
p4263
I1
sg5
VDrug
p4264
sg7
I0
sS'NNP'
p4265
I1
sa(dp4266
S'VB'
p4267
I1
sg2
I0
sS'VBN-NP'
p4268
I1
sS'VBN'
p4269
I1
sg3
I0
sS'JJ'
p4270
I1
sS'RB-VP'
p4271
I1
sg5
VDrug
p4272
sg7
I1
sS'JJ-NP'
p4273
I1
sS'VB-VP'
p4274
I1
sS'NN'
p4275
I1
sS'NNS-NP'
p4276
I1
sS'NN-NP'
p4277
I1
sg12
I1
sS'RB'
p4278
I1
sS'NNS'
p4279
I1
sa(dp4280
S'VB'
p4281
I1
sg2
I0
sg3
I0
sS'VBP'
p4282
I1
sS'VBP-VP'
p4283
I1
sS'JJ'
p4284
I1
sg5
VDrug
p4285
sg7
I1
sS'JJ-NP'
p4286
I1
sS'VB-VP'
p4287
I1
sS'NN'
p4288
I2
sS'NNS-NP'
p4289
I1
sS'NN-NP'
p4290
I2
sg12
I1
sS'NNS'
p4291
I1
sa(dp4292
S'NN'
p4293
I2
sg2
I0
sS'NNS'
p4294
I1
sS'NNS-NP'
p4295
I1
sg3
I0
sS'NN-NP'
p4296
I2
sg12
I4
sg5
VDrug
p4297
sg7
I1
sa(dp4298
g2
I0
sS'VBN'
p4299
I1
sg3
I0
sg5
VDrug
p4300
sg7
I0
sS'VBN-VP'
p4301
I1
sS'NN'
p4302
I2
sS'NNS-NP'
p4303
I1
sS'NN-NP'
p4304
I2
sg12
I1
sS'NNS'
p4305
I1
sa(dp4306
S'JJ-NP'
p4307
I1
sS'NN'
p4308
I3
sg2
I0
sS'NNS'
p4309
I1
sS'NNS-NP'
p4310
I1
sS'VBN'
p4311
I1
sg3
I0
sS'NN-NP'
p4312
I3
sg12
I5
sS'JJ'
p4313
I1
sg5
VDrug
p4314
sg7
I0
sS'VBN-VP'
p4315
I1
sa(dp4316
S'JJ-NP'
p4317
I2
sg2
I0
sS'NN'
p4318
I1
sS'NNS'
p4319
I1
sS'NNS-NP'
p4320
I1
sS'VBN'
p4321
I1
sg3
I0
sS'NN-NP'
p4322
I1
sg12
I4
sS'JJ'
p4323
I2
sg5
VDrug
p4324
sg7
I1
sS'VBN-VP'
p4325
I1
sa(dp4326
S'JJ-NP'
p4327
I2
sg2
I0
sS'NN'
p4328
I1
sS'NNS'
p4329
I1
sS'NNS-NP'
p4330
I1
sS'VBN'
p4331
I1
sg3
I0
sS'NN-NP'
p4332
I1
sg12
I4
sS'JJ'
p4333
I2
sg5
VDrug
p4334
sg7
I0
sS'VBN-VP'
p4335
I1
sa(dp4336
S'VB'
p4337
I1
sS'VBG'
p4338
I1
sS'CD-NP'
p4339
I1
sg2
I0
sS'VBD'
p4340
I1
sS'NNS-NP'
p4341
I2
sS'VBN'
p4342
I1
sS'CD'
p4343
I1
sg3
I0
sS'JJ'
p4344
I2
sg5
VDrug
p4345
sg7
I0
sS'VBN-VP'
p4346
I1
sS'JJ-NP'
p4347
I2
sS'NN'
p4348
I1
sS'VB-VP'
p4349
I1
sS'VBG-VP'
p4350
I1
sS'NN-NP'
p4351
I1
sg12
I6
sS'VBD-VP'
p4352
I1
sS'NNS'
p4353
I2
sa(dp4354
S'JJ-NP'
p4355
I1
sS'VBG'
p4356
I1
sS'CD-NP'
p4357
I1
sg2
I1
sS'VBD'
p4358
I1
sS'NNS'
p4359
I1
sS'NNS-NP'
p4360
I1
sS'VBG-VP'
p4361
I1
sS'CD'
p4362
I1
sg3
I0
sS'NN-NP'
p4363
I3
sS'NN'
p4364
I3
sg12
I2
sS'JJ'
p4365
I1
sS'VBD-VP'
p4366
I1
sg5
VDrug
p4367
sg7
I2
sa(dp4368
S'JJ-NP'
p4369
I2
sS'CD-NP'
p4370
I1
sg2
I0
sS'VBD'
p4371
I1
sS'NNS'
p4372
I2
sS'NNS-NP'
p4373
I2
sS'CD'
p4374
I1
sg3
I0
sS'NN-NP'
p4375
I2
sS'NN'
p4376
I2
sg12
I2
sS'JJ'
p4377
I2
sS'VBD-VP'
p4378
I1
sg5
VDrug
p4379
sg7
I1
sa(dp4380
S'VBG'
p4381
I1
sg2
I0
sS'VBD'
p4382
I1
sS'VBD-VP'
p4383
I1
sS'CD'
p4384
I1
sg3
I0
sS'JJ'
p4385
I2
sg5
VDrug
p4386
sg7
I0
sS'JJ-NP'
p4387
I2
sS'CD-NP'
p4388
I1
sS'NN'
p4389
I2
sS'NNS-NP'
p4390
I2
sS'VBG-VP'
p4391
I1
sS'NN-NP'
p4392
I2
sg12
I2
sS'NNS'
p4393
I2
sa(dp4394
S'VBG'
p4395
I1
sg2
I3
sS'VBG-VP'
p4396
I1
sS'VBN'
p4397
I1
sg3
I0
sS'JJ'
p4398
I5
sS'VBZ'
p4399
I1
sg5
VDrug
p4400
sg7
I5
sS'VBN-VP'
p4401
I1
sS'JJ-NP'
p4402
I5
sS'NN'
p4403
I7
sS'VBZ-VP'
p4404
I1
sS'NNS-NP'
p4405
I1
sS'NN-NP'
p4406
I7
sg12
I4
sS'NNS'
p4407
I1
sa(dp4408
S'VBG'
p4409
I1
sg2
I1
sS'VBG-VP'
p4410
I1
sS'VBN'
p4411
I1
sg3
I0
sS'JJ'
p4412
I1
sS'VBZ'
p4413
I1
sg5
VDrug
p4414
sg7
I2
sS'VBN-VP'
p4415
I1
sS'JJ-NP'
p4416
I1
sS'NN'
p4417
I4
sS'VBZ-VP'
p4418
I1
sS'NNS-NP'
p4419
I3
sS'NN-NP'
p4420
I4
sg12
I4
sS'NNS'
p4421
I3
sa(dp4422
S'VBG'
p4423
I1
sg2
I0
sS'VBG-VP'
p4424
I1
sS'VBN'
p4425
I1
sg3
I0
sS'JJ'
p4426
I6
sS'VBZ'
p4427
I1
sS'NNP-NP'
p4428
I1
sg5
VDisorder
p4429
sg7
I2
sS'VBN-VP'
p4430
I1
sS'JJ-NP'
p4431
I6
sS'NN'
p4432
I4
sS'VBZ-VP'
p4433
I1
sS'NNS-NP'
p4434
I4
sS'NN-NP'
p4435
I4
sg12
I17
sS'NNS'
p4436
I4
sS'NNP'
p4437
I1
sa(dp4438
S'JJ-NP'
p4439
I2
sS'CD-NP'
p4440
I2
sg2
I0
sS'NNS'
p4441
I1
sS'NNS-NP'
p4442
I1
sS'VBN'
p4443
I1
sS'CD'
p4444
I3
sg3
I0
sS'NN-NP'
p4445
I1
sS'NN'
p4446
I4
sg12
I7
sS'JJ'
p4447
I1
sg5
VDrug
p4448
sg7
I0
sS'VBN-VP'
p4449
I1
sa(dp4450
S'JJ-NP'
p4451
I2
sS'CD-NP'
p4452
I2
sg2
I0
sS'NNS'
p4453
I1
sS'NNS-NP'
p4454
I1
sS'VBN'
p4455
I1
sS'CD'
p4456
I5
sg3
I0
sS'NN-NP'
p4457
I1
sS'NN'
p4458
I7
sg12
I7
sS'JJ'
p4459
I2
sg5
VDisorder
p4460
sg7
I0
sS'VBN-VP'
p4461
I1
sa(dp4462
S'JJ-NP'
p4463
I2
sS'CD-NP'
p4464
I2
sg2
I0
sS'NNS'
p4465
I1
sS'NNS-NP'
p4466
I1
sS'VBN'
p4467
I1
sS'CD'
p4468
I3
sg3
I0
sS'NN-NP'
p4469
I1
sS'NN'
p4470
I4
sg12
I7
sS'JJ'
p4471
I1
sg5
VDisorder
p4472
sg7
I0
sS'VBN-VP'
p4473
I1
sa(dp4474
S'JJ-NP'
p4475
I2
sS'CD-NP'
p4476
I2
sg2
I0
sS'NNS'
p4477
I1
sS'NNS-NP'
p4478
I1
sS'VBN'
p4479
I1
sS'CD'
p4480
I7
sg3
I0
sS'NN-NP'
p4481
I2
sS'NN'
p4482
I2
sg12
I7
sS'JJ'
p4483
I1
sg5
VDisorder
p4484
sg7
I0
sS'VBN-VP'
p4485
I1
sa(dp4486
g2
I0
sS'VBN'
p4487
I1
sg3
I0
sS'JJ'
p4488
I3
sS'IN'
p4489
I1
sS'RB-VP'
p4490
I1
sg5
VDrug
p4491
sg7
I3
sS'VBN-VP'
p4492
I1
sS'JJ-NP'
p4493
I3
sS'NN'
p4494
I1
sS'IN-PP'
p4495
I1
sS'NNS-NP'
p4496
I2
sS'NN-NP'
p4497
I1
sg12
I3
sS'RB'
p4498
I1
sS'NNS'
p4499
I2
sa(dp4500
S'VB'
p4501
I1
sg2
I0
sS'VBN-NP'
p4502
I1
sS'VBN'
p4503
I1
sg3
I0
sS'JJ'
p4504
I1
sS'NNP-NP'
p4505
I1
sg5
VDrug
p4506
sg7
I2
sS'JJ-NP'
p4507
I1
sS'NN'
p4508
I2
sS'VB-VP'
p4509
I1
sS'NNS-NP'
p4510
I1
sS'NN-NP'
p4511
I2
sg12
I5
sS'NNS'
p4512
I1
sS'NNP'
p4513
I1
sa(dp4514
S'VBG'
p4515
I1
sg2
I0
sS'NNS-NP'
p4516
I1
sS'VBN'
p4517
I1
sg3
I0
sS'JJ'
p4518
I2
sS'NNP-NP'
p4519
I1
sg5
VDisorder
p4520
sg7
I0
sS'VBN-VP'
p4521
I1
sS'JJ-NP'
p4522
I2
sS'NN'
p4523
I5
sS'VBG-VP'
p4524
I1
sS'NN-NP'
p4525
I5
sg12
I12
sS'NNS'
p4526
I1
sS'NNP'
p4527
I1
sa(dp4528
g2
I0
sg3
I0
sS'JJ'
p4529
I2
sS'IN'
p4530
I1
sg5
VDrug
p4531
sg7
I0
sS'JJ-NP'
p4532
I2
sS'NN'
p4533
I2
sS'JJR-NP'
p4534
I1
sS'IN-PP'
p4535
I1
sS'NNS-NP'
p4536
I2
sS'JJR'
p4537
I1
sS'NN-NP'
p4538
I2
sg12
I7
sS'NNS'
p4539
I2
sa(dp4540
S'JJ-NP'
p4541
I1
sS'NN'
p4542
I3
sg2
I0
sg3
I0
sS'NN-NP'
p4543
I3
sg12
I0
sS'JJ'
p4544
I1
sg5
VDrug
p4545
sg7
I0
sa(dp4546
S'VB'
p4547
I1
sS'VBG'
p4548
I1
sg2
I0
sS'VBD'
p4549
I1
sS'VBG-VP'
p4550
I1
sS'VBN'
p4551
I1
sS'CD'
p4552
I1
sg3
I0
sS'VBP'
p4553
I1
sS'VBP-VP'
p4554
I1
sS'JJ'
p4555
I2
sS'IN'
p4556
I1
sS'VB-VP'
p4557
I1
sS'NNP-NP'
p4558
I2
sg5
VDisorder
p4559
sg7
I1
sS'VBN-VP'
p4560
I1
sS'JJ-NP'
p4561
I2
sS'VBG-NP'
p4562
I1
sS'CD-NP'
p4563
I1
sS'NN'
p4564
I3
sS'IN-PP'
p4565
I1
sS'NNS-NP'
p4566
I1
sS'NN-NP'
p4567
I3
sg12
I22
sS'VBD-VP'
p4568
I1
sS'NNS'
p4569
I1
sS'NNP'
p4570
I2
sa(dp4571
S'VB'
p4572
I1
sS'VBG'
p4573
I3
sg2
I0
sS'VBD'
p4574
I1
sS'VBG-VP'
p4575
I2
sS'VBN'
p4576
I1
sS'CD'
p4577
I1
sg3
I0
sS'VBP'
p4578
I1
sS'VBP-VP'
p4579
I1
sS'JJ'
p4580
I2
sS'IN'
p4581
I1
sS'VB-VP'
p4582
I1
sS'NNP-NP'
p4583
I2
sg5
VDisorder
p4584
sg7
I1
sS'VBN-VP'
p4585
I1
sS'JJ-NP'
p4586
I2
sS'VBG-NP'
p4587
I1
sS'CD-NP'
p4588
I1
sS'NN'
p4589
I3
sS'IN-PP'
p4590
I1
sS'NNS-NP'
p4591
I4
sS'NN-NP'
p4592
I3
sg12
I32
sS'VBD-VP'
p4593
I1
sS'NNS'
p4594
I4
sS'NNP'
p4595
I2
sa(dp4596
S'VB'
p4597
I2
sS'VBG'
p4598
I1
sg2
I0
sS'VBG-VP'
p4599
I1
sS'VBN'
p4600
I1
sg3
I0
sS'JJ'
p4601
I3
sg5
VDrug
p4602
sg7
I2
sS'VBN-VP'
p4603
I1
sS'JJ-NP'
p4604
I3
sS'VB-VP'
p4605
I2
sS'NN'
p4606
I3
sS'NNS-NP'
p4607
I1
sS'NN-NP'
p4608
I3
sg12
I1
sS'NNS'
p4609
I1
sa(dp4610
S'JJ-NP'
p4611
I1
sS'VB-VP'
p4612
I1
sg2
I2
sS'JJR-NP'
p4613
I1
sS'NNS'
p4614
I1
sS'NNS-NP'
p4615
I1
sS'VB'
p4616
I1
sS'JJR'
p4617
I1
sg3
I0
sS'VBN'
p4618
I1
sg12
I2
sS'JJ'
p4619
I1
sg5
VDrug
p4620
sg7
I1
sS'VBN-VP'
p4621
I1
sa(dp4622
S'RB-NP'
p4623
I1
sg2
I0
sS'VBN-NP'
p4624
I1
sS'VBN'
p4625
I1
sS'CD'
p4626
I1
sg3
I0
sS'VBP'
p4627
I1
sS'VBP-VP'
p4628
I1
sS'JJ'
p4629
I2
sS'IN'
p4630
I1
sS'NNP-NP'
p4631
I1
sg5
VDisorder
p4632
sg7
I1
sS'JJ-NP'
p4633
I2
sS'CD-NP'
p4634
I1
sS'NN'
p4635
I2
sS'IN-PP'
p4636
I1
sS'NNS-NP'
p4637
I1
sS'NN-NP'
p4638
I2
sg12
I3
sS'RB'
p4639
I1
sS'NNS'
p4640
I1
sS'NNP'
p4641
I1
sa(dp4642
S'JJ-NP'
p4643
I1
sS'NN'
p4644
I1
sg2
I0
sS'NNS'
p4645
I1
sS'NNS-NP'
p4646
I1
sS'VBN'
p4647
I1
sg3
I0
sS'NN-NP'
p4648
I1
sg12
I2
sS'JJ'
p4649
I1
sg5
VDisorder
p4650
sg7
I1
sS'VBN-VP'
p4651
I1
sa(dp4652
S'NNPS-NP'
p4653
I1
sg3
I1
sS'VBP'
p4654
I1
sS'JJ'
p4655
I1
sS'VBZ'
p4656
I1
sg5
VDrug
p4657
sS'JJ-NP'
p4658
I1
sS'NN'
p4659
I1
sS'VBZ-VP'
p4660
I1
sS'NNS'
p4661
I2
sS'NNP'
p4662
I1
sS'VB'
p4663
I1
sg2
I1
sS'VBP-VP'
p4664
I1
sS'IN'
p4665
I1
sS'NNP-NP'
p4666
I1
sg7
I1
sS'NNPS'
p4667
I1
sS'VB-VP'
p4668
I1
sS'IN-PP'
p4669
I1
sS'NNS-NP'
p4670
I2
sS'NN-NP'
p4671
I1
sg12
I7
sa(dp4672
S'VB'
p4673
I1
sg2
I0
sS'VBD'
p4674
I1
sS'VBD-VP'
p4675
I1
sS'VBN'
p4676
I1
sg3
I0
sS'JJ'
p4677
I1
sg5
VDrug
p4678
sg7
I0
sS'VBN-VP'
p4679
I1
sS'JJ-NP'
p4680
I1
sS'VB-VP'
p4681
I1
sS'NN'
p4682
I1
sS'NNS-NP'
p4683
I2
sS'NN-NP'
p4684
I2
sg12
I13
sS'NNS'
p4685
I2
sa(dp4686
S'VBG'
p4687
I1
sg2
I0
sS'NNS-NP'
p4688
I2
sS'VBN'
p4689
I1
sg3
I0
sS'VBP'
p4690
I1
sS'VBP-VP'
p4691
I1
sS'JJ'
p4692
I1
sS'IN'
p4693
I1
sg5
VDrug
p4694
sg7
I1
sS'VBN-VP'
p4695
I1
sS'JJ-NP'
p4696
I1
sS'NN'
p4697
I2
sS'IN-PP'
p4698
I1
sS'VBG-VP'
p4699
I1
sS'NN-NP'
p4700
I2
sg12
I1
sS'NNS'
p4701
I2
sa(dp4702
S'VB'
p4703
I1
sS'NN'
p4704
I2
sg2
I0
sS'VBN-NP'
p4705
I1
sS'RB-NP'
p4706
I1
sS'VBN'
p4707
I1
sg3
I0
sS'NN-NP'
p4708
I2
sg12
I3
sS'RB'
p4709
I1
sS'VB-VP'
p4710
I1
sS'RB-VP'
p4711
I1
sg5
VDisorder
p4712
sg7
I1
sS'VBN-VP'
p4713
I1
sa(dp4714
S'RB-NP'
p4715
I1
sS'VBG'
p4716
I1
sg2
I0
sS'NNS-NP'
p4717
I3
sS'VBN'
p4718
I1
sS'CD'
p4719
I2
sg3
I0
sS'JJ'
p4720
I1
sg5
VDrug
p4721
sg7
I3
sS'VBN-VP'
p4722
I1
sS'JJ-NP'
p4723
I1
sS'CD-NP'
p4724
I2
sS'NN'
p4725
I1
sS'VBG-VP'
p4726
I1
sS'NN-NP'
p4727
I1
sg12
I2
sS'RB'
p4728
I1
sS'NNS'
p4729
I3
sa(dp4730
S'RB-NP'
p4731
I1
sS'VBG'
p4732
I1
sg2
I0
sS'VBG-VP'
p4733
I1
sS'VBN'
p4734
I1
sS'CD'
p4735
I2
sg3
I0
sS'JJ'
p4736
I1
sS'NNP-NP'
p4737
I1
sg5
VDrug
p4738
sg7
I3
sS'VBN-VP'
p4739
I1
sS'JJ-NP'
p4740
I1
sS'CD-NP'
p4741
I2
sS'NN'
p4742
I1
sS'NNS-NP'
p4743
I3
sS'NN-NP'
p4744
I1
sg12
I3
sS'RB'
p4745
I1
sS'NNS'
p4746
I3
sS'NNP'
p4747
I1
sa(dp4748
S'RB-NP'
p4749
I1
sg2
I0
sS'VBN'
p4750
I1
sS'CD'
p4751
I2
sg3
I0
sS'JJ'
p4752
I1
sS'NNP-NP'
p4753
I2
sg5
VDrug
p4754
sg7
I3
sS'VBN-VP'
p4755
I1
sS'JJ-NP'
p4756
I1
sS'CD-NP'
p4757
I2
sS'NN'
p4758
I1
sS'NNS-NP'
p4759
I3
sS'NN-NP'
p4760
I1
sg12
I5
sS'RB'
p4761
I1
sS'NNS'
p4762
I3
sS'NNP'
p4763
I2
sa(dp4764
S'RB-NP'
p4765
I1
sS'VBG'
p4766
I1
sg2
I0
sS'NNS-NP'
p4767
I3
sS'VBN'
p4768
I1
sS'CD'
p4769
I2
sg3
I0
sS'JJ'
p4770
I1
sS'NNP-NP'
p4771
I1
sg5
VDrug
p4772
sg7
I3
sS'VBN-VP'
p4773
I1
sS'JJ-NP'
p4774
I1
sS'CD-NP'
p4775
I2
sS'NN'
p4776
I1
sS'VBG-VP'
p4777
I1
sS'NN-NP'
p4778
I1
sg12
I7
sS'RB'
p4779
I1
sS'NNS'
p4780
I3
sS'NNP'
p4781
I1
sa(dp4782
g2
I0
sS'CD'
p4783
I2
sg3
I0
sS'JJ'
p4784
I2
sS'NNP-NP'
p4785
I1
sg5
VDisorder
p4786
sg7
I1
sS'JJ-NP'
p4787
I2
sS'CD-NP'
p4788
I1
sS'NN'
p4789
I1
sS'NNS-NP'
p4790
I1
sS'NN-NP'
p4791
I3
sg12
I3
sS'NNS'
p4792
I2
sS'NNP'
p4793
I1
sa(dp4794
g2
I0
sS'CD'
p4795
I2
sg3
I0
sS'JJ'
p4796
I1
sS'NNP-NP'
p4797
I1
sg5
VDisorder
p4798
sg7
I1
sS'JJ-NP'
p4799
I1
sS'CD-NP'
p4800
I1
sS'NN'
p4801
I1
sS'NNS-NP'
p4802
I1
sS'NN-NP'
p4803
I2
sg12
I4
sS'NNS'
p4804
I2
sS'NNP'
p4805
I1
sa(dp4806
g2
I0
sS'CD'
p4807
I1
sg3
I0
sS'JJ'
p4808
I2
sS'NNP-NP'
p4809
I1
sg5
VDisorder
p4810
sg7
I1
sS'JJ-NP'
p4811
I2
sS'CD-NP'
p4812
I1
sS'NN'
p4813
I1
sS'NNS-NP'
p4814
I1
sS'NN-NP'
p4815
I3
sg12
I3
sS'NNS'
p4816
I1
sS'NNP'
p4817
I1
sa(dp4818
g2
I0
sS'CD'
p4819
I1
sg3
I0
sS'JJ'
p4820
I1
sS'NNP-NP'
p4821
I1
sg5
VDisorder
p4822
sg7
I1
sS'JJ-NP'
p4823
I1
sS'CD-NP'
p4824
I1
sS'NN'
p4825
I1
sS'NNS-NP'
p4826
I1
sS'NN-NP'
p4827
I2
sg12
I4
sS'NNS'
p4828
I1
sS'NNP'
p4829
I1
sa(dp4830
g2
I0
sS'CD'
p4831
I3
sg3
I0
sS'JJ'
p4832
I2
sS'NNP-NP'
p4833
I1
sg5
VDisorder
p4834
sg7
I0
sS'JJ-NP'
p4835
I2
sS'CD-NP'
p4836
I1
sS'NN'
p4837
I3
sS'NNS-NP'
p4838
I1
sS'NN-NP'
p4839
I3
sg12
I3
sS'NNS'
p4840
I2
sS'NNP'
p4841
I1
sa(dp4842
g2
I0
sS'CD'
p4843
I3
sg3
I0
sS'JJ'
p4844
I1
sS'NNP-NP'
p4845
I1
sg5
VDisorder
p4846
sg7
I0
sS'JJ-NP'
p4847
I1
sS'CD-NP'
p4848
I1
sS'NN'
p4849
I2
sS'NNS-NP'
p4850
I1
sS'NN-NP'
p4851
I2
sg12
I4
sS'NNS'
p4852
I2
sS'NNP'
p4853
I1
sa(dp4854
S'VB'
p4855
I1
sg2
I0
sg3
I0
sS'JJ'
p4856
I1
sS'IN'
p4857
I1
sS'NNP-NP'
p4858
I3
sg5
VDrug
p4859
sg7
I3
sS'JJ-NP'
p4860
I1
sS'NN'
p4861
I3
sS'VB-VP'
p4862
I1
sS'IN-PP'
p4863
I1
sS'NNS-NP'
p4864
I1
sS'NN-NP'
p4865
I3
sg12
I8
sS'NNS'
p4866
I1
sS'NNP'
p4867
I3
sa(dp4868
S'VB'
p4869
I1
sg2
I0
sg3
I0
sS'JJ'
p4870
I1
sS'IN'
p4871
I1
sS'NNP-NP'
p4872
I3
sg5
VDrug
p4873
sg7
I1
sS'JJ-NP'
p4874
I1
sS'NN'
p4875
I1
sS'VB-VP'
p4876
I1
sS'IN-PP'
p4877
I1
sS'NNS-NP'
p4878
I1
sS'NN-NP'
p4879
I1
sg12
I8
sS'NNS'
p4880
I1
sS'NNP'
p4881
I3
sa(dp4882
S'VB'
p4883
I1
sg2
I0
sg3
I0
sS'JJ'
p4884
I1
sS'IN'
p4885
I1
sS'NNP-NP'
p4886
I3
sg5
VDrug
p4887
sg7
I0
sS'JJ-NP'
p4888
I1
sS'NN'
p4889
I3
sS'VB-VP'
p4890
I1
sS'IN-PP'
p4891
I1
sS'NNS-NP'
p4892
I1
sS'NN-NP'
p4893
I3
sg12
I8
sS'NNS'
p4894
I1
sS'NNP'
p4895
I3
sa(dp4896
S'RB-NP'
p4897
I1
sg2
I0
sS'VBD'
p4898
I1
sS'VBD-VP'
p4899
I1
sS'VBN'
p4900
I1
sg3
I0
sS'JJ'
p4901
I2
sS'NNP-NP'
p4902
I1
sg5
VDrug
p4903
sg7
I0
sS'JJ-NP'
p4904
I2
sS'NN'
p4905
I2
sS'VBN-NP'
p4906
I1
sS'NNS-NP'
p4907
I2
sS'NN-NP'
p4908
I2
sg12
I0
sS'RB'
p4909
I1
sS'NNS'
p4910
I2
sS'NNP'
p4911
I1
sa(dp4912
S'RB-NP'
p4913
I1
sg2
I0
sS'VBD'
p4914
I2
sS'VBD-VP'
p4915
I2
sS'VBN'
p4916
I1
sg3
I0
sS'JJ'
p4917
I1
sS'NNP-NP'
p4918
I2
sg5
VDrug
p4919
sg7
I0
sS'JJ-NP'
p4920
I1
sS'NN'
p4921
I1
sS'VBN-NP'
p4922
I1
sS'NNS-NP'
p4923
I1
sS'NN-NP'
p4924
I1
sg12
I2
sS'RB'
p4925
I1
sS'NNS'
p4926
I1
sS'NNP'
p4927
I2
sa(dp4928
S'VB'
p4929
I1
sg2
I0
sg3
I0
sS'JJ'
p4930
I5
sS'NNP-NP'
p4931
I1
sg5
VDrug
p4932
sg7
I0
sS'JJ-NP'
p4933
I5
sS'VB-VP'
p4934
I1
sS'NN'
p4935
I2
sS'NNS-NP'
p4936
I1
sS'NN-NP'
p4937
I2
sg12
I8
sS'NNS'
p4938
I1
sS'NNP'
p4939
I1
sa(dp4940
S'VBG'
p4941
I1
sg2
I0
sS'VBN'
p4942
I1
sS'CD'
p4943
I5
sg3
I0
sS'JJ'
p4944
I2
sg5
VDisorder
p4945
sg7
I11
sS'VBN-VP'
p4946
I1
sS'JJ-NP'
p4947
I2
sS'VBG-NP'
p4948
I1
sS'CD-NP'
p4949
I5
sS'NN'
p4950
I9
sS'NNS-NP'
p4951
I1
sS'NN-NP'
p4952
I9
sg12
I13
sS'NNS'
p4953
I1
sa(dp4954
S'VBG'
p4955
I1
sg2
I0
sS'VBN'
p4956
I1
sS'CD'
p4957
I3
sg3
I0
sS'JJ'
p4958
I1
sg5
VDisorder
p4959
sg7
I9
sS'VBN-VP'
p4960
I1
sS'JJ-NP'
p4961
I1
sS'VBG-NP'
p4962
I1
sS'CD-NP'
p4963
I3
sS'NN'
p4964
I7
sS'NNS-NP'
p4965
I1
sS'NN-NP'
p4966
I7
sg12
I13
sS'NNS'
p4967
I1
sa(dp4968
S'VBG'
p4969
I1
sg2
I0
sS'VBN'
p4970
I1
sS'CD'
p4971
I1
sg3
I0
sS'JJ'
p4972
I1
sg5
VDisorder
p4973
sg7
I6
sS'VBN-VP'
p4974
I1
sS'JJ-NP'
p4975
I1
sS'VBG-NP'
p4976
I1
sS'CD-NP'
p4977
I1
sS'NN'
p4978
I5
sS'NNS-NP'
p4979
I1
sS'NN-NP'
p4980
I5
sg12
I13
sS'NNS'
p4981
I1
sa(dp4982
S'VBG'
p4983
I1
sg2
I0
sS'VBN'
p4984
I1
sS'CD'
p4985
I6
sg3
I0
sS'JJ'
p4986
I1
sg5
VDisorder
p4987
sg7
I3
sS'VBN-VP'
p4988
I1
sS'JJ-NP'
p4989
I1
sS'VBG-NP'
p4990
I1
sS'CD-NP'
p4991
I6
sS'NN'
p4992
I3
sS'NNS-NP'
p4993
I2
sS'NN-NP'
p4994
I3
sg12
I13
sS'NNS'
p4995
I2
sa(dp4996
S'VBG'
p4997
I1
sg2
I0
sS'VBN'
p4998
I1
sS'CD'
p4999
I6
sg3
I0
sS'JJ'
p5000
I2
sg5
VDisorder
p5001
sg7
I2
sS'VBN-VP'
p5002
I1
sS'JJ-NP'
p5003
I2
sS'VBG-NP'
p5004
I1
sS'CD-NP'
p5005
I6
sS'NN'
p5006
I2
sS'NNS-NP'
p5007
I2
sS'NN-NP'
p5008
I2
sg12
I13
sS'NNS'
p5009
I2
sa(dp5010
S'VBG'
p5011
I1
sg2
I0
sS'VBN'
p5012
I1
sS'CD'
p5013
I6
sg3
I0
sS'JJ'
p5014
I1
sS'NNP-NP'
p5015
I1
sg5
VDisorder
p5016
sg7
I1
sS'VBN-VP'
p5017
I1
sS'JJ-NP'
p5018
I1
sS'VBG-NP'
p5019
I1
sS'CD-NP'
p5020
I6
sS'NN'
p5021
I1
sS'NNS-NP'
p5022
I2
sS'NN-NP'
p5023
I1
sg12
I13
sS'NNS'
p5024
I2
sS'NNP'
p5025
I1
sa(dp5026
S'VBG'
p5027
I1
sg2
I0
sS'VBN'
p5028
I1
sS'CD'
p5029
I6
sg3
I0
sS'JJ'
p5030
I1
sg5
VDisorder
p5031
sg7
I0
sS'VBN-VP'
p5032
I1
sS'JJ-NP'
p5033
I1
sS'VBG-NP'
p5034
I1
sS'CD-NP'
p5035
I6
sS'NN'
p5036
I9
sS'NNS-NP'
p5037
I2
sS'NN-NP'
p5038
I9
sg12
I13
sS'NNS'
p5039
I2
sa(dp5040
g2
I0
sg3
I0
sS'JJ'
p5041
I2
sS'NNP-NP'
p5042
I1
sg5
VDrug
p5043
sg7
I0
sS'JJ-NP'
p5044
I2
sS'NN'
p5045
I2
sS'NN-NP'
p5046
I2
sg12
I1
sS'NNP'
p5047
I1
sa(dp5048
g2
I0
sg3
I0
sS'JJ'
p5049
I2
sS'NNP-NP'
p5050
I1
sg5
VDrug
p5051
sg7
I0
sS'JJ-NP'
p5052
I2
sS'NN'
p5053
I3
sS'NNS-NP'
p5054
I1
sS'NN-NP'
p5055
I3
sg12
I3
sS'NNS'
p5056
I1
sS'NNP'
p5057
I1
sa(dp5058
S'JJ-NP'
p5059
I2
sS'NN'
p5060
I3
sg2
I0
sS'VBN-NP'
p5061
I1
sS'NNS'
p5062
I1
sS'NNS-NP'
p5063
I1
sS'VBN'
p5064
I1
sg3
I0
sS'NN-NP'
p5065
I3
sg12
I5
sS'JJ'
p5066
I2
sg5
VDrug
p5067
sg7
I0
sa(dp5068
S'VB'
p5069
I1
sg2
I0
sg3
I0
sS'JJ'
p5070
I2
sS'NNP-NP'
p5071
I1
sg5
VDrug
p5072
sg7
I3
sS'JJ-NP'
p5073
I2
sS'NN'
p5074
I3
sS'VB-VP'
p5075
I1
sS'NNS-NP'
p5076
I2
sS'NN-NP'
p5077
I3
sg12
I5
sS'NNS'
p5078
I2
sS'NNP'
p5079
I1
sa(dp5080
S'VBG'
p5081
I1
sg2
I0
sS'VBD'
p5082
I1
sS'VBD-VP'
p5083
I1
sS'VBN'
p5084
I1
sS'CD'
p5085
I2
sg3
I1
sS'IN'
p5086
I1
sS'NNP-NP'
p5087
I3
sS'RB-VP'
p5088
I1
sg5
VDrug
p5089
sg7
I3
sS'VBN-VP'
p5090
I1
sS'CD-NP'
p5091
I2
sS'NN'
p5092
I2
sS'IN-PP'
p5093
I1
sS'VBG-VP'
p5094
I1
sS'NN-NP'
p5095
I2
sg12
I9
sS'RB'
p5096
I1
sS'NNS'
p5097
I2
sS'NNS-NP'
p5098
I2
sS'NNP'
p5099
I3
sa(dp5100
S'JJ-NP'
p5101
I1
sS'NN'
p5102
I3
sg2
I1
sS'VBN-NP'
p5103
I1
sS'NNS'
p5104
I3
sS'IN-PP'
p5105
I1
sS'NNS-NP'
p5106
I3
sS'VBN'
p5107
I1
sg3
I0
sS'NN-NP'
p5108
I3
sg12
I5
sS'JJ'
p5109
I1
sS'IN'
p5110
I1
sg5
VDrug
p5111
sg7
I0
sS'VBN-VP'
p5112
I1
sa(dp5113
S'VBG'
p5114
I1
sg2
I0
sS'VBD'
p5115
I1
sS'VBD-VP'
p5116
I1
sg3
I0
sS'JJ'
p5117
I1
sS'NNP-NP'
p5118
I1
sg5
VDrug
p5119
sg7
I1
sS'JJ-NP'
p5120
I1
sS'VBG-NP'
p5121
I1
sS'NN'
p5122
I2
sS'NNS-NP'
p5123
I1
sS'NN-NP'
p5124
I2
sg12
I6
sS'NNS'
p5125
I1
sS'NNP'
p5126
I1
sa(dp5127
g2
I1
sS'VBD'
p5128
I1
sS'VBD-VP'
p5129
I1
sS'VBN'
p5130
I1
sS'CD'
p5131
I1
sg3
I0
sS'JJ'
p5132
I2
sS'NNP-NP'
p5133
I2
sS'RB-VP'
p5134
I1
sg5
VDisorder
p5135
sg7
I3
sS'VBN-VP'
p5136
I1
sS'JJ-NP'
p5137
I2
sS'CD-NP'
p5138
I1
sS'NN'
p5139
I2
sS'NNS-NP'
p5140
I1
sS'NN-NP'
p5141
I2
sg12
I4
sS'RB'
p5142
I1
sS'NNS'
p5143
I1
sS'NNP'
p5144
I2
sa(dp5145
S'JJ-NP'
p5146
I1
sS'NN'
p5147
I3
sg2
I0
sS'NNS'
p5148
I1
sS'NNS-NP'
p5149
I1
sg3
I0
sS'NN-NP'
p5150
I3
sS'VBP'
p5151
I1
sg12
I2
sS'JJ'
p5152
I1
sg5
VDrug
p5153
sg7
I2
sS'VBP-VP'
p5154
I1
sa(dp5155
S'JJ-NP'
p5156
I1
sS'NN'
p5157
I4
sg2
I0
sS'NNS'
p5158
I1
sS'NNS-NP'
p5159
I1
sg3
I0
sS'NN-NP'
p5160
I4
sg12
I1
sS'JJ'
p5161
I1
sg5
VDisorder
p5162
sg7
I2
sa(dp5163
S'JJ-NP'
p5164
I1
sS'NN'
p5165
I3
sg2
I0
sS'NNS'
p5166
I1
sS'NNS-NP'
p5167
I1
sg3
I0
sS'NN-NP'
p5168
I3
sg12
I3
sS'JJ'
p5169
I1
sg5
VDrug
p5170
sg7
I2
sa(dp5171
S'VB'
p5172
I1
sg2
I0
sg3
I0
sS'VBP'
p5173
I1
sS'VBP-VP'
p5174
I1
sS'JJ'
p5175
I1
sg5
VDrug
p5176
sg7
I1
sS'JJ-NP'
p5177
I1
sS'VB-VP'
p5178
I1
sS'NN'
p5179
I1
sS'NNS-NP'
p5180
I1
sS'NN-NP'
p5181
I1
sg12
I4
sS'NNS'
p5182
I1
sa(dp5183
S'VB'
p5184
I1
sS'VB-VP'
p5185
I1
sg2
I0
sS'NNS'
p5186
I1
sS'NNS-NP'
p5187
I1
sS'JJ-NP'
p5188
I1
sg3
I0
sS'NN-NP'
p5189
I1
sS'NN'
p5190
I1
sg12
I6
sS'JJ'
p5191
I1
sg5
VDrug
p5192
sg7
I1
sa(dp5193
S'JJ-NP'
p5194
I1
sS'NN'
p5195
I8
sg2
I0
sS'NNS'
p5196
I1
sS'NNS-NP'
p5197
I1
sg3
I0
sS'NN-NP'
p5198
I8
sg12
I4
sS'JJ'
p5199
I1
sg5
VDrug
p5200
sg7
I1
sa(dp5201
S'JJ-NP'
p5202
I2
sg2
I0
sS'NN'
p5203
I4
sS'NNS'
p5204
I1
sS'NNS-NP'
p5205
I1
sg3
I0
sS'NN-NP'
p5206
I4
sg12
I8
sS'JJ'
p5207
I2
sg5
VDrug
p5208
sg7
I1
sa(dp5209
S'VBG'
p5210
I1
sg2
I0
sS'VBD'
p5211
I1
sS'VBD-VP'
p5212
I1
sS'VBN'
p5213
I1
sg3
I0
sS'VBP'
p5214
I1
sS'VBP-VP'
p5215
I1
sS'JJ'
p5216
I1
sg5
VDrug
p5217
sg7
I1
sS'VBN-VP'
p5218
I1
sS'JJ-NP'
p5219
I1
sS'NN'
p5220
I2
sS'VBG-VP'
p5221
I1
sS'NN-NP'
p5222
I2
sg12
I0
sa(dp5223
S'VBG'
p5224
I1
sg2
I0
sS'VBD'
p5225
I1
sS'VBD-VP'
p5226
I1
sS'VBN'
p5227
I1
sg3
I0
sS'JJ'
p5228
I1
sS'NNP-NP'
p5229
I1
sS'RB-VP'
p5230
I1
sg5
VDrug
p5231
sg7
I1
sS'VBN-VP'
p5232
I1
sS'JJ-NP'
p5233
I1
sS'NN'
p5234
I2
sS'VBG-VP'
p5235
I1
sS'NN-NP'
p5236
I2
sg12
I1
sS'RB'
p5237
I1
sS'NNP'
p5238
I1
sa(dp5239
g2
I1
sS'VBN'
p5240
I1
sS'CD'
p5241
I1
sg3
I0
sS'VBP'
p5242
I1
sS'VBP-VP'
p5243
I1
sS'JJ'
p5244
I2
sS'NNP-NP'
p5245
I1
sg5
VDisorder
p5246
sg7
I1
sS'VBN-VP'
p5247
I1
sS'JJ-NP'
p5248
I2
sS'CD-NP'
p5249
I1
sS'NN'
p5250
I3
sS'NNS-NP'
p5251
I1
sS'NN-NP'
p5252
I3
sg12
I1
sS'NNS'
p5253
I1
sS'NNP'
p5254
I1
sa(dp5255
g2
I0
sS'VBN'
p5256
I1
sS'CD'
p5257
I1
sg3
I0
sS'JJ'
p5258
I1
sS'NNP-NP'
p5259
I1
sg5
VDisorder
p5260
sg7
I0
sS'VBN-VP'
p5261
I1
sS'JJ-NP'
p5262
I1
sS'CD-NP'
p5263
I1
sS'NN'
p5264
I2
sS'NNS-NP'
p5265
I2
sS'NN-NP'
p5266
I2
sg12
I1
sS'NNS'
p5267
I2
sS'NNP'
p5268
I1
sa(dp5269
g2
I0
sS'VBN'
p5270
I1
sS'CD'
p5271
I1
sg3
I0
sS'JJ'
p5272
I1
sS'NNP-NP'
p5273
I1
sg5
VDrug
p5274
sg7
I1
sS'VBN-VP'
p5275
I1
sS'JJ-NP'
p5276
I1
sS'CD-NP'
p5277
I1
sS'NN'
p5278
I2
sS'NNS-NP'
p5279
I2
sS'NN-NP'
p5280
I2
sg12
I8
sS'NNS'
p5281
I2
sS'NNP'
p5282
I1
sa(dp5283
S'VB'
p5284
I1
sg2
I0
sS'NNP-NP'
p5285
I1
sS'CD'
p5286
I1
sg3
I0
sS'JJ'
p5287
I2
sS'IN'
p5288
I1
sS'VB-VP'
p5289
I1
sg5
VDrug
p5290
sg7
I1
sS'JJ-NP'
p5291
I2
sS'CD-NP'
p5292
I1
sS'NN'
p5293
I3
sS'IN-PP'
p5294
I1
sS'NNS-NP'
p5295
I1
sS'NN-NP'
p5296
I3
sg12
I2
sS'NNS'
p5297
I1
sS'NNP'
p5298
I1
sa(dp5299
S'VBG'
p5300
I1
sg2
I1
sS'VBD'
p5301
I1
sS'VBD-VP'
p5302
I1
sS'VBN'
p5303
I1
sS'CD'
p5304
I2
sg3
I0
sS'VBP'
p5305
I1
sS'VBP-VP'
p5306
I1
sS'JJ'
p5307
I3
sS'NNP-NP'
p5308
I2
sS'DT'
p5309
I1
sg5
VDrug
p5310
sg7
I3
sS'VBN-VP'
p5311
I1
sS'JJ-NP'
p5312
I3
sS'CD-NP'
p5313
I2
sS'NN'
p5314
I1
sS'NNS-NP'
p5315
I4
sS'VBG-VP'
p5316
I1
sS'NN-NP'
p5317
I1
sg12
I10
sS'DT-NP'
p5318
I1
sS'NNS'
p5319
I4
sS'NNP'
p5320
I2
sa(dp5321
S'VBG'
p5322
I1
sg2
I1
sS'VBD'
p5323
I1
sS'VBD-VP'
p5324
I1
sS'VBN'
p5325
I1
sS'CD'
p5326
I2
sg3
I0
sS'JJ'
p5327
I3
sS'NNP-NP'
p5328
I2
sS'DT'
p5329
I1
sg5
VDrug
p5330
sg7
I3
sS'VBN-VP'
p5331
I1
sS'JJ-NP'
p5332
I3
sS'CD-NP'
p5333
I2
sS'NN'
p5334
I1
sS'NNS-NP'
p5335
I4
sS'VBG-VP'
p5336
I1
sS'NN-NP'
p5337
I1
sg12
I12
sS'DT-NP'
p5338
I1
sS'NNS'
p5339
I4
sS'NNP'
p5340
I2
sa(dp5341
S'VBG'
p5342
I1
sg2
I0
sS'VBD'
p5343
I1
sS'VBD-VP'
p5344
I1
sS'VBN'
p5345
I1
sS'CD'
p5346
I2
sg3
I0
sS'JJ'
p5347
I1
sS'NNP-NP'
p5348
I2
sS'DT'
p5349
I1
sg5
VDrug
p5350
sg7
I1
sS'VBN-VP'
p5351
I1
sS'JJ-NP'
p5352
I1
sS'CD-NP'
p5353
I2
sS'NN'
p5354
I1
sS'NNS-NP'
p5355
I2
sS'VBG-VP'
p5356
I1
sS'NN-NP'
p5357
I1
sg12
I12
sS'DT-NP'
p5358
I1
sS'NNS'
p5359
I2
sS'NNP'
p5360
I2
sa(dp5361
S'VB'
p5362
I1
sS'VBG'
p5363
I1
sg2
I1
sg3
I0
sS'VBP'
p5364
I1
sS'VBP-VP'
p5365
I1
sS'JJ'
p5366
I3
sg5
VDisorder
p5367
sg7
I2
sS'JJ-NP'
p5368
I3
sS'VBG-NP'
p5369
I1
sS'VB-VP'
p5370
I1
sS'NN'
p5371
I2
sS'NNS-NP'
p5372
I2
sS'NN-NP'
p5373
I2
sg12
I3
sS'NNS'
p5374
I2
sa(dp5375
S'VB'
p5376
I1
sS'VBG'
p5377
I1
sg2
I0
sg3
I0
sS'JJ'
p5378
I2
sg5
VDisorder
p5379
sg7
I1
sS'JJ-NP'
p5380
I2
sS'VBG-NP'
p5381
I1
sS'VB-VP'
p5382
I1
sS'NN'
p5383
I1
sS'NNS-NP'
p5384
I1
sS'NN-NP'
p5385
I1
sg12
I3
sS'NNS'
p5386
I1
sa(dp5387
g2
I0
sg3
I0
sS'JJ'
p5388
I3
sS'NNP-NP'
p5389
I1
sS'VBZ'
p5390
I1
sg5
VDisorder
p5391
sg7
I4
sS'JJ-NP'
p5392
I3
sS'NN'
p5393
I2
sS'VBZ-VP'
p5394
I1
sS'NNS-NP'
p5395
I1
sS'NN-NP'
p5396
I2
sg12
I5
sS'NNS'
p5397
I1
sS'NNP'
p5398
I1
sa(dp5399
g2
I0
sg3
I0
sS'JJ'
p5400
I1
sS'NNP-NP'
p5401
I1
sS'VBZ'
p5402
I1
sg5
VDrug
p5403
sg7
I1
sS'JJ-NP'
p5404
I1
sS'NN'
p5405
I1
sS'VBZ-VP'
p5406
I1
sS'NNS-NP'
p5407
I1
sS'NN-NP'
p5408
I1
sg12
I7
sS'NNS'
p5409
I1
sS'NNP'
p5410
I1
sa(dp5411
g2
I0
sg3
I0
sS'JJ'
p5412
I2
sS'NNP-NP'
p5413
I1
sS'VBZ'
p5414
I1
sg5
VDrug
p5415
sg7
I0
sS'JJ-NP'
p5416
I2
sS'NN'
p5417
I2
sS'VBZ-VP'
p5418
I1
sS'NNS-NP'
p5419
I1
sS'NN-NP'
p5420
I2
sg12
I7
sS'NNS'
p5421
I1
sS'NNP'
p5422
I1
sa(dp5423
S'JJ-NP'
p5424
I4
sS'NN'
p5425
I2
sg2
I0
sS'NNS'
p5426
I2
sS'NNS-NP'
p5427
I2
sg3
I0
sS'NN-NP'
p5428
I2
sg12
I11
sS'JJ'
p5429
I4
sS'NNP-NP'
p5430
I1
sg5
VDrug
p5431
sg7
I0
sS'NNP'
p5432
I1
sa(dp5433
S'VB'
p5434
I1
sS'VBG'
p5435
I1
sg2
I1
sS'VBN-NP'
p5436
I1
sS'NNS-NP'
p5437
I1
sS'VBN'
p5438
I1
sg3
I0
sS'JJ'
p5439
I1
sS'NNP-NP'
p5440
I1
sS'RB-VP'
p5441
I1
sg5
VDrug
p5442
sg7
I2
sS'VBN-VP'
p5443
I1
sS'JJ-NP'
p5444
I1
sS'VB-VP'
p5445
I1
sS'NN'
p5446
I2
sS'VBD'
p5447
I1
sS'VBG-VP'
p5448
I1
sS'NN-NP'
p5449
I2
sg12
I9
sS'RB'
p5450
I1
sS'VBD-VP'
p5451
I1
sS'NNS'
p5452
I1
sS'NNP'
p5453
I1
sa(dp5454
S'VB'
p5455
I1
sS'VBG'
p5456
I1
sg2
I0
sS'VBD'
p5457
I1
sS'NNS-NP'
p5458
I1
sS'VBN'
p5459
I1
sg3
I0
sS'JJ'
p5460
I1
sS'NNP-NP'
p5461
I1
sS'RB-VP'
p5462
I1
sg5
VDrug
p5463
sg7
I0
sS'VBN-VP'
p5464
I1
sS'JJ-NP'
p5465
I1
sS'VB-VP'
p5466
I1
sS'NN'
p5467
I5
sS'VBN-NP'
p5468
I1
sS'VBG-VP'
p5469
I1
sS'NN-NP'
p5470
I5
sg12
I9
sS'RB'
p5471
I1
sS'VBD-VP'
p5472
I1
sS'NNS'
p5473
I1
sS'NNP'
p5474
I1
sa(dp5475
S'VB'
p5476
I1
sS'VBG'
p5477
I2
sg2
I1
sS'VBN-NP'
p5478
I1
sS'NNS-NP'
p5479
I1
sS'VBN'
p5480
I1
sg3
I0
sS'JJ'
p5481
I1
sS'NNP-NP'
p5482
I1
sS'RB-VP'
p5483
I1
sg5
VDrug
p5484
sg7
I2
sS'VBN-VP'
p5485
I1
sS'JJ-NP'
p5486
I1
sS'VB-VP'
p5487
I1
sS'NN'
p5488
I2
sS'VBD'
p5489
I1
sS'VBG-VP'
p5490
I2
sS'NN-NP'
p5491
I2
sg12
I11
sS'RB'
p5492
I1
sS'VBD-VP'
p5493
I1
sS'NNS'
p5494
I1
sS'NNP'
p5495
I1
sa(dp5496
S'VB'
p5497
I1
sS'VBG'
p5498
I2
sg2
I0
sS'VBD'
p5499
I1
sS'NNS-NP'
p5500
I1
sS'VBN'
p5501
I1
sg3
I0
sS'JJ'
p5502
I1
sS'NNP-NP'
p5503
I1
sS'RB-VP'
p5504
I1
sg5
VDrug
p5505
sg7
I0
sS'VBN-VP'
p5506
I1
sS'JJ-NP'
p5507
I1
sS'VB-VP'
p5508
I1
sS'NN'
p5509
I4
sS'VBN-NP'
p5510
I1
sS'VBG-VP'
p5511
I2
sS'NN-NP'
p5512
I4
sg12
I11
sS'RB'
p5513
I1
sS'VBD-VP'
p5514
I1
sS'NNS'
p5515
I1
sS'NNP'
p5516
I1
sa(dp5517
S'JJ-NP'
p5518
I2
sS'NN'
p5519
I5
sg2
I0
sS'VBZ-VP'
p5520
I1
sS'VBN'
p5521
I2
sg3
I0
sS'NN-NP'
p5522
I5
sg12
I3
sS'JJ'
p5523
I2
sS'VBZ'
p5524
I1
sg5
VDrug
p5525
sg7
I0
sS'VBN-VP'
p5526
I2
sa(dp5527
S'JJ-NP'
p5528
I2
sS'NN'
p5529
I5
sg2
I0
sS'VBZ-VP'
p5530
I1
sS'VBN'
p5531
I2
sg3
I0
sS'NN-NP'
p5532
I5
sg12
I3
sS'JJ'
p5533
I2
sS'VBZ'
p5534
I1
sg5
VDrug
p5535
sg7
I0
sS'VBN-VP'
p5536
I2
sa(dp5537
S'VBG'
p5538
I3
sg2
I3
sS'NNS-NP'
p5539
I2
sg3
I0
sS'VBP'
p5540
I1
sS'VBP-VP'
p5541
I1
sg5
VDrug
p5542
sg7
I3
sS'NN'
p5543
I1
sS'VBG-VP'
p5544
I3
sS'NN-NP'
p5545
I1
sg12
I1
sS'NNS'
p5546
I2
sa(dp5547
g2
I0
sg3
I0
sS'JJ'
p5548
I1
sS'NNP-NP'
p5549
I1
sg5
VDrug
p5550
sg7
I0
sS'JJ-NP'
p5551
I1
sS'NN'
p5552
I1
sS'NNS-NP'
p5553
I1
sS'NN-NP'
p5554
I1
sg12
I1
sS'NNS'
p5555
I1
sS'NNP'
p5556
I1
sa(dp5557
g2
I0
sg3
I0
sS'JJ'
p5558
I1
sS'NNP-NP'
p5559
I1
sg5
VDrug
p5560
sg7
I0
sS'JJ-NP'
p5561
I1
sS'NN'
p5562
I3
sS'NN-NP'
p5563
I3
sg12
I1
sS'NNP'
p5564
I1
sa(dp5565
S'JJ-NP'
p5566
I1
sS'NN'
p5567
I1
sg2
I0
sS'NNS'
p5568
I1
sS'NNS-NP'
p5569
I1
sg3
I0
sS'NN-NP'
p5570
I1
sg12
I4
sS'JJ'
p5571
I1
sg5
VDrug
p5572
sg7
I0
sa(dp5573
S'JJ-NP'
p5574
I1
sS'NN'
p5575
I3
sg2
I0
sg3
I0
sS'NN-NP'
p5576
I3
sg12
I4
sS'JJ'
p5577
I1
sg5
VDrug
p5578
sg7
I0
sa(dp5579
S'VB'
p5580
I1
sS'VB-VP'
p5581
I1
sg2
I0
sS'NNS'
p5582
I1
sS'NNS-NP'
p5583
I1
sS'JJ-NP'
p5584
I2
sg3
I0
sS'NN-NP'
p5585
I4
sS'NN'
p5586
I4
sg12
I5
sS'JJ'
p5587
I2
sg5
VDrug
p5588
sg7
I1
sa(dp5589
S'VB'
p5590
I1
sg2
I1
sS'VBD'
p5591
I1
sS'VBD-VP'
p5592
I1
sS'CD'
p5593
I6
sg3
I0
sS'JJ'
p5594
I3
sS'VB-VP'
p5595
I1
sS'NNP-NP'
p5596
I1
sg5
VDisorder
p5597
sg7
I4
sS'JJ-NP'
p5598
I3
sS'CD-NP'
p5599
I6
sS'NN'
p5600
I1
sS'NNS-NP'
p5601
I2
sS'NN-NP'
p5602
I1
sg12
I2
sS'NNS'
p5603
I2
sS'NNP'
p5604
I1
sa(dp5605
S'VB'
p5606
I1
sg2
I1
sS'VBD'
p5607
I1
sS'VBD-VP'
p5608
I1
sS'CD'
p5609
I4
sg3
I0
sS'JJ'
p5610
I2
sS'NNP-NP'
p5611
I1
sS'VB-VP'
p5612
I1
sg5
VDisorder
p5613
sg7
I2
sS'JJ-NP'
p5614
I2
sS'CD-NP'
p5615
I4
sS'NN'
p5616
I1
sS'NNS-NP'
p5617
I2
sS'NN-NP'
p5618
I1
sg12
I2
sS'NNS'
p5619
I2
sS'NNP'
p5620
I1
sa(dp5621
g2
I0
sS'VBD'
p5622
I1
sS'VBD-VP'
p5623
I1
sS'CD'
p5624
I2
sg3
I0
sS'JJ'
p5625
I1
sS'NNP-NP'
p5626
I1
sg5
VDisorder
p5627
sg7
I1
sS'JJ-NP'
p5628
I1
sS'CD-NP'
p5629
I2
sS'NN'
p5630
I2
sS'NNS-NP'
p5631
I2
sS'NN-NP'
p5632
I2
sg12
I2
sS'NNS'
p5633
I2
sS'NNP'
p5634
I1
sa(dp5635
S'VB'
p5636
I1
sg2
I0
sS'VBD'
p5637
I1
sS'VBD-VP'
p5638
I1
sS'CD'
p5639
I8
sg3
I0
sS'JJ'
p5640
I3
sS'VB-VP'
p5641
I1
sg5
VDisorder
p5642
sg7
I0
sS'JJ-NP'
p5643
I3
sS'CD-NP'
p5644
I8
sS'NN'
p5645
I2
sS'NNS-NP'
p5646
I2
sS'NN-NP'
p5647
I2
sg12
I2
sS'NNS'
p5648
I2
sa(dp5649
S'VB'
p5650
I1
sg2
I0
sS'VBD'
p5651
I2
sS'VBD-VP'
p5652
I2
sS'VBN'
p5653
I1
sS'CD'
p5654
I7
sg3
I0
sS'JJ'
p5655
I3
sS'VB-VP'
p5656
I1
sS'NNP-NP'
p5657
I1
sg5
VDisorder
p5658
sg7
I1
sS'VBN-VP'
p5659
I1
sS'JJ-NP'
p5660
I3
sS'CD-NP'
p5661
I7
sS'NN'
p5662
I5
sS'JJS-NP'
p5663
I1
sS'JJS'
p5664
I1
sS'NN-NP'
p5665
I5
sg12
I1
sS'NNS'
p5666
I1
sS'NNS-NP'
p5667
I1
sS'NNP'
p5668
I1
sa(dp5669
S'VBG'
p5670
I1
sg2
I0
sS'CD'
p5671
I1
sg3
I0
sS'JJ'
p5672
I2
sg5
VDisorder
p5673
sg7
I1
sS'JJ-NP'
p5674
I2
sS'VBG-NP'
p5675
I1
sS'CD-NP'
p5676
I1
sS'NN'
p5677
I4
sS'NNS-NP'
p5678
I2
sS'NN-NP'
p5679
I4
sg12
I0
sS'NNS'
p5680
I2
sa(dp5681
S'VBG'
p5682
I1
sg2
I0
sS'VBD'
p5683
I1
sS'VBD-VP'
p5684
I1
sS'CD'
p5685
I1
sg3
I0
sS'JJ'
p5686
I2
sS'NNP-NP'
p5687
I1
sg5
VDisorder
p5688
sg7
I1
sS'JJ-NP'
p5689
I2
sS'VBG-NP'
p5690
I1
sS'CD-NP'
p5691
I1
sS'NN'
p5692
I2
sS'NNS-NP'
p5693
I2
sS'NN-NP'
p5694
I2
sg12
I2
sS'NNS'
p5695
I2
sS'NNP'
p5696
I1
sa(dp5697
S'VBG'
p5698
I1
sg2
I0
sS'CD'
p5699
I1
sg3
I0
sS'JJ'
p5700
I2
sS'NNP-NP'
p5701
I1
sg5
VDisorder
p5702
sg7
I1
sS'JJ-NP'
p5703
I2
sS'VBG-NP'
p5704
I1
sS'CD-NP'
p5705
I1
sS'NN'
p5706
I2
sS'NNS-NP'
p5707
I2
sS'NN-NP'
p5708
I2
sg12
I4
sS'NNS'
p5709
I2
sS'NNP'
p5710
I1
sa(dp5711
S'JJ-NP'
p5712
I1
sS'NN'
p5713
I1
sg2
I0
sS'VBN-NP'
p5714
I1
sS'VBN'
p5715
I1
sg3
I0
sS'NN-NP'
p5716
I1
sg12
I0
sS'JJ'
p5717
I1
sg5
VDrug
p5718
sg7
I0
sa(dp5719
S'JJ-NP'
p5720
I1
sS'NN'
p5721
I1
sg2
I0
sS'VBN-NP'
p5722
I1
sS'VBN'
p5723
I1
sg3
I0
sS'NN-NP'
p5724
I1
sg12
I3
sS'JJ'
p5725
I1
sg5
VDrug
p5726
sg7
I0
sa(dp5727
S'JJ-NP'
p5728
I1
sS'NN'
p5729
I1
sg2
I0
sS'VBN-NP'
p5730
I1
sS'VBN'
p5731
I1
sg3
I0
sS'NN-NP'
p5732
I1
sg12
I5
sS'JJ'
p5733
I1
sg5
VDrug
p5734
sg7
I0
sa(dp5735
S'VB'
p5736
I1
sg2
I1
sS'VBN'
p5737
I1
sg3
I0
sS'VBP'
p5738
I1
sS'VBP-VP'
p5739
I1
sS'RB-VP'
p5740
I1
sg5
VDrug
p5741
sg7
I2
sS'VBN-VP'
p5742
I1
sS'NN'
p5743
I2
sS'VB-VP'
p5744
I1
sS'NNS-NP'
p5745
I2
sS'NN-NP'
p5746
I2
sg12
I0
sS'RB'
p5747
I1
sS'NNS'
p5748
I2
sa(dp5749
S'VB'
p5750
I1
sg2
I1
sS'VBN'
p5751
I1
sg3
I0
sS'VBP'
p5752
I1
sS'VBP-VP'
p5753
I1
sS'JJ'
p5754
I1
sg5
VDrug
p5755
sg7
I2
sS'VBN-VP'
p5756
I1
sS'JJ-NP'
p5757
I1
sS'NN'
p5758
I2
sS'VB-VP'
p5759
I1
sS'NNS-NP'
p5760
I2
sS'NN-NP'
p5761
I2
sg12
I2
sS'NNS'
p5762
I2
sa(dp5763
S'VB'
p5764
I1
sS'VBG'
p5765
I1
sg2
I0
sg3
I0
sS'JJ'
p5766
I2
sS'NNP-NP'
p5767
I1
sg5
VDisorder
p5768
sg7
I3
sS'JJ-NP'
p5769
I2
sS'VBG-NP'
p5770
I1
sS'NN'
p5771
I3
sS'VB-VP'
p5772
I1
sS'NNS-NP'
p5773
I1
sS'NN-NP'
p5774
I3
sg12
I2
sS'NNS'
p5775
I1
sS'NNP'
p5776
I1
sa(dp5777
S'VB'
p5778
I1
sS'VBG'
p5779
I1
sg2
I0
sS'NNS-NP'
p5780
I1
sg3
I0
sS'JJ'
p5781
I2
sS'NNP-NP'
p5782
I1
sg5
VDisorder
p5783
sg7
I3
sS'JJ-NP'
p5784
I2
sS'VB-VP'
p5785
I1
sS'NN'
p5786
I3
sS'VBG-VP'
p5787
I1
sS'NN-NP'
p5788
I3
sg12
I4
sS'NNS'
p5789
I1
sS'NNP'
p5790
I1
sa(dp5791
S'VB'
p5792
I1
sS'VBG'
p5793
I1
sg2
I0
sg3
I0
sS'JJ'
p5794
I1
sS'NNP-NP'
p5795
I1
sg5
VDrug
p5796
sg7
I0
sS'JJ-NP'
p5797
I1
sS'VBG-NP'
p5798
I1
sS'VB-VP'
p5799
I1
sS'NN'
p5800
I1
sS'NNS-NP'
p5801
I1
sS'NN-NP'
p5802
I1
sg12
I6
sS'NNS'
p5803
I1
sS'NNP'
p5804
I1
sa(dp5805
S'VB'
p5806
I1
sS'VBG'
p5807
I1
sg2
I0
sg3
I0
sS'JJ'
p5808
I1
sS'NNP-NP'
p5809
I1
sg5
VDisorder
p5810
sg7
I3
sS'JJ-NP'
p5811
I1
sS'VBG-NP'
p5812
I1
sS'NN'
p5813
I3
sS'VB-VP'
p5814
I1
sS'NNS-NP'
p5815
I1
sS'NN-NP'
p5816
I3
sg12
I2
sS'NNS'
p5817
I1
sS'NNP'
p5818
I1
sa(dp5819
S'VB'
p5820
I1
sS'VBG'
p5821
I1
sg2
I0
sS'NNS-NP'
p5822
I1
sg3
I0
sS'JJ'
p5823
I1
sS'NNP-NP'
p5824
I1
sg5
VDisorder
p5825
sg7
I3
sS'JJ-NP'
p5826
I1
sS'VB-VP'
p5827
I1
sS'NN'
p5828
I3
sS'VBG-VP'
p5829
I1
sS'NN-NP'
p5830
I3
sg12
I4
sS'NNS'
p5831
I1
sS'NNP'
p5832
I1
sa(dp5833
S'VB'
p5834
I1
sS'VBG'
p5835
I1
sg2
I0
sg3
I0
sS'JJ'
p5836
I1
sS'NNP-NP'
p5837
I1
sg5
VDrug
p5838
sg7
I0
sS'JJ-NP'
p5839
I1
sS'VBG-NP'
p5840
I1
sS'NN'
p5841
I1
sS'VB-VP'
p5842
I1
sS'NNS-NP'
p5843
I1
sS'NN-NP'
p5844
I1
sg12
I8
sS'NNS'
p5845
I1
sS'NNP'
p5846
I1
sa(dp5847
S'VB'
p5848
I1
sS'VBG'
p5849
I1
sg2
I0
sg3
I0
sS'JJ'
p5850
I1
sS'NNP-NP'
p5851
I1
sg5
VDisorder
p5852
sg7
I2
sS'JJ-NP'
p5853
I1
sS'VBG-NP'
p5854
I1
sS'NN'
p5855
I2
sS'VB-VP'
p5856
I1
sS'NNS-NP'
p5857
I1
sS'NN-NP'
p5858
I2
sg12
I2
sS'NNS'
p5859
I1
sS'NNP'
p5860
I1
sa(dp5861
S'VB'
p5862
I1
sS'VBG'
p5863
I1
sg2
I0
sS'NNS-NP'
p5864
I1
sg3
I0
sS'JJ'
p5865
I1
sS'NNP-NP'
p5866
I1
sg5
VDisorder
p5867
sg7
I2
sS'JJ-NP'
p5868
I1
sS'VB-VP'
p5869
I1
sS'NN'
p5870
I2
sS'VBG-VP'
p5871
I1
sS'NN-NP'
p5872
I2
sg12
I4
sS'NNS'
p5873
I1
sS'NNP'
p5874
I1
sa(dp5875
S'VB'
p5876
I1
sS'VBG'
p5877
I1
sg2
I0
sg3
I0
sS'JJ'
p5878
I2
sS'NNP-NP'
p5879
I1
sg5
VDrug
p5880
sg7
I0
sS'JJ-NP'
p5881
I2
sS'VBG-NP'
p5882
I1
sS'NN'
p5883
I4
sS'VB-VP'
p5884
I1
sS'NNS-NP'
p5885
I1
sS'NN-NP'
p5886
I4
sg12
I10
sS'NNS'
p5887
I1
sS'NNP'
p5888
I1
sa(dp5889
g2
I0
sS'VBD'
p5890
I1
sS'VBD-VP'
p5891
I1
sS'CD'
p5892
I12
sg3
I0
sS'JJ'
p5893
I1
sS'IN'
p5894
I2
sS'NNP-NP'
p5895
I3
sg5
VDisorder
p5896
sg7
I10
sS'JJ-NP'
p5897
I1
sS'CD-NP'
p5898
I12
sS'NN'
p5899
I3
sS'IN-PP'
p5900
I2
sS'NNS-NP'
p5901
I1
sS'NN-NP'
p5902
I3
sg12
I2
sS'NNS'
p5903
I1
sS'NNP'
p5904
I3
sa(dp5905
g2
I0
sS'VBN-NP'
p5906
I1
sS'VBN'
p5907
I1
sg3
I0
sS'JJ'
p5908
I1
sS'IN'
p5909
I1
sg5
VDrug
p5910
sg7
I3
sS'JJ-NP'
p5911
I1
sS'NN'
p5912
I4
sS'IN-PP'
p5913
I1
sS'NNS-NP'
p5914
I1
sS'NN-NP'
p5915
I4
sg12
I1
sS'NNS'
p5916
I1
sa(dp5917
g2
I0
sS'VBN-NP'
p5918
I1
sS'VBN'
p5919
I1
sg3
I0
sS'JJ'
p5920
I1
sS'IN'
p5921
I1
sg5
VDrug
p5922
sg7
I3
sS'JJ-NP'
p5923
I1
sS'NN'
p5924
I3
sS'IN-PP'
p5925
I1
sS'NNS-NP'
p5926
I1
sS'NN-NP'
p5927
I3
sg12
I1
sS'NNS'
p5928
I1
sa(dp5929
S'JJ-NP'
p5930
I1
sS'NN'
p5931
I1
sg2
I0
sS'VBN-NP'
p5932
I1
sS'NNS'
p5933
I1
sS'IN-PP'
p5934
I1
sS'NNS-NP'
p5935
I1
sS'VBN'
p5936
I1
sg3
I0
sS'NN-NP'
p5937
I1
sg12
I7
sS'JJ'
p5938
I1
sS'IN'
p5939
I1
sg5
VDisorder
p5940
sg7
I1
sa(dp5941
S'JJ-NP'
p5942
I1
sS'NN'
p5943
I1
sg2
I0
sS'VBN-NP'
p5944
I1
sS'NNS'
p5945
I1
sS'IN-PP'
p5946
I1
sS'NNS-NP'
p5947
I1
sS'VBN'
p5948
I1
sg3
I0
sS'NN-NP'
p5949
I1
sg12
I11
sS'JJ'
p5950
I1
sS'IN'
p5951
I1
sg5
VDisorder
p5952
sg7
I1
sa(dp5953
g2
I0
sS'VBN-NP'
p5954
I1
sS'VBN'
p5955
I1
sg3
I0
sS'JJ'
p5956
I1
sS'IN'
p5957
I1
sg5
VDisorder
p5958
sg7
I0
sS'JJ-NP'
p5959
I1
sS'NN'
p5960
I3
sS'IN-PP'
p5961
I1
sS'NNS-NP'
p5962
I1
sS'NN-NP'
p5963
I3
sg12
I7
sS'NNS'
p5964
I1
sa(dp5965
g2
I0
sS'VBN-NP'
p5966
I1
sS'VBN'
p5967
I1
sg3
I0
sS'JJ'
p5968
I1
sS'IN'
p5969
I1
sg5
VDisorder
p5970
sg7
I0
sS'JJ-NP'
p5971
I1
sS'NN'
p5972
I2
sS'IN-PP'
p5973
I1
sS'NNS-NP'
p5974
I1
sS'NN-NP'
p5975
I2
sg12
I11
sS'NNS'
p5976
I1
sa(dp5977
S'JJ-NP'
p5978
I2
sS'NN'
p5979
I3
sg2
I0
sS'NNS'
p5980
I1
sS'NNS-NP'
p5981
I1
sg3
I0
sS'NN-NP'
p5982
I3
sg12
I0
sS'JJ'
p5983
I2
sg5
VDrug
p5984
sg7
I1
sa(dp5985
g2
I1
sg3
I0
sS'VBP'
p5986
I1
sS'VBP-VP'
p5987
I1
sS'JJ'
p5988
I1
sg5
VDisorder
p5989
sg7
I2
sS'JJ-NP'
p5990
I1
sS'NN'
p5991
I1
sS'NNS-NP'
p5992
I1
sS'NN-NP'
p5993
I1
sg12
I3
sS'NNS'
p5994
I1
sa(dp5995
S'JJ-NP'
p5996
I1
sg2
I0
sS'NN'
p5997
I1
sS'NNS'
p5998
I2
sS'NNS-NP'
p5999
I2
sg3
I0
sS'NN-NP'
p6000
I1
sS'VBP'
p6001
I1
sg12
I8
sS'JJ'
p6002
I1
sg5
VDrug
p6003
sg7
I0
sS'VBP-VP'
p6004
I1
sa(dp6005
S'JJ-NP'
p6006
I1
sg2
I0
sS'NN'
p6007
I2
sS'NNS'
p6008
I1
sS'NNS-NP'
p6009
I1
sg3
I0
sS'NN-NP'
p6010
I2
sg12
I3
sS'JJ'
p6011
I1
sS'NNP-NP'
p6012
I1
sg5
VDisorder
p6013
sg7
I1
sS'NNP'
p6014
I1
sa(dp6015
S'JJ-NP'
p6016
I2
sS'NN'
p6017
I4
sg2
I0
sS'NNS'
p6018
I2
sS'NNS-NP'
p6019
I2
sg3
I0
sS'NN-NP'
p6020
I4
sg12
I9
sS'JJ'
p6021
I2
sS'NNP-NP'
p6022
I1
sg5
VDrug
p6023
sg7
I0
sS'NNP'
p6024
I1
sa(dp6025
S'JJ-NP'
p6026
I1
sS'NN'
p6027
I1
sg2
I0
sS'NNS'
p6028
I1
sS'NNS-NP'
p6029
I1
sg3
I0
sS'NN-NP'
p6030
I1
sg12
I6
sS'JJ'
p6031
I1
sg5
VDrug
p6032
sg7
I1
sa(dp6033
S'JJ-NP'
p6034
I1
sS'NN'
p6035
I4
sg2
I0
sS'VBN'
p6036
I1
sg3
I0
sS'NN-NP'
p6037
I4
sg12
I2
sS'JJ'
p6038
I1
sS'NNP-NP'
p6039
I4
sS'NNP'
p6040
I4
sg5
VDrug
p6041
sg7
I0
sS'VBN-VP'
p6042
I1
sa(dp6043
g2
I0
sS'VBN'
p6044
I1
sS'CD'
p6045
I1
sg3
I0
sS'JJ'
p6046
I1
sS'NNP-NP'
p6047
I2
sg5
VDrug
p6048
sg7
I0
sS'VBN-VP'
p6049
I1
sS'JJ-NP'
p6050
I1
sS'CD-NP'
p6051
I1
sS'NN'
p6052
I2
sS'NN-NP'
p6053
I2
sg12
I7
sS'NNP'
p6054
I2
sa(dp6055
g2
I0
sS'VBN'
p6056
I1
sS'CD'
p6057
I1
sg3
I0
sS'JJ'
p6058
I1
sS'NNP-NP'
p6059
I1
sg5
VDrug
p6060
sg7
I0
sS'VBN-VP'
p6061
I1
sS'JJ-NP'
p6062
I1
sS'CD-NP'
p6063
I1
sS'NN'
p6064
I2
sS'NN-NP'
p6065
I2
sg12
I8
sS'NNP'
p6066
I1
sa(dp6067
S'JJ-NP'
p6068
I1
sS'CD-NP'
p6069
I1
sg2
I0
sS'VBN'
p6070
I1
sS'CD'
p6071
I1
sg3
I0
sS'NN-NP'
p6072
I3
sS'NN'
p6073
I3
sg12
I9
sS'JJ'
p6074
I1
sS'NNP-NP'
p6075
I1
sS'NNP'
p6076
I1
sg5
VDrug
p6077
sg7
I0
sS'VBN-VP'
p6078
I1
sa(dp6079
S'JJ-NP'
p6080
I1
sS'CD-NP'
p6081
I1
sg2
I0
sS'VBN'
p6082
I1
sS'CD'
p6083
I1
sg3
I0
sS'NN-NP'
p6084
I5
sS'NN'
p6085
I5
sg12
I11
sS'JJ'
p6086
I1
sS'NNP-NP'
p6087
I3
sS'NNP'
p6088
I3
sg5
VDrug
p6089
sg7
I0
sS'VBN-VP'
p6090
I1
sa(dp6091
S'VBG'
p6092
I1
sg2
I1
sS'VBG-VP'
p6093
I1
sS'VBN'
p6094
I1
sS'CD'
p6095
I5
sg3
I0
sS'JJ'
p6096
I2
sS'NNP-NP'
p6097
I1
sg5
VDisorder
p6098
sg7
I8
sS'VBN-VP'
p6099
I1
sS'JJ-NP'
p6100
I2
sS'VBG-NP'
p6101
I1
sS'CD-NP'
p6102
I5
sS'NN'
p6103
I1
sS'NNS-NP'
p6104
I2
sS'NN-NP'
p6105
I1
sg12
I6
sS'NNS'
p6106
I2
sS'NNP'
p6107
I1
sa(dp6108
S'VBG'
p6109
I1
sg2
I0
sS'VBG-VP'
p6110
I1
sS'VBN'
p6111
I1
sS'CD'
p6112
I4
sg3
I0
sS'JJ'
p6113
I2
sS'NNP-NP'
p6114
I1
sg5
VDrug
p6115
sg7
I6
sS'VBN-VP'
p6116
I1
sS'JJ-NP'
p6117
I2
sS'VBG-NP'
p6118
I1
sS'CD-NP'
p6119
I4
sS'NN'
p6120
I1
sS'NNS-NP'
p6121
I1
sS'NN-NP'
p6122
I1
sg12
I16
sS'NNS'
p6123
I1
sS'NNP'
p6124
I1
sa(dp6125
S'VBG'
p6126
I1
sg2
I0
sS'VBG-VP'
p6127
I1
sS'VBN'
p6128
I1
sS'CD'
p6129
I4
sg3
I0
sS'JJ'
p6130
I2
sS'NNP-NP'
p6131
I1
sg5
VDrug
p6132
sg7
I4
sS'VBN-VP'
p6133
I1
sS'JJ-NP'
p6134
I2
sS'VBG-NP'
p6135
I1
sS'CD-NP'
p6136
I4
sS'NN'
p6137
I1
sS'NNS-NP'
p6138
I2
sS'NN-NP'
p6139
I1
sg12
I16
sS'NNS'
p6140
I2
sS'NNP'
p6141
I1
sa(dp6142
S'VBG'
p6143
I2
sg2
I0
sS'VBG-VP'
p6144
I1
sS'VBN'
p6145
I1
sS'CD'
p6146
I4
sg3
I0
sS'JJ'
p6147
I1
sS'NNP-NP'
p6148
I1
sg5
VDisorder
p6149
sg7
I6
sS'VBN-VP'
p6150
I1
sS'JJ-NP'
p6151
I1
sS'VBG-NP'
p6152
I1
sS'CD-NP'
p6153
I4
sS'NN'
p6154
I1
sS'NNS-NP'
p6155
I1
sS'NN-NP'
p6156
I1
sg12
I6
sS'NNS'
p6157
I1
sS'NNP'
p6158
I1
sa(dp6159
S'VBG'
p6160
I2
sg2
I0
sS'VBG-VP'
p6161
I1
sS'VBN'
p6162
I1
sS'CD'
p6163
I4
sg3
I0
sS'JJ'
p6164
I1
sS'NNP-NP'
p6165
I1
sg5
VDisorder
p6166
sg7
I6
sS'VBN-VP'
p6167
I1
sS'JJ-NP'
p6168
I1
sS'VBG-NP'
p6169
I1
sS'CD-NP'
p6170
I4
sS'NN'
p6171
I5
sS'NNS-NP'
p6172
I1
sS'NN-NP'
p6173
I5
sg12
I20
sS'NNS'
p6174
I1
sS'NNP'
p6175
I1
sa(dp6176
S'VBG'
p6177
I2
sg2
I0
sS'VBG-VP'
p6178
I1
sS'VBN'
p6179
I1
sS'CD'
p6180
I4
sg3
I0
sS'JJ'
p6181
I1
sS'NNP-NP'
p6182
I1
sg5
VDrug
p6183
sg7
I4
sS'VBN-VP'
p6184
I1
sS'JJ-NP'
p6185
I1
sS'VBG-NP'
p6186
I1
sS'CD-NP'
p6187
I4
sS'NN'
p6188
I5
sS'NNS-NP'
p6189
I1
sS'NN-NP'
p6190
I5
sg12
I21
sS'NNS'
p6191
I1
sS'NNP'
p6192
I1
sa(dp6193
S'VBG'
p6194
I2
sg2
I0
sS'VBG-VP'
p6195
I1
sS'VBN'
p6196
I1
sS'CD'
p6197
I4
sg3
I0
sS'JJ'
p6198
I1
sS'NNP-NP'
p6199
I1
sg5
VDisorder
p6200
sg7
I7
sS'VBN-VP'
p6201
I1
sS'JJ-NP'
p6202
I1
sS'VBG-NP'
p6203
I1
sS'CD-NP'
p6204
I4
sS'NN'
p6205
I1
sS'NNS-NP'
p6206
I1
sS'NN-NP'
p6207
I1
sg12
I6
sS'NNS'
p6208
I1
sS'NNP'
p6209
I1
sa(dp6210
S'VBG'
p6211
I2
sg2
I0
sS'VBG-VP'
p6212
I1
sS'VBN'
p6213
I1
sS'CD'
p6214
I4
sg3
I0
sS'JJ'
p6215
I1
sS'NNP-NP'
p6216
I1
sg5
VDisorder
p6217
sg7
I7
sS'VBN-VP'
p6218
I1
sS'JJ-NP'
p6219
I1
sS'VBG-NP'
p6220
I1
sS'CD-NP'
p6221
I4
sS'NN'
p6222
I5
sS'NNS-NP'
p6223
I1
sS'NN-NP'
p6224
I5
sg12
I20
sS'NNS'
p6225
I1
sS'NNP'
p6226
I1
sa(dp6227
S'VBG'
p6228
I2
sg2
I0
sS'VBG-VP'
p6229
I1
sS'VBN'
p6230
I1
sS'CD'
p6231
I4
sg3
I0
sS'JJ'
p6232
I1
sS'NNP-NP'
p6233
I2
sg5
VDrug
p6234
sg7
I4
sS'VBN-VP'
p6235
I1
sS'JJ-NP'
p6236
I1
sS'VBG-NP'
p6237
I1
sS'CD-NP'
p6238
I4
sS'NN'
p6239
I5
sS'NNS-NP'
p6240
I1
sS'NN-NP'
p6241
I5
sg12
I22
sS'NNS'
p6242
I1
sS'NNP'
p6243
I2
sa(dp6244
g2
I0
sS'CD'
p6245
I10
sg3
I0
sS'JJ'
p6246
I5
sS'NNP-NP'
p6247
I1
sg5
VDrug
p6248
sg7
I14
sS'JJ-NP'
p6249
I5
sS'CD-NP'
p6250
I10
sS'NN'
p6251
I6
sS'NNS-NP'
p6252
I3
sS'NN-NP'
p6253
I6
sg12
I3
sS'NNS'
p6254
I3
sS'NNP'
p6255
I1
sa(dp6256
g2
I0
sS'CD'
p6257
I6
sg3
I0
sS'JJ'
p6258
I2
sS'NNP-NP'
p6259
I1
sg5
VDrug
p6260
sg7
I8
sS'JJ-NP'
p6261
I2
sS'CD-NP'
p6262
I6
sS'NN'
p6263
I3
sS'NNS-NP'
p6264
I2
sS'NN-NP'
p6265
I3
sg12
I3
sS'NNS'
p6266
I2
sS'NNP'
p6267
I1
sa(dp6268
g2
I0
sS'CD'
p6269
I6
sg3
I0
sS'JJ'
p6270
I2
sS'NNP-NP'
p6271
I1
sg5
VDrug
p6272
sg7
I9
sS'JJ-NP'
p6273
I2
sS'CD-NP'
p6274
I6
sS'NN'
p6275
I2
sS'NNS-NP'
p6276
I2
sS'NN-NP'
p6277
I2
sg12
I3
sS'NNS'
p6278
I2
sS'NNP'
p6279
I1
sa(dp6280
g2
I0
sS'VBN'
p6281
I1
sS'CD'
p6282
I2
sg3
I0
sS'JJ'
p6283
I4
sS'NNP-NP'
p6284
I1
sg5
VDisorder
p6285
sg7
I3
sS'VBN-VP'
p6286
I1
sS'JJ-NP'
p6287
I4
sS'CD-NP'
p6288
I2
sS'NN'
p6289
I6
sS'NNS-NP'
p6290
I1
sS'NN-NP'
p6291
I6
sg12
I7
sS'NNS'
p6292
I1
sS'NNP'
p6293
I1
sa(dp6294
g2
I0
sS'VBN'
p6295
I1
sS'CD'
p6296
I2
sg3
I0
sS'JJ'
p6297
I1
sS'NNP-NP'
p6298
I1
sg5
VDisorder
p6299
sg7
I3
sS'VBN-VP'
p6300
I1
sS'JJ-NP'
p6301
I1
sS'CD-NP'
p6302
I2
sS'NN'
p6303
I3
sS'NNS-NP'
p6304
I1
sS'NN-NP'
p6305
I3
sg12
I18
sS'NNS'
p6306
I1
sS'NNP'
p6307
I1
sa(dp6308
g2
I0
sS'VBN'
p6309
I1
sS'CD'
p6310
I2
sg3
I0
sS'JJ'
p6311
I1
sS'NNP-NP'
p6312
I1
sg5
VDisorder
p6313
sg7
I3
sS'VBN-VP'
p6314
I1
sS'JJ-NP'
p6315
I1
sS'CD-NP'
p6316
I2
sS'NN'
p6317
I2
sS'NNS-NP'
p6318
I1
sS'NN-NP'
p6319
I2
sg12
I20
sS'NNS'
p6320
I1
sS'NNP'
p6321
I1
sa(dp6322
g2
I0
sS'VBN'
p6323
I1
sS'CD'
p6324
I2
sg3
I0
sS'JJ'
p6325
I4
sS'NNP-NP'
p6326
I1
sS'RB-VP'
p6327
I1
sg5
VDisorder
p6328
sg7
I4
sS'VBN-VP'
p6329
I1
sS'JJ-NP'
p6330
I4
sS'CD-NP'
p6331
I2
sS'NN'
p6332
I6
sS'NNS-NP'
p6333
I1
sS'NN-NP'
p6334
I6
sg12
I7
sS'RB'
p6335
I1
sS'NNS'
p6336
I1
sS'NNP'
p6337
I1
sa(dp6338
g2
I0
sS'VBN'
p6339
I1
sS'CD'
p6340
I2
sg3
I0
sS'JJ'
p6341
I1
sS'NNP-NP'
p6342
I1
sS'RB-VP'
p6343
I1
sg5
VDisorder
p6344
sg7
I4
sS'VBN-VP'
p6345
I1
sS'JJ-NP'
p6346
I1
sS'CD-NP'
p6347
I2
sS'NN'
p6348
I3
sS'NNS-NP'
p6349
I1
sS'NN-NP'
p6350
I3
sg12
I18
sS'RB'
p6351
I1
sS'NNS'
p6352
I1
sS'NNP'
p6353
I1
sa(dp6354
g2
I0
sS'VBN'
p6355
I1
sS'CD'
p6356
I2
sg3
I0
sS'JJ'
p6357
I1
sS'NNP-NP'
p6358
I1
sS'RB-VP'
p6359
I1
sg5
VDisorder
p6360
sg7
I4
sS'VBN-VP'
p6361
I1
sS'JJ-NP'
p6362
I1
sS'CD-NP'
p6363
I2
sS'NN'
p6364
I2
sS'NNS-NP'
p6365
I1
sS'NN-NP'
p6366
I2
sg12
I20
sS'RB'
p6367
I1
sS'NNS'
p6368
I1
sS'NNP'
p6369
I1
sa(dp6370
S'VB'
p6371
I1
sg2
I1
sg3
I0
sS'VBP'
p6372
I1
sS'VBP-VP'
p6373
I1
sS'JJ'
p6374
I3
sg5
VDrug
p6375
sg7
I5
sS'JJ-NP'
p6376
I3
sS'VB-VP'
p6377
I1
sS'NN'
p6378
I4
sS'NNS-NP'
p6379
I3
sS'NN-NP'
p6380
I4
sg12
I3
sS'NNS'
p6381
I3
sa(dp6382
S'VB'
p6383
I1
sg2
I0
sg3
I0
sS'VBP'
p6384
I1
sS'VBP-VP'
p6385
I1
sS'JJ'
p6386
I1
sg5
VDrug
p6387
sg7
I2
sS'JJ-NP'
p6388
I1
sS'VB-VP'
p6389
I1
sS'NN'
p6390
I5
sS'NNS-NP'
p6391
I2
sS'NN-NP'
p6392
I5
sg12
I3
sS'NNS'
p6393
I2
sa(dp6394
S'VB'
p6395
I1
sS'NN'
p6396
I5
sS'VB-VP'
p6397
I1
sg2
I0
sS'NNS'
p6398
I3
sS'NNS-NP'
p6399
I3
sS'JJ-NP'
p6400
I4
sg3
I0
sS'NN-NP'
p6401
I5
sS'VBP'
p6402
I1
sg12
I3
sS'JJ'
p6403
I4
sg5
VDrug
p6404
sg7
I0
sS'VBP-VP'
p6405
I1
sa(dp6406
g2
I0
sS'VBD'
p6407
I1
sS'VBD-VP'
p6408
I1
sg3
I0
sS'JJ'
p6409
I1
sS'IN'
p6410
I1
sg5
VDisorder
p6411
sg7
I0
sS'JJ-NP'
p6412
I1
sS'NN'
p6413
I1
sS'IN-PP'
p6414
I1
sS'NNS-NP'
p6415
I3
sS'NN-NP'
p6416
I1
sg12
I1
sS'NNS'
p6417
I3
sa(dp6418
g2
I0
sS'VBD'
p6419
I1
sS'VBD-VP'
p6420
I1
sg3
I0
sS'JJ'
p6421
I1
sS'IN'
p6422
I1
sg5
VDisorder
p6423
sg7
I0
sS'JJ-NP'
p6424
I1
sS'NN'
p6425
I2
sS'IN-PP'
p6426
I1
sS'NNS-NP'
p6427
I2
sS'NN-NP'
p6428
I2
sg12
I2
sS'NNS'
p6429
I2
sa(dp6430
S'NN'
p6431
I2
sg2
I0
sS'IN-PP'
p6432
I1
sS'NNS'
p6433
I1
sS'VBD'
p6434
I1
sS'NNS-NP'
p6435
I1
sg3
I0
sS'NN-NP'
p6436
I2
sg12
I4
sS'VBD-VP'
p6437
I1
sS'IN'
p6438
I1
sg5
VDisorder
p6439
sg7
I0
sa(dp6440
S'VB'
p6441
I1
sg2
I0
sS'VBD'
p6442
I1
sS'VBD-VP'
p6443
I1
sS'CD'
p6444
I1
sg3
I0
sS'JJ'
p6445
I1
sS'NNP-NP'
p6446
I1
sg5
VDisorder
p6447
sg7
I1
sS'JJ-NP'
p6448
I1
sS'CD-NP'
p6449
I1
sS'VB-VP'
p6450
I1
sS'NNS-NP'
p6451
I2
sS'NN-NP'
p6452
I2
sS'NN'
p6453
I2
sg12
I2
sS'NNS'
p6454
I2
sS'NNP'
p6455
I1
sa(dp6456
S'VB'
p6457
I1
sg2
I0
sS'VBD'
p6458
I1
sS'VBD-VP'
p6459
I1
sS'CD'
p6460
I1
sg3
I0
sS'NNP-NP'
p6461
I1
sS'VB-VP'
p6462
I1
sg5
VDisorder
p6463
sg7
I1
sS'CD-NP'
p6464
I1
sS'NN'
p6465
I2
sS'NNS-NP'
p6466
I1
sS'NN-NP'
p6467
I2
sg12
I6
sS'NNS'
p6468
I1
sS'NNP'
p6469
I1
sa(dp6470
S'VB'
p6471
I1
sg2
I0
sS'VBD'
p6472
I1
sS'VBD-VP'
p6473
I1
sS'CD'
p6474
I1
sg3
I0
sS'JJ'
p6475
I1
sg7
I1
sS'NNP-NP'
p6476
I1
sg5
VDisorder
p6477
sS'VB-VP'
p6478
I1
sS'JJ-NP'
p6479
I1
sS'CD-NP'
p6480
I1
sS'NN'
p6481
I2
sS'NNS-NP'
p6482
I1
sS'NN-NP'
p6483
I2
sg12
I8
sS'NNS'
p6484
I1
sS'NNP'
p6485
I1
sa(dp6486
S'VBG'
p6487
I1
sg2
I0
sS'VBN-NP'
p6488
I1
sS'VBG-VP'
p6489
I1
sS'VBN'
p6490
I1
sS'CD'
p6491
I3
sg3
I0
sS'NNP-NP'
p6492
I1
sg5
VDisorder
p6493
sg7
I3
sS'VBN-VP'
p6494
I1
sS'CD-NP'
p6495
I3
sS'NNS-NP'
p6496
I1
sg12
I1
sS'NNS'
p6497
I1
sS'NNP'
p6498
I1
sa(dp6499
g2
I0
sS'VBN-NP'
p6500
I1
sS'VBN'
p6501
I1
sS'CD'
p6502
I13
sg3
I0
sS'JJ'
p6503
I5
sS'IN'
p6504
I1
sS'NNP-NP'
p6505
I9
sg5
VDisorder
p6506
sg7
I14
sS'JJ-NP'
p6507
I5
sS'CD-NP'
p6508
I13
sS'NN'
p6509
I11
sS'IN-PP'
p6510
I1
sS'NNS-NP'
p6511
I1
sS'NN-NP'
p6512
I11
sg12
I4
sS'NNS'
p6513
I1
sS'NNP'
p6514
I9
sa(dp6515
g2
I1
sS'VBN-NP'
p6516
I1
sS'VBN'
p6517
I1
sS'CD'
p6518
I13
sg3
I0
sS'VBP'
p6519
I1
sS'VBP-VP'
p6520
I1
sS'JJ'
p6521
I4
sS'IN'
p6522
I1
sS'NNP-NP'
p6523
I8
sg5
VDrug
p6524
sg7
I14
sS'JJ-NP'
p6525
I4
sS'CD-NP'
p6526
I13
sS'NN'
p6527
I11
sS'IN-PP'
p6528
I1
sS'NNS-NP'
p6529
I1
sS'NN-NP'
p6530
I11
sg12
I6
sS'NNS'
p6531
I1
sS'NNP'
p6532
I8
sa(dp6533
g2
I0
sS'VBN-NP'
p6534
I1
sS'VBN'
p6535
I1
sS'CD'
p6536
I9
sg3
I0
sS'JJ'
p6537
I2
sS'IN'
p6538
I1
sS'NNP-NP'
p6539
I6
sg5
VDrug
p6540
sg7
I8
sS'JJ-NP'
p6541
I2
sS'CD-NP'
p6542
I9
sS'NN'
p6543
I6
sS'IN-PP'
p6544
I1
sS'NNS-NP'
p6545
I1
sS'NN-NP'
p6546
I6
sg12
I6
sS'NNS'
p6547
I1
sS'NNP'
p6548
I6
sa(dp6549
g2
I0
sS'VBN-NP'
p6550
I1
sS'VBN'
p6551
I1
sS'CD'
p6552
I6
sg3
I0
sS'JJ'
p6553
I1
sS'IN'
p6554
I1
sS'NNP-NP'
p6555
I4
sg5
VDrug
p6556
sg7
I5
sS'JJ-NP'
p6557
I1
sS'CD-NP'
p6558
I6
sS'NN'
p6559
I3
sS'IN-PP'
p6560
I1
sS'NNS-NP'
p6561
I1
sS'NN-NP'
p6562
I3
sg12
I6
sS'NNS'
p6563
I1
sS'NNP'
p6564
I4
sa(dp6565
g2
I0
sS'VBN-NP'
p6566
I1
sS'VBN'
p6567
I1
sS'CD'
p6568
I3
sg3
I0
sS'JJ'
p6569
I5
sS'IN'
p6570
I1
sS'NNP-NP'
p6571
I2
sg5
VDrug
p6572
sg7
I1
sS'JJ-NP'
p6573
I5
sS'CD-NP'
p6574
I3
sS'NN'
p6575
I9
sS'IN-PP'
p6576
I1
sS'NNS-NP'
p6577
I1
sS'NN-NP'
p6578
I9
sg12
I6
sS'NNS'
p6579
I1
sS'NNP'
p6580
I2
sa(dp6581
g2
I0
sS'VBN-NP'
p6582
I1
sS'VBN'
p6583
I1
sg3
I0
sS'JJ'
p6584
I2
sg5
VDrug
p6585
sg7
I4
sS'VBN-VP'
p6586
I1
sS'JJ-NP'
p6587
I2
sS'NN'
p6588
I4
sS'NNS-NP'
p6589
I1
sS'NN-NP'
p6590
I4
sg12
I4
sS'NNS'
p6591
I1
sa(dp6592
g2
I0
sS'VBN-NP'
p6593
I1
sS'VBN'
p6594
I1
sg3
I0
sS'JJ'
p6595
I2
sS'NNP-NP'
p6596
I1
sg5
VDrug
p6597
sg7
I2
sS'VBN-VP'
p6598
I1
sS'JJ-NP'
p6599
I2
sS'NN'
p6600
I2
sS'NNS-NP'
p6601
I1
sS'NN-NP'
p6602
I2
sg12
I4
sS'NNS'
p6603
I1
sS'NNP'
p6604
I1
sa(dp6605
g2
I1
sS'VBN-NP'
p6606
I1
sS'VBD-VP'
p6607
I1
sS'VBN'
p6608
I1
sg3
I0
sS'JJ'
p6609
I1
sS'NNP-NP'
p6610
I2
sg5
VDrug
p6611
sg7
I1
sS'VBN-VP'
p6612
I1
sS'JJ-NP'
p6613
I1
sS'NN'
p6614
I1
sS'VBD'
p6615
I1
sS'NNS-NP'
p6616
I1
sS'NN-NP'
p6617
I1
sg12
I4
sS'NNS'
p6618
I1
sS'NNP'
p6619
I2
sa(dp6620
g2
I0
sS'VBN-NP'
p6621
I1
sS'VBN'
p6622
I1
sg3
I0
sS'JJ'
p6623
I1
sS'NNP-NP'
p6624
I1
sg5
VDrug
p6625
sg7
I0
sS'VBN-VP'
p6626
I1
sS'JJ-NP'
p6627
I1
sS'NN'
p6628
I3
sS'NNS-NP'
p6629
I1
sS'NN-NP'
p6630
I3
sg12
I4
sS'NNS'
p6631
I1
sS'NNP'
p6632
I1
sa(dp6633
S'MD'
p6634
I1
sS'JJ-NP'
p6635
I1
sS'VBG'
p6636
I2
sS'NN'
p6637
I1
sg2
I0
sS'NNS'
p6638
I1
sS'NNS-NP'
p6639
I1
sS'VBG-VP'
p6640
I1
sg3
I0
sS'NN-NP'
p6641
I1
sg12
I3
sS'JJ'
p6642
I1
sS'NNP-NP'
p6643
I1
sS'VBG-NP'
p6644
I1
sS'MD-VP'
p6645
I1
sg5
VDisorder
p6646
sg7
I0
sS'NNP'
p6647
I1
sa(dp6648
S'MD'
p6649
I1
sS'JJ-NP'
p6650
I1
sS'VBG'
p6651
I1
sS'NN'
p6652
I3
sg2
I0
sS'NNS-NP'
p6653
I1
sS'VBG-VP'
p6654
I1
sg3
I0
sS'NN-NP'
p6655
I3
sg12
I6
sS'JJ'
p6656
I1
sS'VBG-NP'
p6657
I1
sS'MD-VP'
p6658
I1
sg5
VDisorder
p6659
sg7
I0
sS'NNS'
p6660
I1
sa(dp6661
S'JJ-NP'
p6662
I1
sS'NN'
p6663
I3
sg2
I0
sS'NNS'
p6664
I1
sS'NNS-NP'
p6665
I1
sg3
I0
sS'NN-NP'
p6666
I3
sg12
I0
sS'JJ'
p6667
I1
sg5
VDrug
p6668
sg7
I0
sa(dp6669
S'NN'
p6670
I4
sg2
I0
sS'NNS'
p6671
I1
sS'NNS-NP'
p6672
I1
sg3
I0
sS'NN-NP'
p6673
I4
sg12
I6
sS'NNP-NP'
p6674
I1
sg5
VDrug
p6675
sg7
I0
sS'NNP'
p6676
I1
sa(dp6677
g2
I1
sS'VBD'
p6678
I1
sS'VBD-VP'
p6679
I1
sg3
I0
sS'JJ'
p6680
I1
sS'VBZ'
p6681
I1
sg5
VDrug
p6682
sg7
I2
sS'JJ-NP'
p6683
I1
sS'NN'
p6684
I1
sS'VBZ-VP'
p6685
I1
sS'NNS-NP'
p6686
I2
sS'NN-NP'
p6687
I1
sg12
I0
sS'NNS'
p6688
I2
sa(dp6689
g2
I1
sS'VBD'
p6690
I1
sS'VBD-VP'
p6691
I1
sg3
I0
sS'JJ'
p6692
I2
sS'VBZ'
p6693
I1
sg5
VDrug
p6694
sg7
I1
sS'JJ-NP'
p6695
I2
sS'NN'
p6696
I6
sS'VBZ-VP'
p6697
I1
sS'NNS-NP'
p6698
I1
sS'NN-NP'
p6699
I6
sg12
I0
sS'NNS'
p6700
I1
sa(dp6701
g2
I0
sg3
I0
sS'JJ'
p6702
I3
sS'VBZ'
p6703
I1
sg5
VDrug
p6704
sg7
I0
sS'JJ-NP'
p6705
I3
sS'NN'
p6706
I6
sS'VBZ-VP'
p6707
I1
sS'NNS-NP'
p6708
I6
sS'NN-NP'
p6709
I6
sg12
I0
sS'NNS'
p6710
I6
sa(dp6711
g2
I1
sS'VBD'
p6712
I1
sS'VBD-VP'
p6713
I1
sg3
I0
sS'JJ'
p6714
I1
sS'NNP-NP'
p6715
I1
sS'VBZ'
p6716
I1
sg5
VDrug
p6717
sg7
I2
sS'JJ-NP'
p6718
I1
sS'NN'
p6719
I1
sS'VBZ-VP'
p6720
I1
sS'NNS-NP'
p6721
I2
sS'NN-NP'
p6722
I1
sg12
I13
sS'NNS'
p6723
I2
sS'NNP'
p6724
I1
sa(dp6725
g2
I1
sS'VBD'
p6726
I1
sS'VBD-VP'
p6727
I1
sS'VBN'
p6728
I1
sg3
I0
sS'JJ'
p6729
I1
sS'NNP-NP'
p6730
I1
sS'VBZ'
p6731
I1
sg5
VDrug
p6732
sg7
I1
sS'VBN-VP'
p6733
I1
sS'JJ-NP'
p6734
I1
sS'NN'
p6735
I1
sS'VBZ-VP'
p6736
I1
sS'NNS-NP'
p6737
I1
sS'NN-NP'
p6738
I1
sg12
I13
sS'NNS'
p6739
I1
sS'NNP'
p6740
I1
sa(dp6741
g2
I0
sS'VBN'
p6742
I1
sg3
I0
sS'JJ'
p6743
I1
sS'NNP-NP'
p6744
I1
sS'VBZ'
p6745
I1
sg5
VDrug
p6746
sg7
I0
sS'VBN-VP'
p6747
I1
sS'JJ-NP'
p6748
I1
sS'NN'
p6749
I1
sS'VBZ-VP'
p6750
I1
sS'NNS-NP'
p6751
I1
sS'NN-NP'
p6752
I1
sg12
I13
sS'NNS'
p6753
I1
sS'NNP'
p6754
I1
sa(dp6755
g2
I0
sS'VBN'
p6756
I2
sg3
I0
sS'JJ'
p6757
I1
sS'RB-VP'
p6758
I1
sg5
VDrug
p6759
sg7
I0
sS'VBN-VP'
p6760
I2
sS'JJ-NP'
p6761
I1
sS'NN'
p6762
I2
sS'NNS-NP'
p6763
I1
sS'NN-NP'
p6764
I2
sg12
I7
sS'RB'
p6765
I1
sS'NNS'
p6766
I1
sa(dp6767
S'NN'
p6768
I1
sg2
I0
sg3
I0
sS'NN-NP'
p6769
I1
sg12
I0
sg5
VDisorder
p6770
sg7
I0
sa(dp6771
S'NN'
p6772
I2
sg2
I0
sg3
I0
sS'NN-NP'
p6773
I2
sg12
I1
sg5
VDrug
p6774
sg7
I0
sa(dp6775
S'NN'
p6776
I2
sg2
I0
sS'NNS'
p6777
I1
sS'NNS-NP'
p6778
I1
sg3
I0
sS'NN-NP'
p6779
I2
sg12
I2
sg5
VDrug
p6780
sg7
I0
sa(dp6781
S'NN'
p6782
I2
sg2
I0
sS'NNS'
p6783
I1
sS'NNS-NP'
p6784
I1
sg3
I0
sS'NN-NP'
p6785
I2
sg12
I2
sg5
VDrug
p6786
sg7
I0
sa(dp6787
S'NN'
p6788
I1
sg2
I0
sS'NNS'
p6789
I1
sS'NNS-NP'
p6790
I1
sg3
I0
sS'NN-NP'
p6791
I1
sg12
I3
sg5
VDisorder
p6792
sg7
I1
sa(dp6793
S'NNS-NP'
p6794
I2
sS'VBN'
p6795
I1
sg3
I0
sS'JJ'
p6796
I2
sS'VBZ'
p6797
I1
sS'MD-VP'
p6798
I1
sg5
VDisorder
p6799
sS'VBN-VP'
p6800
I1
sS'JJ-NP'
p6801
I2
sS'NN'
p6802
I2
sS'VBZ-VP'
p6803
I1
sS'NNS'
p6804
I2
sS'VB'
p6805
I2
sg2
I0
sS'IN'
p6806
I1
sS'JJS-NP'
p6807
I1
sg7
I0
sS'MD'
p6808
I1
sS'VB-VP'
p6809
I2
sS'IN-PP'
p6810
I1
sS'JJS'
p6811
I1
sS'NN-NP'
p6812
I2
sg12
I4
sa(dp6813
S'VB'
p6814
I1
sg2
I0
sS'JJS'
p6815
I1
sS'VBN'
p6816
I1
sg3
I0
sS'JJ'
p6817
I2
sS'IN'
p6818
I1
sS'VBZ'
p6819
I1
sS'MD-VP'
p6820
I1
sg5
VDisorder
p6821
sg7
I0
sS'VBN-VP'
p6822
I1
sS'MD'
p6823
I1
sS'JJ-NP'
p6824
I2
sS'NN'
p6825
I2
sS'VB-VP'
p6826
I1
sS'IN-PP'
p6827
I1
sS'JJS-NP'
p6828
I1
sS'VBZ-VP'
p6829
I1
sS'NNS-NP'
p6830
I2
sS'NN-NP'
p6831
I2
sg12
I7
sS'NNS'
p6832
I2
sa(dp6833
S'VB'
p6834
I1
sg2
I0
sS'JJS'
p6835
I1
sS'VBN'
p6836
I1
sg3
I0
sS'JJ'
p6837
I2
sS'IN'
p6838
I1
sS'VBZ'
p6839
I1
sS'MD-VP'
p6840
I1
sg5
VDisorder
p6841
sg7
I0
sS'VBN-VP'
p6842
I1
sS'MD'
p6843
I1
sS'JJ-NP'
p6844
I2
sS'NN'
p6845
I2
sS'VB-VP'
p6846
I1
sS'IN-PP'
p6847
I1
sS'JJS-NP'
p6848
I1
sS'VBZ-VP'
p6849
I1
sS'NNS-NP'
p6850
I2
sS'NN-NP'
p6851
I2
sg12
I7
sS'NNS'
p6852
I2
sa(dp6853
S'JJ-NP'
p6854
I3
sS'NN'
p6855
I1
sg2
I0
sg3
I0
sS'NN-NP'
p6856
I1
sg12
I5
sS'JJ'
p6857
I3
sg5
VDrug
p6858
sg7
I1
sa(dp6859
S'JJ-NP'
p6860
I1
sS'NN'
p6861
I2
sg2
I0
sS'VB'
p6862
I1
sg3
I0
sS'NN-NP'
p6863
I2
sg12
I4
sS'JJ'
p6864
I1
sS'VB-VP'
p6865
I1
sS'NNP-NP'
p6866
I3
sg5
VDisorder
p6867
sg7
I0
sS'NNP'
p6868
I3
sa(dp6869
S'VB'
p6870
I1
sS'VBG'
p6871
I1
sg2
I1
sS'VBG-VP'
p6872
I1
sS'CD'
p6873
I1
sg3
I0
sS'JJ'
p6874
I1
sg5
VDrug
p6875
sg7
I3
sS'CD-NP'
p6876
I1
sS'JJ-NP'
p6877
I1
sS'NN'
p6878
I2
sS'VB-VP'
p6879
I1
sS'NNS-NP'
p6880
I1
sS'NN-NP'
p6881
I2
sg12
I0
sS'NNS'
p6882
I1
sa(dp6883
g2
I0
sg3
I0
sS'JJ'
p6884
I5
sg5
VDrug
p6885
sg7
I0
sS'JJ-NP'
p6886
I5
sS'NN'
p6887
I2
sS'NNS-NP'
p6888
I2
sS'NN-NP'
p6889
I2
sg12
I1
sS'NNS'
p6890
I2
sa(dp6891
g2
I0
sg3
I0
sS'JJ'
p6892
I1
sS'NNP-NP'
p6893
I2
sg5
VDrug
p6894
sg7
I3
sS'JJ-NP'
p6895
I1
sS'NN'
p6896
I1
sS'NNS-NP'
p6897
I1
sS'NN-NP'
p6898
I1
sg12
I3
sS'NNS'
p6899
I1
sS'NNP'
p6900
I2
sa(dp6901
g2
I0
sS'VBD'
p6902
I1
sS'VBD-VP'
p6903
I1
sg3
I0
sS'JJ'
p6904
I1
sS'NNP-NP'
p6905
I2
sg5
VDrug
p6906
sg7
I3
sS'JJ-NP'
p6907
I1
sS'NN'
p6908
I1
sS'NNS-NP'
p6909
I1
sS'NN-NP'
p6910
I1
sg12
I6
sS'NNS'
p6911
I1
sS'NNP'
p6912
I2
sa(dp6913
S'JJ-NP'
p6914
I1
sg2
I0
sS'NN'
p6915
I1
sS'VBD'
p6916
I1
sS'VBD-VP'
p6917
I1
sS'NNS-NP'
p6918
I1
sg3
I0
sS'NN-NP'
p6919
I1
sg12
I6
sS'JJ'
p6920
I1
sS'NNP-NP'
p6921
I2
sS'NNP'
p6922
I2
sg5
VDrug
p6923
sg7
I3
sS'NNS'
p6924
I1
sa(dp6925
g2
I0
sS'VBD'
p6926
I1
sS'VBD-VP'
p6927
I1
sg3
I0
sS'JJ'
p6928
I1
sS'NNP-NP'
p6929
I2
sg5
VDrug
p6930
sg7
I3
sS'JJ-NP'
p6931
I1
sS'NN'
p6932
I1
sS'NNS-NP'
p6933
I1
sS'NN-NP'
p6934
I1
sg12
I7
sS'NNS'
p6935
I1
sS'NNP'
p6936
I2
sa(dp6937
g2
I0
sS'VBD'
p6938
I1
sS'VBD-VP'
p6939
I1
sg3
I0
sS'JJ'
p6940
I2
sS'NNP-NP'
p6941
I2
sg5
VDrug
p6942
sg7
I3
sS'JJ-NP'
p6943
I2
sS'NN'
p6944
I1
sS'NNS-NP'
p6945
I1
sS'NN-NP'
p6946
I1
sg12
I7
sS'NNS'
p6947
I1
sS'NNP'
p6948
I2
sa(dp6949
S'VBG'
p6950
I1
sg2
I1
sS'NNS-NP'
p6951
I2
sS'VBN'
p6952
I1
sg3
I0
sS'JJ'
p6953
I1
sS'NNP-NP'
p6954
I2
sg5
VDrug
p6955
sg7
I4
sS'VBN-VP'
p6956
I1
sS'JJ-NP'
p6957
I1
sS'NN'
p6958
I1
sS'VBG-VP'
p6959
I1
sS'NN-NP'
p6960
I1
sg12
I3
sS'NNS'
p6961
I2
sS'NNP'
p6962
I2
sa(dp6963
S'VBG'
p6964
I1
sg2
I1
sS'NNS-NP'
p6965
I2
sS'VBN'
p6966
I1
sg3
I0
sS'JJ'
p6967
I1
sS'NNP-NP'
p6968
I1
sg5
VDrug
p6969
sg7
I4
sS'VBN-VP'
p6970
I1
sS'JJ-NP'
p6971
I1
sS'NN'
p6972
I1
sS'VBG-VP'
p6973
I1
sS'NN-NP'
p6974
I1
sg12
I3
sS'NNS'
p6975
I2
sS'NNP'
p6976
I1
sa(dp6977
S'VBG'
p6978
I2
sg2
I0
sS'NNS-NP'
p6979
I1
sS'VBN'
p6980
I1
sg3
I0
sS'JJ'
p6981
I1
sS'NNP-NP'
p6982
I4
sg5
VDrug
p6983
sg7
I1
sS'VBN-VP'
p6984
I1
sS'JJ-NP'
p6985
I1
sS'NN'
p6986
I5
sS'VBG-VP'
p6987
I2
sS'NN-NP'
p6988
I5
sg12
I3
sS'NNS'
p6989
I1
sS'NNP'
p6990
I4
sa(dp6991
S'VBG'
p6992
I1
sg2
I1
sS'VBG-VP'
p6993
I1
sS'VBN'
p6994
I1
sg3
I0
sS'JJ'
p6995
I1
sS'NNP-NP'
p6996
I2
sg5
VDrug
p6997
sg7
I4
sS'VBN-VP'
p6998
I1
sS'JJ-NP'
p6999
I1
sS'NN'
p7000
I1
sS'NNS-NP'
p7001
I2
sS'NN-NP'
p7002
I1
sg12
I4
sS'NNS'
p7003
I2
sS'NNP'
p7004
I2
sa(dp7005
S'VBG'
p7006
I2
sg2
I0
sS'VBG-VP'
p7007
I2
sS'VBN'
p7008
I1
sg3
I0
sS'JJ'
p7009
I1
sS'NNP-NP'
p7010
I4
sg5
VDrug
p7011
sg7
I1
sS'VBN-VP'
p7012
I1
sS'JJ-NP'
p7013
I1
sS'NN'
p7014
I4
sS'NNS-NP'
p7015
I1
sS'NN-NP'
p7016
I4
sg12
I4
sS'NNS'
p7017
I1
sS'NNP'
p7018
I4
sa(dp7019
S'VBG'
p7020
I1
sg2
I1
sS'NNS-NP'
p7021
I2
sS'VBN'
p7022
I1
sg3
I0
sS'JJ'
p7023
I2
sS'NNP-NP'
p7024
I2
sg5
VDrug
p7025
sg7
I4
sS'VBN-VP'
p7026
I1
sS'JJ-NP'
p7027
I2
sS'NN'
p7028
I1
sS'VBG-VP'
p7029
I1
sS'NN-NP'
p7030
I1
sg12
I4
sS'NNS'
p7031
I2
sS'NNP'
p7032
I2
sa(dp7033
S'VBG'
p7034
I1
sg2
I1
sS'NNS-NP'
p7035
I2
sS'VBN'
p7036
I1
sg3
I0
sS'JJ'
p7037
I2
sS'NNP-NP'
p7038
I1
sg5
VDrug
p7039
sg7
I4
sS'VBN-VP'
p7040
I1
sS'JJ-NP'
p7041
I2
sS'NN'
p7042
I1
sS'VBG-VP'
p7043
I1
sS'NN-NP'
p7044
I1
sg12
I4
sS'NNS'
p7045
I2
sS'NNP'
p7046
I1
sa(dp7047
S'VBG'
p7048
I2
sg2
I0
sS'NNS-NP'
p7049
I1
sS'VBN'
p7050
I1
sg3
I0
sS'JJ'
p7051
I2
sS'NNP-NP'
p7052
I3
sg5
VDrug
p7053
sg7
I1
sS'VBN-VP'
p7054
I1
sS'JJ-NP'
p7055
I2
sS'NN'
p7056
I4
sS'VBG-VP'
p7057
I2
sS'NN-NP'
p7058
I4
sg12
I4
sS'NNS'
p7059
I1
sS'NNP'
p7060
I3
sa(dp7061
S'JJ-NP'
p7062
I2
sS'NN'
p7063
I6
sg2
I0
sS'IN-PP'
p7064
I1
sS'VBN'
p7065
I1
sg3
I1
sS'NN-NP'
p7066
I6
sg12
I0
sS'JJ'
p7067
I2
sS'IN'
p7068
I1
sg5
VDisorder
p7069
sg7
I2
sS'VBN-VP'
p7070
I1
sa(dp7071
g2
I0
sS'VBN'
p7072
I1
sg3
I0
sS'JJ'
p7073
I3
sS'IN'
p7074
I1
sS'NNP-NP'
p7075
I1
sg5
VDisorder
p7076
sg7
I0
sS'VBN-VP'
p7077
I1
sS'JJ-NP'
p7078
I3
sS'NN'
p7079
I7
sS'IN-PP'
p7080
I1
sS'NN-NP'
p7081
I7
sg12
I0
sS'NNP'
p7082
I1
sa(dp7083
g2
I1
sS'VBD'
p7084
I1
sS'VBD-VP'
p7085
I1
sS'VBN'
p7086
I1
sg3
I0
sS'JJ'
p7087
I2
sS'NNP-NP'
p7088
I1
sS'MD-VP'
p7089
I1
sg5
VDisorder
p7090
sg7
I2
sS'MD'
p7091
I1
sS'JJ-NP'
p7092
I2
sS'NN'
p7093
I3
sS'VBN-NP'
p7094
I1
sS'NNS-NP'
p7095
I2
sS'NN-NP'
p7096
I3
sg12
I7
sS'NNS'
p7097
I2
sS'NNP'
p7098
I1
sa(dp7099
g2
I1
sS'VBD'
p7100
I1
sS'VBD-VP'
p7101
I1
sS'VBN'
p7102
I1
sg3
I0
sS'JJ'
p7103
I2
sS'NNP-NP'
p7104
I1
sS'MD-VP'
p7105
I1
sg5
VDisorder
p7106
sg7
I2
sS'MD'
p7107
I1
sS'JJ-NP'
p7108
I2
sS'NN'
p7109
I3
sS'VBN-NP'
p7110
I1
sS'NNS-NP'
p7111
I2
sS'NN-NP'
p7112
I3
sg12
I7
sS'NNS'
p7113
I2
sS'NNP'
p7114
I1
sa(dp7115
g2
I1
sS'VBD'
p7116
I1
sS'VBD-VP'
p7117
I1
sS'VBN'
p7118
I1
sg3
I0
sS'JJ'
p7119
I1
sS'NNP-NP'
p7120
I1
sS'MD-VP'
p7121
I1
sg5
VDrug
p7122
sg7
I0
sS'MD'
p7123
I1
sS'JJ-NP'
p7124
I1
sS'NN'
p7125
I1
sS'VBN-NP'
p7126
I1
sS'NNS-NP'
p7127
I1
sS'NN-NP'
p7128
I1
sg12
I9
sS'NNS'
p7129
I1
sS'NNP'
p7130
I1
sa(dp7131
g2
I1
sS'VBD'
p7132
I1
sS'VBD-VP'
p7133
I1
sS'VBN'
p7134
I1
sg3
I0
sS'JJ'
p7135
I1
sS'NNP-NP'
p7136
I1
sS'MD-VP'
p7137
I1
sg5
VDrug
p7138
sg7
I0
sS'MD'
p7139
I1
sS'JJ-NP'
p7140
I1
sS'NN'
p7141
I1
sS'VBN-NP'
p7142
I1
sS'NNS-NP'
p7143
I1
sS'NN-NP'
p7144
I1
sg12
I9
sS'NNS'
p7145
I1
sS'NNP'
p7146
I1
sa(dp7147
g2
I1
sS'VBD'
p7148
I1
sS'VBD-VP'
p7149
I1
sS'VBN'
p7150
I1
sg3
I0
sS'JJ'
p7151
I1
sS'NNP-NP'
p7152
I1
sS'MD-VP'
p7153
I1
sg5
VDrug
p7154
sg7
I0
sS'MD'
p7155
I1
sS'JJ-NP'
p7156
I1
sS'NN'
p7157
I1
sS'VBN-NP'
p7158
I1
sS'NNS-NP'
p7159
I1
sS'NN-NP'
p7160
I1
sg12
I9
sS'NNS'
p7161
I1
sS'NNP'
p7162
I1
sa(dp7163
S'JJ-NP'
p7164
I1
sS'NN'
p7165
I2
sg2
I0
sS'NNS'
p7166
I1
sS'NNS-NP'
p7167
I1
sg3
I0
sS'NN-NP'
p7168
I2
sg12
I3
sS'JJ'
p7169
I1
sS'NNP-NP'
p7170
I1
sg5
VDrug
p7171
sg7
I0
sS'NNP'
p7172
I1
sa(dp7173
S'NN'
p7174
I2
sg2
I0
sS'VBN-NP'
p7175
I1
sS'NNS'
p7176
I1
sS'NNS-NP'
p7177
I1
sS'VBN'
p7178
I1
sg3
I0
sS'NN-NP'
p7179
I2
sS'VBP'
p7180
I1
sS'VBP-VP'
p7181
I1
sS'NNP-NP'
p7182
I1
sS'NNP'
p7183
I1
sg5
VDrug
p7184
sg7
I0
sg12
I4
sa(dp7185
g2
I0
sS'VBD'
p7186
I1
sS'VBD-VP'
p7187
I1
sS'VBN'
p7188
I1
sg3
I0
sS'JJ'
p7189
I1
sS'NNP-NP'
p7190
I1
sg5
VDisorder
p7191
sg7
I4
sS'VBN-VP'
p7192
I1
sS'JJ-NP'
p7193
I1
sS'NN'
p7194
I5
sS'NNS-NP'
p7195
I3
sS'NN-NP'
p7196
I5
sg12
I9
sS'NNS'
p7197
I3
sS'NNP'
p7198
I1
sa(dp7199
g2
I0
sS'VBD'
p7200
I2
sS'VBD-VP'
p7201
I2
sS'VBN'
p7202
I1
sg3
I0
sS'JJ'
p7203
I1
sS'NNP-NP'
p7204
I1
sg5
VDrug
p7205
sg7
I3
sS'VBN-VP'
p7206
I1
sS'JJ-NP'
p7207
I1
sS'NN'
p7208
I4
sS'NNS-NP'
p7209
I3
sS'NN-NP'
p7210
I4
sg12
I12
sS'NNS'
p7211
I3
sS'NNP'
p7212
I1
sa(dp7213
g2
I0
sS'VBD'
p7214
I2
sS'VBD-VP'
p7215
I2
sS'VBN'
p7216
I1
sg3
I0
sS'JJ'
p7217
I3
sS'NNP-NP'
p7218
I1
sg5
VDrug
p7219
sg7
I2
sS'VBN-VP'
p7220
I1
sS'JJ-NP'
p7221
I3
sS'NN'
p7222
I5
sS'NNS-NP'
p7223
I2
sS'NN-NP'
p7224
I5
sg12
I12
sS'NNS'
p7225
I2
sS'NNP'
p7226
I1
sa(dp7227
g2
I0
sS'VBD'
p7228
I1
sS'VBD-VP'
p7229
I1
sS'VBN'
p7230
I1
sg3
I0
sS'JJ'
p7231
I1
sS'NNP-NP'
p7232
I1
sg5
VDisorder
p7233
sg7
I4
sS'VBN-VP'
p7234
I1
sS'JJ-NP'
p7235
I1
sS'NN'
p7236
I2
sS'NNS-NP'
p7237
I3
sS'NN-NP'
p7238
I2
sg12
I9
sS'NNS'
p7239
I3
sS'NNP'
p7240
I1
sa(dp7241
g2
I0
sS'VBD'
p7242
I2
sS'VBD-VP'
p7243
I2
sS'VBN'
p7244
I1
sg3
I0
sS'JJ'
p7245
I1
sS'NNP-NP'
p7246
I1
sg5
VDrug
p7247
sg7
I3
sS'VBN-VP'
p7248
I1
sS'JJ-NP'
p7249
I1
sS'NN'
p7250
I1
sS'NNS-NP'
p7251
I3
sS'NN-NP'
p7252
I1
sg12
I13
sS'NNS'
p7253
I3
sS'NNP'
p7254
I1
sa(dp7255
g2
I0
sS'VBD'
p7256
I2
sS'VBD-VP'
p7257
I2
sS'VBN'
p7258
I1
sg3
I0
sS'JJ'
p7259
I4
sS'NNP-NP'
p7260
I1
sg5
VDrug
p7261
sg7
I2
sS'VBN-VP'
p7262
I1
sS'JJ-NP'
p7263
I4
sS'NN'
p7264
I2
sS'NNS-NP'
p7265
I2
sS'NN-NP'
p7266
I2
sg12
I13
sS'NNS'
p7267
I2
sS'NNP'
p7268
I1
sa(dp7269
S'VB'
p7270
I1
sS'VBG'
p7271
I1
sg2
I0
sS'VBG-VP'
p7272
I1
sS'VBN'
p7273
I1
sg3
I0
sS'JJ'
p7274
I1
sS'NNP-NP'
p7275
I1
sg5
VDrug
p7276
sg7
I2
sS'VBN-VP'
p7277
I1
sS'JJ-NP'
p7278
I1
sS'NN'
p7279
I2
sS'VB-VP'
p7280
I1
sS'NNS-NP'
p7281
I4
sS'NN-NP'
p7282
I2
sg12
I17
sS'NNS'
p7283
I4
sS'NNP'
p7284
I1
sa(dp7285
S'VB'
p7286
I1
sS'VBG'
p7287
I1
sg2
I0
sS'VBG-VP'
p7288
I1
sS'VBN'
p7289
I1
sg3
I0
sS'JJ'
p7290
I1
sS'NNP-NP'
p7291
I1
sg5
VDrug
p7292
sg7
I1
sS'VBN-VP'
p7293
I1
sS'JJ-NP'
p7294
I1
sS'NN'
p7295
I1
sS'VB-VP'
p7296
I1
sS'NNS-NP'
p7297
I4
sS'NN-NP'
p7298
I1
sg12
I17
sS'NNS'
p7299
I4
sS'NNP'
p7300
I1
sa(dp7301
S'VB'
p7302
I1
sS'VBG'
p7303
I1
sg2
I0
sS'VBG-VP'
p7304
I1
sS'VBN'
p7305
I1
sg3
I0
sS'JJ'
p7306
I2
sS'NNP-NP'
p7307
I1
sg5
VDrug
p7308
sg7
I0
sS'VBN-VP'
p7309
I1
sS'JJ-NP'
p7310
I2
sS'NN'
p7311
I7
sS'VB-VP'
p7312
I1
sS'NNS-NP'
p7313
I4
sS'NN-NP'
p7314
I7
sg12
I17
sS'NNS'
p7315
I4
sS'NNP'
p7316
I1
sa(dp7317
S'VB'
p7318
I1
sS'VBG'
p7319
I1
sg2
I0
sS'VBG-VP'
p7320
I1
sS'VBN'
p7321
I1
sg3
I0
sS'JJ'
p7322
I2
sS'NNP-NP'
p7323
I2
sg5
VDrug
p7324
sg7
I0
sS'VBN-VP'
p7325
I1
sS'JJ-NP'
p7326
I2
sS'NN'
p7327
I4
sS'VB-VP'
p7328
I1
sS'NNS-NP'
p7329
I5
sS'NN-NP'
p7330
I4
sg12
I18
sS'NNS'
p7331
I5
sS'NNP'
p7332
I2
sa(dp7333
S'VBG'
p7334
I1
sg2
I0
sS'VBD'
p7335
I1
sS'VBD-VP'
p7336
I1
sS'CD'
p7337
I3
sg3
I0
sS'JJ'
p7338
I2
sS'NNP-NP'
p7339
I2
sg5
VDrug
p7340
sg7
I5
sS'JJ-NP'
p7341
I2
sS'CD-NP'
p7342
I3
sS'NN'
p7343
I1
sS'NNS-NP'
p7344
I2
sS'VBG-VP'
p7345
I1
sS'NN-NP'
p7346
I1
sg12
I40
sS'NNS'
p7347
I2
sS'NNP'
p7348
I2
sa(dp7349
S'VBG'
p7350
I1
sg2
I0
sS'VBD'
p7351
I1
sS'VBD-VP'
p7352
I1
sS'CD'
p7353
I1
sg3
I0
sS'JJ'
p7354
I2
sS'NNP-NP'
p7355
I1
sg5
VDrug
p7356
sg7
I0
sS'JJ-NP'
p7357
I2
sS'CD-NP'
p7358
I1
sS'NN'
p7359
I3
sS'NNS-NP'
p7360
I3
sS'VBG-VP'
p7361
I1
sS'NN-NP'
p7362
I3
sg12
I40
sS'NNS'
p7363
I3
sS'NNP'
p7364
I1
sa(dp7365
S'VBG'
p7366
I1
sg2
I0
sS'VBD'
p7367
I1
sS'VBD-VP'
p7368
I1
sS'CD'
p7369
I3
sg3
I0
sS'JJ'
p7370
I2
sS'NNP-NP'
p7371
I2
sg5
VDrug
p7372
sg7
I5
sS'JJ-NP'
p7373
I2
sS'CD-NP'
p7374
I3
sS'NN'
p7375
I1
sS'NNS-NP'
p7376
I2
sS'VBG-VP'
p7377
I1
sS'NN-NP'
p7378
I1
sg12
I41
sS'NNS'
p7379
I2
sS'NNP'
p7380
I2
sa(dp7381
S'VBG'
p7382
I1
sg2
I0
sS'VBD'
p7383
I1
sS'VBD-VP'
p7384
I1
sS'CD'
p7385
I1
sg3
I0
sS'JJ'
p7386
I2
sS'NNP-NP'
p7387
I1
sg5
VDrug
p7388
sg7
I0
sS'JJ-NP'
p7389
I2
sS'CD-NP'
p7390
I1
sS'NN'
p7391
I2
sS'NNS-NP'
p7392
I3
sS'VBG-VP'
p7393
I1
sS'NN-NP'
p7394
I2
sg12
I41
sS'NNS'
p7395
I3
sS'NNP'
p7396
I1
sa(dp7397
S'VBG'
p7398
I2
sg2
I0
sS'VBN-NP'
p7399
I1
sS'NNS-NP'
p7400
I2
sS'VBN'
p7401
I1
sS'CD'
p7402
I2
sg3
I0
sS'JJ'
p7403
I3
sg5
VDisorder
p7404
sg7
I5
sS'JJ-NP'
p7405
I3
sS'CD-NP'
p7406
I2
sS'NN'
p7407
I3
sS'VBG-VP'
p7408
I2
sS'NN-NP'
p7409
I3
sg12
I8
sS'NNS'
p7410
I2
sa(dp7411
S'VBG'
p7412
I2
sg2
I0
sS'VBD'
p7413
I1
sS'NNS-NP'
p7414
I2
sS'VBN'
p7415
I1
sS'CD'
p7416
I2
sg3
I0
sS'JJ'
p7417
I1
sg5
VDrug
p7418
sg7
I4
sS'JJ-NP'
p7419
I1
sS'CD-NP'
p7420
I2
sS'NN'
p7421
I2
sS'VBN-NP'
p7422
I1
sS'VBG-VP'
p7423
I2
sS'NN-NP'
p7424
I2
sg12
I10
sS'VBD-VP'
p7425
I1
sS'NNS'
p7426
I2
sa(dp7427
S'VBG'
p7428
I2
sg2
I0
sS'VBD'
p7429
I1
sS'NNS-NP'
p7430
I2
sS'VBN'
p7431
I1
sS'CD'
p7432
I2
sg3
I0
sS'JJ'
p7433
I2
sg5
VDrug
p7434
sg7
I0
sS'JJ-NP'
p7435
I2
sS'CD-NP'
p7436
I2
sS'NN'
p7437
I2
sS'VBN-NP'
p7438
I1
sS'VBG-VP'
p7439
I2
sS'NN-NP'
p7440
I2
sg12
I10
sS'VBD-VP'
p7441
I1
sS'NNS'
p7442
I2
sa(dp7443
S'JJ-NP'
p7444
I1
sS'NN'
p7445
I2
sg2
I0
sS'NNS'
p7446
I1
sS'VBZ-VP'
p7447
I1
sS'NNS-NP'
p7448
I1
sg3
I0
sS'NN-NP'
p7449
I2
sg12
I3
sS'JJ'
p7450
I1
sS'VBZ'
p7451
I1
sg5
VDrug
p7452
sg7
I0
sa(dp7453
S'JJ-NP'
p7454
I1
sS'CD-NP'
p7455
I1
sg2
I0
sS'NNS'
p7456
I1
sS'RB'
p7457
I1
sS'NNS-NP'
p7458
I1
sS'VBN'
p7459
I1
sS'CD'
p7460
I3
sg3
I0
sS'NN-NP'
p7461
I3
sS'NN'
p7462
I5
sg12
I3
sS'JJ'
p7463
I1
sg5
VDisorder
p7464
sg7
I0
sS'VBN-VP'
p7465
I1
sa(dp7466
S'CD-NP'
p7467
I1
sg2
I0
sS'NNS'
p7468
I1
sS'NNS-NP'
p7469
I1
sS'VBN'
p7470
I1
sS'CD'
p7471
I1
sg3
I0
sg12
I0
sg5
VDrug
p7472
sg7
I0
sS'VBN-VP'
p7473
I1
sa(dp7474
S'JJ-NP'
p7475
I3
sS'NN'
p7476
I1
sg2
I0
sg3
I0
sS'NN-NP'
p7477
I1
sg12
I5
sS'JJ'
p7478
I3
sg5
VDrug
p7479
sg7
I1
sa(dp7480
S'VBG'
p7481
I1
sg2
I2
sS'VBG-VP'
p7482
I1
sS'VBN'
p7483
I1
sg3
I0
sS'VBZ'
p7484
I1
sg5
VDisorder
p7485
sg7
I1
sS'VBN-VP'
p7486
I1
sS'VBG-NP'
p7487
I1
sS'NN'
p7488
I1
sS'VBZ-VP'
p7489
I1
sS'NNS-NP'
p7490
I1
sS'NN-NP'
p7491
I1
sg12
I3
sS'NNS'
p7492
I1
sa(dp7493
S'VBG'
p7494
I1
sS'NN'
p7495
I2
sg2
I0
sS'NNS'
p7496
I1
sS'VBZ-VP'
p7497
I1
sS'NNS-NP'
p7498
I1
sS'VBN'
p7499
I1
sg3
I0
sS'NN-NP'
p7500
I2
sg12
I5
sS'VBZ'
p7501
I1
sS'VBG-NP'
p7502
I1
sg5
VDrug
p7503
sg7
I0
sS'VBN-VP'
p7504
I1
sa(dp7505
S'VBG'
p7506
I1
sg2
I1
sS'VBD'
p7507
I1
sS'VBG-VP'
p7508
I1
sS'VBN'
p7509
I1
sg3
I0
sS'JJ'
p7510
I1
sS'VBZ'
p7511
I1
sS'RB-VP'
p7512
I1
sg5
VDisorder
p7513
sg7
I4
sS'VBN-VP'
p7514
I1
sS'JJ-NP'
p7515
I1
sS'VBG-NP'
p7516
I1
sS'NN'
p7517
I2
sS'VBZ-VP'
p7518
I1
sS'NNS-NP'
p7519
I1
sS'NN-NP'
p7520
I2
sg12
I14
sS'RB'
p7521
I1
sS'VBD-VP'
p7522
I1
sS'NNS'
p7523
I1
sa(dp7524
S'VBG'
p7525
I3
sg2
I0
sS'VBD'
p7526
I1
sS'VBG-VP'
p7527
I2
sS'VBN'
p7528
I1
sg3
I0
sS'JJ'
p7529
I1
sS'VBZ'
p7530
I1
sS'RB-VP'
p7531
I1
sg5
VDrug
p7532
sg7
I1
sS'VBN-VP'
p7533
I1
sS'JJ-NP'
p7534
I1
sS'VBG-NP'
p7535
I1
sS'NN'
p7536
I1
sS'VBZ-VP'
p7537
I1
sS'NNS-NP'
p7538
I1
sS'NN-NP'
p7539
I1
sg12
I20
sS'RB'
p7540
I1
sS'VBD-VP'
p7541
I1
sS'NNS'
p7542
I1
sa(dp7543
S'VBP-VP'
p7544
I1
sS'JJ-NP'
p7545
I2
sg2
I0
sS'NN'
p7546
I1
sS'NNS'
p7547
I1
sS'NNS-NP'
p7548
I1
sS'VBN'
p7549
I1
sg3
I0
sS'NN-NP'
p7550
I1
sS'VBP'
p7551
I1
sg12
I4
sS'JJ'
p7552
I2
sg5
VDrug
p7553
sg7
I1
sS'VBN-VP'
p7554
I1
sa(dp7555
S'JJ-NP'
p7556
I2
sS'NN'
p7557
I2
sg2
I0
sS'NNS'
p7558
I1
sS'NNS-NP'
p7559
I1
sS'VBN'
p7560
I1
sg3
I0
sS'NN-NP'
p7561
I2
sg12
I6
sS'JJ'
p7562
I2
sg5
VDrug
p7563
sg7
I1
sS'VBN-VP'
p7564
I1
sa(dp7565
S'VBP-VP'
p7566
I1
sS'JJ-NP'
p7567
I1
sS'NN'
p7568
I1
sg2
I1
sS'NNS'
p7569
I1
sS'NNS-NP'
p7570
I1
sg3
I0
sS'NN-NP'
p7571
I1
sS'VBP'
p7572
I1
sg12
I5
sS'JJ'
p7573
I1
sS'NNP-NP'
p7574
I1
sg5
VDrug
p7575
sg7
I2
sS'NNP'
p7576
I1
sa(dp7577
S'VBP-VP'
p7578
I1
sS'JJ-NP'
p7579
I1
sS'NN'
p7580
I4
sg2
I0
sS'NNS'
p7581
I1
sS'NNS-NP'
p7582
I1
sg3
I0
sS'NN-NP'
p7583
I4
sS'VBP'
p7584
I1
sg12
I6
sS'JJ'
p7585
I1
sS'NNP-NP'
p7586
I1
sg5
VDisorder
p7587
sg7
I0
sS'NNP'
p7588
I1
sa(dp7589
g2
I0
sS'VBD'
p7590
I1
sS'VBD-VP'
p7591
I1
sS'VBN'
p7592
I1
sS'CD'
p7593
I7
sg3
I0
sS'JJ'
p7594
I2
sS'IN'
p7595
I1
sg5
VDrug
p7596
sg7
I2
sS'JJ-NP'
p7597
I2
sS'CD-NP'
p7598
I1
sS'NN'
p7599
I5
sS'NNS-NP'
p7600
I1
sS'NN-NP'
p7601
I1
sg12
I1
sS'NNP'
p7602
I4
sS'NNS'
p7603
I2
sS'PRP'
p7604
I1
sa(dp7605
g2
I0
sS'VBD'
p7606
I1
sS'VBD-VP'
p7607
I1
sS'VBN'
p7608
I1
sS'CD'
p7609
I5
sg3
I0
sS'JJ'
p7610
I3
sS'IN'
p7611
I1
sg5
VDrug
p7612
sg7
I2
sS'JJ-NP'
p7613
I2
sS'CD-NP'
p7614
I1
sS'NN'
p7615
I2
sS'NNS-NP'
p7616
I1
sS'NN-NP'
p7617
I1
sg12
I1
sS'NNP'
p7618
I4
sS'NNS'
p7619
I1
sS'PRP'
p7620
I1
sa(dp7621
g2
I0
sS'VBD'
p7622
I1
sS'VBD-VP'
p7623
I1
sS'VBN'
p7624
I1
sS'CD'
p7625
I3
sg3
I0
sS'JJ'
p7626
I2
sS'IN'
p7627
I1
sg5
VDrug
p7628
sg7
I2
sS'JJ-NP'
p7629
I2
sS'CD-NP'
p7630
I1
sS'NN'
p7631
I1
sS'NNS-NP'
p7632
I1
sS'NN-NP'
p7633
I1
sg12
I1
sS'NNS'
p7634
I1
sS'NNP'
p7635
I1
sa(dp7636
g2
I1
sS'VBD'
p7637
I3
sS'VBD-VP'
p7638
I1
sS'CD'
p7639
I7
sg3
I0
sS'JJ'
p7640
I2
sS'IN'
p7641
I1
sg5
VDrug
p7642
sg7
I2
sS'JJ-NP'
p7643
I2
sS'CD-NP'
p7644
I1
sS'NN'
p7645
I6
sS'NNS-NP'
p7646
I1
sS'NN-NP'
p7647
I1
sg12
I2
sS'NNP'
p7648
I1
sS'NNS'
p7649
I1
sS'PRP'
p7650
I1
sa(dp7651
g2
I1
sS'VBD'
p7652
I2
sS'VBD-VP'
p7653
I1
sS'CD'
p7654
I5
sg3
I0
sS'JJ'
p7655
I3
sS'IN'
p7656
I1
sg5
VDrug
p7657
sg7
I2
sS'JJ-NP'
p7658
I2
sS'CD-NP'
p7659
I1
sS'NN'
p7660
I3
sS'NNS-NP'
p7661
I1
sS'NN-NP'
p7662
I1
sg12
I2
sS'NNP'
p7663
I1
sS'NNS'
p7664
I1
sS'PRP'
p7665
I1
sa(dp7666
g2
I1
sS'VBD'
p7667
I1
sS'VBD-VP'
p7668
I1
sS'CD'
p7669
I3
sg3
I0
sS'JJ'
p7670
I2
sS'IN'
p7671
I1
sg5
VDrug
p7672
sg7
I2
sS'JJ-NP'
p7673
I2
sS'CD-NP'
p7674
I1
sS'NN'
p7675
I2
sS'NNS-NP'
p7676
I1
sS'NN-NP'
p7677
I1
sg12
I2
sS'NNS'
p7678
I1
sS'NNP'
p7679
I1
sa(dp7680
S'VB'
p7681
I1
sg2
I0
sS'VBD'
p7682
I1
sS'VBD-VP'
p7683
I1
sg3
I0
sS'JJ'
p7684
I1
sS'RB-VP'
p7685
I1
sS'MD-VP'
p7686
I1
sg5
VDrug
p7687
sg7
I3
sS'MD'
p7688
I1
sS'JJ-NP'
p7689
I1
sS'VB-VP'
p7690
I1
sS'NN'
p7691
I3
sS'NN-NP'
p7692
I3
sg12
I4
sS'RB'
p7693
I1
sa(dp7694
S'JJ-NP'
p7695
I1
sS'NN'
p7696
I3
sg2
I0
sS'VBD'
p7697
I1
sS'VBD-VP'
p7698
I1
sS'VB'
p7699
I1
sg3
I0
sS'NN-NP'
p7700
I3
sg12
I5
sS'JJ'
p7701
I1
sS'VB-VP'
p7702
I1
sg5
VDrug
p7703
sg7
I3
sa(dp7704
S'VBG'
p7705
I2
sg2
I1
sS'VBN'
p7706
I1
sS'CD'
p7707
I8
sg3
I0
sS'JJ'
p7708
I2
sS'IN'
p7709
I1
sS'NNP-NP'
p7710
I2
sg5
VDrug
p7711
sg7
I8
sS'VBN-VP'
p7712
I1
sS'JJ-NP'
p7713
I2
sS'VBG-NP'
p7714
I2
sS'CD-NP'
p7715
I8
sS'NN'
p7716
I3
sS'IN-PP'
p7717
I1
sS'NNS-NP'
p7718
I2
sS'NN-NP'
p7719
I3
sg12
I0
sS'NNS'
p7720
I2
sS'NNP'
p7721
I2
sa(dp7722
S'VBG'
p7723
I2
sg2
I1
sS'VBN'
p7724
I1
sS'CD'
p7725
I4
sg3
I0
sS'JJ'
p7726
I2
sS'IN'
p7727
I1
sS'NNP-NP'
p7728
I1
sg5
VDrug
p7729
sg7
I5
sS'VBN-VP'
p7730
I1
sS'JJ-NP'
p7731
I2
sS'VBG-NP'
p7732
I2
sS'CD-NP'
p7733
I4
sS'NN'
p7734
I2
sS'IN-PP'
p7735
I1
sS'NNS-NP'
p7736
I2
sS'NN-NP'
p7737
I2
sg12
I0
sS'NNS'
p7738
I2
sS'NNP'
p7739
I1
sa(dp7740
S'VBG'
p7741
I2
sg2
I0
sS'VBN'
p7742
I1
sS'CD'
p7743
I8
sg3
I0
sS'JJ'
p7744
I2
sS'IN'
p7745
I1
sS'NNP-NP'
p7746
I2
sg5
VDisorder
p7747
sg7
I0
sS'VBN-VP'
p7748
I1
sS'JJ-NP'
p7749
I2
sS'VBG-NP'
p7750
I2
sS'CD-NP'
p7751
I8
sS'NN'
p7752
I2
sS'IN-PP'
p7753
I1
sS'NNS-NP'
p7754
I2
sS'NN-NP'
p7755
I2
sg12
I9
sS'NNS'
p7756
I2
sS'NNP'
p7757
I2
sa(dp7758
S'VBG'
p7759
I2
sg2
I0
sS'VBN'
p7760
I1
sS'CD'
p7761
I4
sg3
I0
sS'JJ'
p7762
I2
sS'IN'
p7763
I1
sS'NNP-NP'
p7764
I1
sg5
VDisorder
p7765
sg7
I0
sS'VBN-VP'
p7766
I1
sS'JJ-NP'
p7767
I2
sS'VBG-NP'
p7768
I2
sS'CD-NP'
p7769
I4
sS'NN'
p7770
I1
sS'IN-PP'
p7771
I1
sS'NNS-NP'
p7772
I2
sS'NN-NP'
p7773
I1
sg12
I17
sS'NNS'
p7774
I2
sS'NNP'
p7775
I1
sa(dp7776
g2
I2
sS'VBD'
p7777
I1
sS'VBD-VP'
p7778
I1
sS'VBN'
p7779
I1
sS'CD'
p7780
I2
sg3
I0
sS'JJ'
p7781
I3
sS'NNP-NP'
p7782
I2
sg5
VDrug
p7783
sg7
I7
sS'VBN-VP'
p7784
I1
sS'JJ-NP'
p7785
I3
sS'CD-NP'
p7786
I2
sS'NN'
p7787
I2
sS'NNS-NP'
p7788
I1
sS'NN-NP'
p7789
I2
sg12
I1
sS'NNS'
p7790
I1
sS'NNP'
p7791
I2
sa(dp7792
g2
I2
sS'VBD'
p7793
I1
sS'VBD-VP'
p7794
I1
sS'VBN'
p7795
I1
sS'CD'
p7796
I1
sg3
I0
sS'JJ'
p7797
I3
sS'NNP-NP'
p7798
I1
sg5
VDrug
p7799
sg7
I5
sS'VBN-VP'
p7800
I1
sS'JJ-NP'
p7801
I3
sS'CD-NP'
p7802
I1
sS'NN'
p7803
I1
sS'NNS-NP'
p7804
I1
sS'NN-NP'
p7805
I1
sg12
I1
sS'NNS'
p7806
I1
sS'NNP'
p7807
I1
sa(dp7808
g2
I1
sS'VBN-NP'
p7809
I1
sS'VBD-VP'
p7810
I1
sS'VBN'
p7811
I1
sS'CD'
p7812
I2
sg3
I0
sS'JJ'
p7813
I1
sS'NNP-NP'
p7814
I2
sg5
VDisorder
p7815
sg7
I1
sS'VBN-VP'
p7816
I1
sS'JJ-NP'
p7817
I1
sS'CD-NP'
p7818
I2
sS'NN'
p7819
I2
sS'VBD'
p7820
I1
sS'NNS-NP'
p7821
I1
sS'NN-NP'
p7822
I2
sg12
I3
sS'NNS'
p7823
I1
sS'NNP'
p7824
I2
sa(dp7825
g2
I1
sS'VBN-NP'
p7826
I1
sS'VBD-VP'
p7827
I1
sS'VBN'
p7828
I1
sS'CD'
p7829
I1
sg3
I0
sS'JJ'
p7830
I1
sS'NNP-NP'
p7831
I1
sg5
VDisorder
p7832
sg7
I1
sS'VBN-VP'
p7833
I1
sS'JJ-NP'
p7834
I1
sS'CD-NP'
p7835
I1
sS'NN'
p7836
I1
sS'VBD'
p7837
I1
sS'NNS-NP'
p7838
I1
sS'NN-NP'
p7839
I1
sg12
I8
sS'NNS'
p7840
I1
sS'NNP'
p7841
I1
sa(dp7842
g2
I0
sS'VBN-NP'
p7843
I1
sS'VBD-VP'
p7844
I1
sS'VBN'
p7845
I1
sS'CD'
p7846
I2
sg3
I0
sS'JJ'
p7847
I1
sS'NNP-NP'
p7848
I2
sg5
VDisorder
p7849
sg7
I1
sS'VBN-VP'
p7850
I1
sS'JJ-NP'
p7851
I1
sS'CD-NP'
p7852
I2
sS'NN'
p7853
I2
sS'VBD'
p7854
I1
sS'NNS-NP'
p7855
I1
sS'NN-NP'
p7856
I2
sg12
I3
sS'NNS'
p7857
I1
sS'NNP'
p7858
I2
sa(dp7859
g2
I0
sS'VBN-NP'
p7860
I1
sS'VBD-VP'
p7861
I1
sS'VBN'
p7862
I1
sS'CD'
p7863
I1
sg3
I0
sS'JJ'
p7864
I1
sS'NNP-NP'
p7865
I1
sg5
VDisorder
p7866
sg7
I1
sS'VBN-VP'
p7867
I1
sS'JJ-NP'
p7868
I1
sS'CD-NP'
p7869
I1
sS'NN'
p7870
I1
sS'VBD'
p7871
I1
sS'NNS-NP'
p7872
I1
sS'NN-NP'
p7873
I1
sg12
I8
sS'NNS'
p7874
I1
sS'NNP'
p7875
I1
sa(dp7876
S'VB'
p7877
I1
sg2
I2
sS'CD'
p7878
I2
sg3
I0
sS'VBP'
p7879
I1
sS'VBP-VP'
p7880
I1
sS'JJ'
p7881
I2
sS'VBZ'
p7882
I1
sS'NNP-NP'
p7883
I1
sg5
VDrug
p7884
sg7
I4
sS'CD-NP'
p7885
I2
sS'JJ-NP'
p7886
I2
sS'VB-VP'
p7887
I1
sS'NN'
p7888
I3
sS'VBZ-VP'
p7889
I1
sS'NNS-NP'
p7890
I1
sS'NN-NP'
p7891
I3
sg12
I0
sS'NNS'
p7892
I1
sS'NNP'
p7893
I1
sa(dp7894
g2
I2
sS'CD'
p7895
I2
sg3
I0
sS'VBP'
p7896
I1
sS'VBP-VP'
p7897
I1
sS'JJ'
p7898
I2
sS'VBZ'
p7899
I1
sS'NNP-NP'
p7900
I1
sg5
VDrug
p7901
sg7
I4
sS'JJ-NP'
p7902
I2
sS'CD-NP'
p7903
I2
sS'NN'
p7904
I3
sS'VBZ-VP'
p7905
I1
sS'NNS-NP'
p7906
I1
sS'NN-NP'
p7907
I3
sg12
I2
sS'NNS'
p7908
I1
sS'NNP'
p7909
I1
sa(dp7910
S'VBG'
p7911
I1
sg2
I0
sS'VBN'
p7912
I1
sg3
I0
sS'JJ'
p7913
I1
sS'NNP-NP'
p7914
I1
sg5
VDrug
p7915
sg7
I4
sS'VBN-VP'
p7916
I1
sS'JJ-NP'
p7917
I1
sS'VBG-NP'
p7918
I1
sS'NN'
p7919
I3
sS'NNS-NP'
p7920
I1
sS'NN-NP'
p7921
I3
sg12
I4
sS'NNS'
p7922
I1
sS'NNP'
p7923
I1
sa(dp7924
S'VBG'
p7925
I1
sg2
I0
sS'VBN'
p7926
I1
sg3
I0
sS'JJ'
p7927
I1
sS'NNP-NP'
p7928
I1
sg5
VDrug
p7929
sg7
I3
sS'VBN-VP'
p7930
I1
sS'JJ-NP'
p7931
I1
sS'VBG-NP'
p7932
I1
sS'NN'
p7933
I2
sS'NNS-NP'
p7934
I1
sS'NN-NP'
p7935
I2
sg12
I4
sS'NNS'
p7936
I1
sS'NNP'
p7937
I1
sa(dp7938
S'VBG'
p7939
I1
sg2
I0
sS'VBN'
p7940
I1
sg3
I0
sS'JJ'
p7941
I1
sS'NNP-NP'
p7942
I1
sg5
VDrug
p7943
sg7
I2
sS'VBN-VP'
p7944
I1
sS'JJ-NP'
p7945
I1
sS'VBG-NP'
p7946
I1
sS'NN'
p7947
I2
sS'NNS-NP'
p7948
I1
sS'NN-NP'
p7949
I2
sg12
I4
sS'NNS'
p7950
I1
sS'NNP'
p7951
I1
sa(dp7952
S'VBG'
p7953
I1
sg2
I0
sS'VBN'
p7954
I1
sg3
I0
sS'JJ'
p7955
I2
sS'NNP-NP'
p7956
I1
sg5
VDrug
p7957
sg7
I1
sS'VBN-VP'
p7958
I1
sS'JJ-NP'
p7959
I2
sS'VBG-NP'
p7960
I1
sS'NN'
p7961
I1
sS'NNS-NP'
p7962
I1
sS'NN-NP'
p7963
I1
sg12
I4
sS'NNS'
p7964
I1
sS'NNP'
p7965
I1
sa(dp7966
S'VBG'
p7967
I1
sg2
I0
sS'VBN'
p7968
I1
sg3
I0
sS'JJ'
p7969
I2
sS'NNP-NP'
p7970
I1
sg5
VDrug
p7971
sg7
I0
sS'VBN-VP'
p7972
I1
sS'JJ-NP'
p7973
I2
sS'VBG-NP'
p7974
I1
sS'NN'
p7975
I5
sS'NNS-NP'
p7976
I2
sS'NN-NP'
p7977
I5
sg12
I4
sS'NNS'
p7978
I2
sS'NNP'
p7979
I1
sa(dp7980
S'VBG-VP'
p7981
I1
sS'JJ-NP'
p7982
I1
sS'VBG'
p7983
I1
sS'NN'
p7984
I3
sg2
I1
sS'NNS'
p7985
I1
sS'NNS-NP'
p7986
I1
sS'VBN'
p7987
I1
sg3
I0
sS'NN-NP'
p7988
I3
sg12
I5
sS'JJ'
p7989
I1
sg5
VDrug
p7990
sg7
I3
sS'VBN-VP'
p7991
I1
sa(dp7992
S'VBG'
p7993
I1
sg2
I1
sS'VBG-VP'
p7994
I1
sS'VBN'
p7995
I1
sg3
I0
sS'JJ'
p7996
I1
sS'NNP-NP'
p7997
I1
sg5
VDrug
p7998
sg7
I1
sS'VBN-VP'
p7999
I1
sS'JJ-NP'
p8000
I1
sS'NN'
p8001
I1
sS'NNS-NP'
p8002
I1
sS'NN-NP'
p8003
I1
sg12
I5
sS'NNS'
p8004
I1
sS'NNP'
p8005
I1
sa(dp8006
S'JJ-NP'
p8007
I1
sS'NN'
p8008
I1
sg2
I0
sS'NNS'
p8009
I1
sS'NNS-NP'
p8010
I1
sS'VBN'
p8011
I1
sg3
I0
sS'NN-NP'
p8012
I1
sg12
I5
sS'JJ'
p8013
I1
sS'NNP-NP'
p8014
I1
sS'NNP'
p8015
I1
sg5
VDrug
p8016
sg7
I1
sS'VBN-VP'
p8017
I1
sa(dp8018
S'VBG-VP'
p8019
I1
sS'JJ-NP'
p8020
I1
sS'VBG'
p8021
I1
sS'NN'
p8022
I3
sg2
I0
sS'NNS'
p8023
I1
sS'NNS-NP'
p8024
I1
sS'VBN'
p8025
I1
sg3
I0
sS'NN-NP'
p8026
I3
sg12
I5
sS'JJ'
p8027
I1
sg5
VDrug
p8028
sg7
I0
sS'VBN-VP'
p8029
I1
sa(dp8030
g2
I0
sS'VBN'
p8031
I1
sg3
I0
sS'JJ'
p8032
I1
sg5
VDrug
p8033
sg7
I5
sS'VBN-VP'
p8034
I1
sS'JJ-NP'
p8035
I1
sS'NN'
p8036
I4
sS'NNS-NP'
p8037
I3
sS'NN-NP'
p8038
I4
sg12
I1
sS'NNS'
p8039
I3
sa(dp8040
g2
I0
sS'VBN'
p8041
I1
sg3
I0
sS'JJ'
p8042
I3
sg5
VDrug
p8043
sg7
I2
sS'VBN-VP'
p8044
I1
sS'JJ-NP'
p8045
I3
sS'NN'
p8046
I1
sS'NNS-NP'
p8047
I2
sS'NN-NP'
p8048
I1
sg12
I1
sS'NNS'
p8049
I2
sa(dp8050
S'JJ-NP'
p8051
I1
sS'NN'
p8052
I2
sg2
I0
sS'IN-PP'
p8053
I1
sS'VBN'
p8054
I1
sg3
I0
sS'NN-NP'
p8055
I2
sS'VBP'
p8056
I1
sg12
I3
sS'JJ'
p8057
I1
sS'IN'
p8058
I1
sS'VBN-VP'
p8059
I1
sg5
VDrug
p8060
sg7
I0
sS'VBP-VP'
p8061
I1
sa(dp8062
S'NN'
p8063
I2
sg2
I0
sS'IN-PP'
p8064
I1
sS'VBZ-VP'
p8065
I1
sS'VBN'
p8066
I1
sg3
I0
sS'NN-NP'
p8067
I2
sg12
I4
sS'IN'
p8068
I1
sS'VBZ'
p8069
I1
sg5
VDrug
p8070
sg7
I0
sS'VBN-VP'
p8071
I1
sa(dp8072
S'JJ-NP'
p8073
I1
sS'NN'
p8074
I1
sg2
I0
sS'IN-PP'
p8075
I1
sS'VBZ-VP'
p8076
I1
sS'VBN'
p8077
I1
sg3
I0
sS'NN-NP'
p8078
I1
sg12
I5
sS'JJ'
p8079
I1
sS'IN'
p8080
I1
sS'VBZ'
p8081
I1
sg5
VDrug
p8082
sg7
I0
sS'VBN-VP'
p8083
I1
sa(dp8084
S'JJ-NP'
p8085
I1
sS'NN'
p8086
I4
sg2
I0
sS'IN-PP'
p8087
I1
sS'VBZ-VP'
p8088
I1
sS'VBN'
p8089
I1
sg3
I0
sS'NN-NP'
p8090
I4
sg12
I7
sS'JJ'
p8091
I1
sS'IN'
p8092
I1
sS'VBZ'
p8093
I1
sg5
VDrug
p8094
sg7
I0
sS'VBN-VP'
p8095
I1
sa(dp8096
S'VBG'
p8097
I1
sg2
I2
sS'NNS-NP'
p8098
I5
sS'VBN'
p8099
I1
sg3
I0
sS'JJ'
p8100
I2
sS'MD-VP'
p8101
I1
sg5
VDrug
p8102
sg7
I2
sS'VBN-VP'
p8103
I1
sS'MD'
p8104
I1
sS'JJ-NP'
p8105
I2
sS'VBG-NP'
p8106
I1
sS'NN'
p8107
I3
sS'VBG-VP'
p8108
I1
sS'NN-NP'
p8109
I3
sg12
I11
sS'NNS'
p8110
I5
sa(dp8111
S'VBG'
p8112
I1
sg2
I2
sS'NNS-NP'
p8113
I5
sS'VBN'
p8114
I1
sg3
I0
sS'VBP'
p8115
I1
sS'VBP-VP'
p8116
I1
sS'JJ'
p8117
I2
sS'MD-VP'
p8118
I1
sg5
VDrug
p8119
sg7
I1
sS'VBN-VP'
p8120
I1
sS'MD'
p8121
I1
sS'JJ-NP'
p8122
I2
sS'VBG-NP'
p8123
I1
sS'NN'
p8124
I2
sS'VBG-VP'
p8125
I1
sS'NN-NP'
p8126
I2
sg12
I11
sS'NNS'
p8127
I5
sa(dp8128
S'NN'
p8129
I2
sg2
I0
sS'VBN'
p8130
I1
sg3
I0
sS'NN-NP'
p8131
I2
sg12
I0
sg5
VDrug
p8132
sg7
I0
sS'VBN-VP'
p8133
I1
sa(dp8134
S'NN'
p8135
I2
sg2
I0
sS'VBN'
p8136
I1
sg3
I0
sS'NN-NP'
p8137
I2
sg12
I0
sg5
VDrug
p8138
sg7
I0
sS'VBN-VP'
p8139
I1
sa(dp8140
g2
I2
sS'VBN'
p8141
I1
sS'CD'
p8142
I3
sg3
I0
sS'JJ'
p8143
I1
sS'VBZ'
p8144
I1
sg5
VDisorder
p8145
sg7
I3
sS'VBN-VP'
p8146
I1
sS'JJ-NP'
p8147
I1
sS'CD-NP'
p8148
I3
sS'NN'
p8149
I1
sS'VBZ-VP'
p8150
I1
sS'NNS-NP'
p8151
I1
sS'NN-NP'
p8152
I1
sg12
I2
sS'NNS'
p8153
I1
sa(dp8154
S'JJ-NP'
p8155
I2
sS'CD-NP'
p8156
I1
sg2
I0
sS'NNS'
p8157
I2
sS'NNS-NP'
p8158
I2
sS'CD'
p8159
I1
sg3
I0
sS'NN-NP'
p8160
I1
sS'NN'
p8161
I1
sg12
I2
sS'JJ'
p8162
I2
sg5
VDrug
p8163
sg7
I4
sa(dp8164
g2
I0
sS'VBN'
p8165
I1
sg3
I0
sS'JJ'
p8166
I2
sS'NNP-NP'
p8167
I1
sg5
VDrug
p8168
sg7
I2
sS'VBN-VP'
p8169
I1
sS'JJ-NP'
p8170
I2
sS'NN'
p8171
I3
sS'NNS-NP'
p8172
I1
sS'NN-NP'
p8173
I3
sg12
I0
sS'NNS'
p8174
I1
sS'NNP'
p8175
I1
sa(dp8176
g2
I0
sS'VBN'
p8177
I1
sg3
I0
sS'JJ'
p8178
I2
sS'NNP-NP'
p8179
I1
sg5
VDrug
p8180
sg7
I2
sS'VBN-VP'
p8181
I1
sS'JJ-NP'
p8182
I2
sS'NN'
p8183
I3
sS'NNS-NP'
p8184
I1
sS'NN-NP'
p8185
I3
sg12
I3
sS'NNS'
p8186
I1
sS'NNP'
p8187
I1
sa(dp8188
g2
I0
sS'VBN'
p8189
I1
sg3
I0
sS'JJ'
p8190
I2
sS'NNP-NP'
p8191
I1
sg5
VDrug
p8192
sg7
I2
sS'VBN-VP'
p8193
I1
sS'JJ-NP'
p8194
I2
sS'NN'
p8195
I3
sS'NNS-NP'
p8196
I1
sS'NN-NP'
p8197
I3
sg12
I4
sS'NNS'
p8198
I1
sS'NNP'
p8199
I1
sa(dp8200
S'VB'
p8201
I1
sg2
I1
sS'VBD'
p8202
I1
sS'VBD-VP'
p8203
I1
sS'RB-NP'
p8204
I1
sg3
I0
sS'JJ'
p8205
I1
sS'NNP-NP'
p8206
I2
sg5
VDisorder
p8207
sg7
I2
sS'JJ-NP'
p8208
I1
sS'NN'
p8209
I1
sS'VB-VP'
p8210
I1
sS'NNS-NP'
p8211
I1
sS'NN-NP'
p8212
I1
sg12
I5
sS'RB'
p8213
I1
sS'NNS'
p8214
I1
sS'NNP'
p8215
I2
sa(dp8216
S'VB'
p8217
I1
sg2
I0
sS'VBD'
p8218
I1
sS'VBD-VP'
p8219
I1
sS'RB-NP'
p8220
I1
sS'VBN'
p8221
I1
sg3
I0
sS'JJ'
p8222
I1
sS'NNP-NP'
p8223
I1
sg5
VDisorder
p8224
sg7
I1
sS'VBN-VP'
p8225
I1
sS'JJ-NP'
p8226
I1
sS'NN'
p8227
I3
sS'VB-VP'
p8228
I1
sS'NNS-NP'
p8229
I1
sS'NN-NP'
p8230
I3
sg12
I5
sS'RB'
p8231
I1
sS'NNS'
p8232
I1
sS'NNP'
p8233
I1
sa(dp8234
S'VB'
p8235
I1
sg2
I0
sS'VBD'
p8236
I1
sS'VBD-VP'
p8237
I1
sS'RB-NP'
p8238
I1
sS'VBN'
p8239
I1
sg3
I0
sS'JJ'
p8240
I1
sS'NNP-NP'
p8241
I3
sg5
VDisorder
p8242
sg7
I0
sS'VBN-VP'
p8243
I1
sS'JJ-NP'
p8244
I1
sS'NN'
p8245
I4
sS'VB-VP'
p8246
I1
sS'NNS-NP'
p8247
I1
sS'NN-NP'
p8248
I4
sg12
I5
sS'RB'
p8249
I1
sS'NNS'
p8250
I1
sS'NNP'
p8251
I3
sa(dp8252
S'VB'
p8253
I1
sS'VBG'
p8254
I1
sg2
I0
sS'VBG-VP'
p8255
I1
sS'VBN'
p8256
I1
sg3
I0
sS'JJ'
p8257
I1
sg5
VDisorder
p8258
sg7
I0
sS'VBN-VP'
p8259
I1
sS'JJ-NP'
p8260
I1
sS'NN'
p8261
I1
sS'VB-VP'
p8262
I1
sS'NNS-NP'
p8263
I1
sS'NN-NP'
p8264
I1
sg12
I1
sS'NNS'
p8265
I1
sa(dp8266
g2
I0
sg3
I0
sS'JJ'
p8267
I3
sS'NNP-NP'
p8268
I1
sg5
VDrug
p8269
sg7
I0
sS'JJ-NP'
p8270
I3
sS'NN'
p8271
I2
sS'NNS-NP'
p8272
I1
sS'NN-NP'
p8273
I2
sg12
I2
sS'NNS'
p8274
I1
sS'NNP'
p8275
I1
sa(dp8276
g2
I0
sg3
I0
sS'JJ'
p8277
I3
sS'NNP-NP'
p8278
I1
sg5
VDrug
p8279
sg7
I0
sS'JJ-NP'
p8280
I3
sS'NN'
p8281
I1
sS'NNS-NP'
p8282
I1
sS'NN-NP'
p8283
I1
sg12
I4
sS'NNS'
p8284
I1
sS'NNP'
p8285
I1
sa(dp8286
S'JJ-NP'
p8287
I3
sS'NN'
p8288
I1
sg2
I0
sS'NNS'
p8289
I1
sS'NNS-NP'
p8290
I1
sg3
I0
sS'NN-NP'
p8291
I1
sg12
I5
sS'JJ'
p8292
I3
sS'NNP-NP'
p8293
I1
sg5
VDrug
p8294
sg7
I0
sS'NNP'
p8295
I1
sa(dp8296
g2
I2
sS'VBD'
p8297
I2
sS'VBD-VP'
p8298
I2
sS'CD'
p8299
I1
sg3
I0
sS'JJ'
p8300
I2
sS'NNP-NP'
p8301
I1
sg5
VDrug
p8302
sg7
I3
sS'JJ-NP'
p8303
I2
sS'CD-NP'
p8304
I1
sS'NN'
p8305
I2
sS'NNS-NP'
p8306
I1
sS'NN-NP'
p8307
I2
sg12
I1
sS'NNS'
p8308
I1
sS'NNP'
p8309
I1
sa(dp8310
S'JJ-NP'
p8311
I3
sS'NN'
p8312
I2
sg2
I1
sS'VBD'
p8313
I1
sS'NNS'
p8314
I1
sS'NNS-NP'
p8315
I1
sg3
I0
sS'NN-NP'
p8316
I2
sg12
I1
sS'JJ'
p8317
I3
sS'VBD-VP'
p8318
I1
sS'NNP-NP'
p8319
I1
sg5
VDrug
p8320
sg7
I3
sS'NNP'
p8321
I1
sa(dp8322
g2
I2
sS'VBD'
p8323
I2
sS'VBD-VP'
p8324
I2
sS'CD'
p8325
I1
sg3
I0
sS'JJ'
p8326
I2
sS'NNP-NP'
p8327
I1
sg5
VDrug
p8328
sg7
I3
sS'JJ-NP'
p8329
I2
sS'CD-NP'
p8330
I1
sS'NN'
p8331
I2
sS'NNS-NP'
p8332
I1
sS'NN-NP'
p8333
I2
sg12
I3
sS'NNS'
p8334
I1
sS'NNP'
p8335
I1
sa(dp8336
g2
I1
sS'VBD'
p8337
I1
sS'VBD-VP'
p8338
I1
sg3
I0
sS'JJ'
p8339
I3
sS'NNP-NP'
p8340
I1
sg5
VDrug
p8341
sg7
I3
sS'JJ-NP'
p8342
I3
sS'NN'
p8343
I2
sS'NNS-NP'
p8344
I1
sS'NN-NP'
p8345
I2
sg12
I3
sS'NNS'
p8346
I1
sS'NNP'
p8347
I1
sa(dp8348
S'VB'
p8349
I1
sS'VBG'
p8350
I1
sg2
I2
sS'VBD'
p8351
I1
sS'VBD-VP'
p8352
I1
sg3
I0
sS'JJ'
p8353
I2
sS'NNP-NP'
p8354
I1
sg5
VDrug
p8355
sg7
I2
sS'JJ-NP'
p8356
I2
sS'NN'
p8357
I1
sS'VB-VP'
p8358
I1
sS'NNS-NP'
p8359
I1
sS'VBG-VP'
p8360
I1
sS'NN-NP'
p8361
I1
sg12
I5
sS'NNS'
p8362
I1
sS'NNP'
p8363
I1
sa(dp8364
S'VB'
p8365
I1
sS'VBG'
p8366
I1
sg2
I1
sS'VBG-VP'
p8367
I1
sg3
I0
sS'JJ'
p8368
I2
sS'NNP-NP'
p8369
I1
sg5
VDrug
p8370
sg7
I2
sS'JJ-NP'
p8371
I2
sS'NN'
p8372
I1
sS'VB-VP'
p8373
I1
sS'NNS-NP'
p8374
I1
sS'NN-NP'
p8375
I1
sg12
I5
sS'NNS'
p8376
I1
sS'NNP'
p8377
I1
sa(dp8378
S'VB'
p8379
I1
sS'VBG'
p8380
I1
sg2
I0
sS'VBG-VP'
p8381
I1
sg3
I0
sS'JJ'
p8382
I1
sS'IN'
p8383
I1
sS'NNP-NP'
p8384
I1
sg5
VDrug
p8385
sg7
I0
sS'JJ-NP'
p8386
I1
sS'NN'
p8387
I4
sS'VB-VP'
p8388
I1
sS'IN-PP'
p8389
I1
sS'NNS-NP'
p8390
I2
sS'NN-NP'
p8391
I4
sg12
I5
sS'NNS'
p8392
I2
sS'NNP'
p8393
I1
sa(dp8394
S'VB'
p8395
I1
sS'VBG'
p8396
I1
sg2
I2
sS'VBD'
p8397
I1
sS'VBD-VP'
p8398
I1
sg3
I0
sS'JJ'
p8399
I2
sS'NNP-NP'
p8400
I1
sg5
VDrug
p8401
sg7
I2
sS'JJ-NP'
p8402
I2
sS'NN'
p8403
I1
sS'VB-VP'
p8404
I1
sS'NNS-NP'
p8405
I1
sS'VBG-VP'
p8406
I1
sS'NN-NP'
p8407
I1
sg12
I6
sS'NNS'
p8408
I1
sS'NNP'
p8409
I1
sa(dp8410
S'VB'
p8411
I1
sS'VBG'
p8412
I1
sg2
I1
sS'VBD'
p8413
I1
sS'VBD-VP'
p8414
I1
sg3
I0
sS'JJ'
p8415
I2
sS'NNP-NP'
p8416
I1
sg5
VDrug
p8417
sg7
I2
sS'JJ-NP'
p8418
I2
sS'NN'
p8419
I1
sS'VB-VP'
p8420
I1
sS'NNS-NP'
p8421
I1
sS'VBG-VP'
p8422
I1
sS'NN-NP'
p8423
I1
sg12
I6
sS'NNS'
p8424
I1
sS'NNP'
p8425
I1
sa(dp8426
S'VB'
p8427
I1
sS'VBG'
p8428
I1
sg2
I0
sS'VBD'
p8429
I1
sS'VBD-VP'
p8430
I1
sg3
I0
sS'JJ'
p8431
I1
sS'IN'
p8432
I1
sS'NNP-NP'
p8433
I1
sg5
VDrug
p8434
sg7
I0
sS'JJ-NP'
p8435
I1
sS'NN'
p8436
I2
sS'VB-VP'
p8437
I1
sS'IN-PP'
p8438
I1
sS'VBG-VP'
p8439
I1
sS'NN-NP'
p8440
I2
sg12
I6
sS'NNS'
p8441
I2
sS'NNS-NP'
p8442
I2
sS'NNP'
p8443
I1
sa(dp8444
S'VB'
p8445
I1
sg2
I2
sS'VBN'
p8446
I1
sS'CD'
p8447
I6
sg3
I0
sS'JJ'
p8448
I1
sS'IN'
p8449
I1
sS'VB-VP'
p8450
I1
sg5
VDisorder
p8451
sg7
I7
sS'VBN-VP'
p8452
I1
sS'JJ-NP'
p8453
I1
sS'CD-NP'
p8454
I6
sS'NN'
p8455
I6
sS'IN-PP'
p8456
I1
sS'NNS-NP'
p8457
I1
sS'NN-NP'
p8458
I6
sg12
I4
sS'NNS'
p8459
I1
sa(dp8460
S'VB'
p8461
I1
sg2
I2
sS'VBN'
p8462
I1
sS'CD'
p8463
I6
sg3
I0
sS'JJ'
p8464
I1
sS'VB-VP'
p8465
I1
sg5
VDisorder
p8466
sg7
I7
sS'VBN-VP'
p8467
I1
sS'JJ-NP'
p8468
I1
sS'CD-NP'
p8469
I6
sS'NN'
p8470
I6
sS'NNS-NP'
p8471
I1
sS'NN-NP'
p8472
I6
sg12
I10
sS'NNS'
p8473
I1
sa(dp8474
S'VB'
p8475
I1
sg2
I2
sS'VBN'
p8476
I1
sS'CD'
p8477
I3
sg3
I0
sS'JJ'
p8478
I1
sS'IN'
p8479
I1
sS'VB-VP'
p8480
I1
sg5
VDisorder
p8481
sg7
I3
sS'VBN-VP'
p8482
I1
sS'JJ-NP'
p8483
I1
sS'CD-NP'
p8484
I3
sS'NN'
p8485
I2
sS'IN-PP'
p8486
I1
sS'NNS-NP'
p8487
I1
sS'NN-NP'
p8488
I2
sg12
I4
sS'NNS'
p8489
I1
sa(dp8490
S'VB'
p8491
I1
sg2
I2
sS'VBN'
p8492
I1
sS'CD'
p8493
I3
sg3
I0
sS'JJ'
p8494
I1
sS'VB-VP'
p8495
I1
sg5
VDisorder
p8496
sg7
I3
sS'VBN-VP'
p8497
I1
sS'JJ-NP'
p8498
I1
sS'CD-NP'
p8499
I3
sS'NN'
p8500
I2
sS'NNS-NP'
p8501
I1
sS'NN-NP'
p8502
I2
sg12
I10
sS'NNS'
p8503
I1
sa(dp8504
g2
I2
sS'VBN-NP'
p8505
I1
sS'VBN'
p8506
I3
sS'CD'
p8507
I14
sg3
I0
sS'JJ'
p8508
I1
sS'NNP-NP'
p8509
I1
sg5
VDisorder
p8510
sg7
I11
sS'VBN-VP'
p8511
I2
sS'JJ-NP'
p8512
I1
sS'CD-NP'
p8513
I13
sS'NN'
p8514
I7
sS'JJR-NP'
p8515
I1
sS'NNS-NP'
p8516
I1
sS'JJR'
p8517
I1
sS'NN-NP'
p8518
I7
sg12
I5
sS'NNS'
p8519
I1
sS'NNP'
p8520
I1
sa(dp8521
g2
I0
sS'VBN-NP'
p8522
I1
sS'VBN'
p8523
I3
sS'CD'
p8524
I1
sg3
I0
sS'JJ'
p8525
I2
sS'NNP-NP'
p8526
I1
sg5
VDisorder
p8527
sg7
I0
sS'VBN-VP'
p8528
I2
sS'JJ-NP'
p8529
I2
sS'CD-NP'
p8530
I13
sS'NN'
p8531
I6
sS'JJR-NP'
p8532
I1
sS'NNS-NP'
p8533
I1
sS'JJR'
p8534
I1
sS'NN-NP'
p8535
I6
sg12
I5
sS'NNS'
p8536
I1
sS'NNP'
p8537
I1
sa(dp8538
S'VBG'
p8539
I1
sg2
I0
sS'CD'
p8540
I1
sg3
I0
sS'JJ'
p8541
I1
sS'IN'
p8542
I2
sS'DT'
p8543
I1
sg5
VDisorder
p8544
sg7
I1
sS'JJ-NP'
p8545
I1
sS'VBG-NP'
p8546
I1
sS'CD-NP'
p8547
I1
sS'NN'
p8548
I2
sS'IN-PP'
p8549
I2
sS'NNS-NP'
p8550
I3
sS'NN-NP'
p8551
I2
sg12
I13
sS'DT-NP'
p8552
I1
sS'NNS'
p8553
I3
sa(dp8554
S'VBG'
p8555
I1
sg2
I0
sS'CD'
p8556
I1
sg3
I0
sS'JJ'
p8557
I1
sS'IN'
p8558
I2
sS'DT'
p8559
I1
sg5
VDisorder
p8560
sg7
I1
sS'JJ-NP'
p8561
I1
sS'VBG-NP'
p8562
I1
sS'CD-NP'
p8563
I1
sS'NN'
p8564
I2
sS'IN-PP'
p8565
I2
sS'NNS-NP'
p8566
I3
sS'NN-NP'
p8567
I2
sg12
I14
sS'DT-NP'
p8568
I1
sS'NNS'
p8569
I3
sa(dp8570
S'JJ-NP'
p8571
I1
sS'NN'
p8572
I1
sg2
I0
sS'IN-PP'
p8573
I2
sS'NNS'
p8574
I2
sS'NNS-NP'
p8575
I2
sg3
I0
sS'NN-NP'
p8576
I1
sg12
I7
sS'JJ'
p8577
I1
sS'IN'
p8578
I2
sg5
VDisorder
p8579
sg7
I1
sa(dp8580
S'JJ-NP'
p8581
I2
sS'NN'
p8582
I1
sg2
I0
sS'IN-PP'
p8583
I2
sS'NNS'
p8584
I2
sS'NNS-NP'
p8585
I2
sg3
I0
sS'NN-NP'
p8586
I1
sg12
I7
sS'JJ'
p8587
I2
sS'IN'
p8588
I2
sg5
VDisorder
p8589
sg7
I0
sa(dp8590
S'VBG'
p8591
I1
sg2
I2
sS'VBD'
p8592
I1
sS'VBD-VP'
p8593
I1
sS'VBN'
p8594
I1
sS'CD'
p8595
I3
sg3
I0
sS'JJ'
p8596
I1
sS'RB-VP'
p8597
I1
sg5
VDrug
p8598
sg7
I2
sS'VBN-VP'
p8599
I1
sS'JJ-NP'
p8600
I1
sS'CD-NP'
p8601
I3
sS'NN'
p8602
I2
sS'NNS-NP'
p8603
I2
sS'VBG-VP'
p8604
I1
sS'NN-NP'
p8605
I2
sg12
I3
sS'RB'
p8606
I1
sS'NNS'
p8607
I2
sa(dp8608
S'VBG'
p8609
I1
sg2
I1
sS'VBG-VP'
p8610
I1
sS'VBN'
p8611
I1
sS'CD'
p8612
I3
sg3
I0
sS'JJ'
p8613
I1
sS'RB-VP'
p8614
I1
sg5
VDrug
p8615
sg7
I2
sS'VBN-VP'
p8616
I1
sS'JJ-NP'
p8617
I1
sS'CD-NP'
p8618
I3
sS'NN'
p8619
I2
sS'NNS-NP'
p8620
I2
sS'NN-NP'
p8621
I2
sg12
I3
sS'RB'
p8622
I1
sS'NNS'
p8623
I2
sa(dp8624
S'VBG'
p8625
I1
sg2
I0
sS'VBG-VP'
p8626
I1
sS'VBN'
p8627
I2
sS'CD'
p8628
I3
sg3
I0
sS'JJ'
p8629
I1
sS'IN'
p8630
I1
sS'RB-VP'
p8631
I1
sg5
VDrug
p8632
sg7
I0
sS'VBN-VP'
p8633
I2
sS'JJ-NP'
p8634
I1
sS'CD-NP'
p8635
I3
sS'NN'
p8636
I7
sS'IN-PP'
p8637
I1
sS'NNS-NP'
p8638
I2
sS'NN-NP'
p8639
I7
sg12
I3
sS'RB'
p8640
I1
sS'NNS'
p8641
I2
sa(dp8642
S'VBG'
p8643
I1
sg2
I2
sS'VBD'
p8644
I1
sS'VBD-VP'
p8645
I1
sS'VBN'
p8646
I1
sS'CD'
p8647
I2
sg3
I0
sS'JJ'
p8648
I1
sS'IN'
p8649
I1
sS'RB-VP'
p8650
I1
sg5
VDrug
p8651
sg7
I2
sS'VBN-VP'
p8652
I1
sS'JJ-NP'
p8653
I1
sS'CD-NP'
p8654
I2
sS'NN'
p8655
I2
sS'IN-PP'
p8656
I1
sS'NNS-NP'
p8657
I1
sS'VBG-VP'
p8658
I1
sS'NN-NP'
p8659
I2
sg12
I11
sS'RB'
p8660
I1
sS'NNS'
p8661
I1
sa(dp8662
S'VBG'
p8663
I1
sg2
I1
sS'VBD'
p8664
I1
sS'VBD-VP'
p8665
I1
sS'VBN'
p8666
I1
sS'CD'
p8667
I2
sg3
I0
sS'JJ'
p8668
I1
sS'IN'
p8669
I1
sS'RB-VP'
p8670
I1
sg5
VDrug
p8671
sg7
I2
sS'VBN-VP'
p8672
I1
sS'JJ-NP'
p8673
I1
sS'CD-NP'
p8674
I2
sS'NN'
p8675
I2
sS'IN-PP'
p8676
I1
sS'NNS-NP'
p8677
I1
sS'VBG-VP'
p8678
I1
sS'NN-NP'
p8679
I2
sg12
I11
sS'RB'
p8680
I1
sS'NNS'
p8681
I1
sa(dp8682
S'VBG'
p8683
I1
sg2
I0
sS'VBD'
p8684
I1
sS'VBD-VP'
p8685
I1
sS'VBN'
p8686
I2
sS'CD'
p8687
I2
sg3
I0
sS'JJ'
p8688
I1
sS'IN'
p8689
I1
sS'RB-VP'
p8690
I1
sg5
VDrug
p8691
sg7
I0
sS'VBN-VP'
p8692
I2
sS'JJ-NP'
p8693
I1
sS'CD-NP'
p8694
I2
sS'NN'
p8695
I4
sS'IN-PP'
p8696
I1
sS'NNS-NP'
p8697
I1
sS'VBG-VP'
p8698
I1
sS'NN-NP'
p8699
I4
sg12
I11
sS'RB'
p8700
I1
sS'NNS'
p8701
I1
sa(dp8702
g2
I1
sg3
I0
sS'JJ'
p8703
I1
sS'VBZ'
p8704
I1
sS'DT'
p8705
I1
sg5
VDrug
p8706
sg7
I4
sS'JJ-NP'
p8707
I1
sS'NN'
p8708
I5
sS'VBZ-VP'
p8709
I1
sS'NNS-NP'
p8710
I2
sS'NN-NP'
p8711
I5
sg12
I0
sS'DT-NP'
p8712
I1
sS'NNS'
p8713
I2
sa(dp8714
S'JJ-NP'
p8715
I1
sS'RB'
p8716
I1
sg2
I1
sS'VBD'
p8717
I1
sS'VBD-VP'
p8718
I1
sS'VBN'
p8719
I1
sg3
I0
sg12
I2
sS'JJ'
p8720
I1
sS'RB-VP'
p8721
I1
sg5
VDisorder
p8722
sg7
I0
sS'VBN-VP'
p8723
I1
sa(dp8724
S'VB'
p8725
I1
sS'NN'
p8726
I1
sg2
I0
sS'JJ-NP'
p8727
I1
sg3
I0
sS'NN-NP'
p8728
I1
sg12
I6
sS'JJ'
p8729
I1
sS'VB-VP'
p8730
I1
sg5
VDrug
p8731
sg7
I0
sa(dp8732
S'JJ-NP'
p8733
I3
sS'NN'
p8734
I2
sg2
I0
sS'VBN-NP'
p8735
I1
sS'VBN'
p8736
I1
sg3
I0
sS'NN-NP'
p8737
I2
sg12
I4
sS'JJ'
p8738
I3
sg5
VDrug
p8739
sg7
I3
sa(dp8740
S'JJ-NP'
p8741
I2
sS'NN'
p8742
I1
sg2
I0
sS'VBN-NP'
p8743
I1
sS'VBN'
p8744
I1
sg3
I0
sS'NN-NP'
p8745
I1
sg12
I4
sS'JJ'
p8746
I2
sg5
VDrug
p8747
sg7
I2
sa(dp8748
S'JJ-NP'
p8749
I3
sS'NN'
p8750
I2
sg2
I0
sS'VBN-NP'
p8751
I1
sS'VBN'
p8752
I1
sg3
I0
sS'NN-NP'
p8753
I2
sg12
I4
sS'JJ'
p8754
I3
sg5
VDrug
p8755
sg7
I0
sa(dp8756
S'JJ-NP'
p8757
I1
sS'NN'
p8758
I1
sg2
I0
sS'VBD'
p8759
I1
sS'VBD-VP'
p8760
I1
sS'NNS-NP'
p8761
I1
sS'VBN'
p8762
I1
sg3
I0
sS'NN-NP'
p8763
I1
sg12
I3
sS'JJ'
p8764
I1
sS'VBN-VP'
p8765
I1
sg5
VDrug
p8766
sg7
I0
sS'NNS'
p8767
I1
sa(dp8768
S'JJ-NP'
p8769
I2
sS'NN'
p8770
I4
sg2
I0
sS'VBD'
p8771
I1
sS'VBD-VP'
p8772
I1
sS'NNS-NP'
p8773
I1
sS'VBN'
p8774
I1
sg3
I0
sS'NN-NP'
p8775
I4
sg12
I9
sS'JJ'
p8776
I2
sS'VBN-VP'
p8777
I1
sg5
VDrug
p8778
sg7
I0
sS'NNS'
p8779
I1
sa(dp8780
S'RB-NP'
p8781
I1
sg2
I0
sS'VBD'
p8782
I1
sS'VBD-VP'
p8783
I1
sS'VBN'
p8784
I1
sg3
I0
sS'JJ'
p8785
I2
sS'NNP-NP'
p8786
I1
sg5
VDrug
p8787
sg7
I3
sS'VBN-VP'
p8788
I1
sS'JJ-NP'
p8789
I2
sS'NN'
p8790
I3
sS'VBN-NP'
p8791
I1
sS'NN-NP'
p8792
I3
sg12
I2
sS'RB'
p8793
I1
sS'NNP'
p8794
I1
sa(dp8795
S'RB-NP'
p8796
I1
sg2
I0
sS'VBD'
p8797
I1
sS'VBD-VP'
p8798
I1
sS'VBN'
p8799
I2
sg3
I0
sS'JJ'
p8800
I2
sS'NNP-NP'
p8801
I1
sg5
VDrug
p8802
sg7
I0
sS'VBN-VP'
p8803
I1
sS'JJ-NP'
p8804
I2
sS'NN'
p8805
I5
sS'VBN-NP'
p8806
I1
sS'NN-NP'
p8807
I5
sg12
I2
sS'RB'
p8808
I1
sS'NNP'
p8809
I1
sa(dp8810
S'RB-NP'
p8811
I1
sg2
I0
sS'VBD'
p8812
I1
sS'VBD-VP'
p8813
I1
sS'VBN'
p8814
I1
sg3
I0
sS'JJ'
p8815
I2
sg5
VDrug
p8816
sg7
I3
sS'VBN-VP'
p8817
I1
sS'JJ-NP'
p8818
I2
sS'NN'
p8819
I3
sS'VBN-NP'
p8820
I1
sS'NNS-NP'
p8821
I1
sS'NN-NP'
p8822
I3
sg12
I5
sS'RB'
p8823
I1
sS'NNS'
p8824
I1
sa(dp8825
S'RB-NP'
p8826
I1
sg2
I0
sS'VBD'
p8827
I1
sS'VBD-VP'
p8828
I1
sS'VBN'
p8829
I2
sg3
I0
sS'JJ'
p8830
I2
sg5
VDrug
p8831
sg7
I0
sS'VBN-VP'
p8832
I1
sS'JJ-NP'
p8833
I2
sS'NN'
p8834
I5
sS'VBN-NP'
p8835
I1
sS'NNS-NP'
p8836
I1
sS'NN-NP'
p8837
I5
sg12
I5
sS'RB'
p8838
I1
sS'NNS'
p8839
I1
sa(dp8840
S'VB'
p8841
I1
sg2
I0
sS'VBN-NP'
p8842
I1
sS'VBN'
p8843
I2
sg3
I0
sS'JJ'
p8844
I1
sS'NNP-NP'
p8845
I2
sg5
VDrug
p8846
sg7
I0
sS'VBN-VP'
p8847
I2
sS'JJ-NP'
p8848
I1
sS'NN'
p8849
I3
sS'VB-VP'
p8850
I1
sS'NNS-NP'
p8851
I1
sS'NN-NP'
p8852
I3
sg12
I8
sS'NNS'
p8853
I1
sS'NNP'
p8854
I2
sa(dp8855
S'VB'
p8856
I1
sg2
I0
sS'VBD'
p8857
I1
sS'VBD-VP'
p8858
I1
sS'VBN'
p8859
I1
sg3
I0
sS'JJ'
p8860
I1
sS'NNP-NP'
p8861
I2
sg5
VDrug
p8862
sg7
I0
sS'JJ-NP'
p8863
I1
sS'NN'
p8864
I3
sS'VB-VP'
p8865
I1
sS'VBN-NP'
p8866
I1
sS'NN-NP'
p8867
I3
sg12
I10
sS'NNP'
p8868
I2
sa(dp8869
S'VB'
p8870
I1
sg2
I0
sS'VBD'
p8871
I1
sS'VBD-VP'
p8872
I1
sS'VBN'
p8873
I3
sg3
I0
sS'JJ'
p8874
I1
sS'NNP-NP'
p8875
I4
sg5
VDrug
p8876
sg7
I0
sS'VBN-VP'
p8877
I2
sS'JJ-NP'
p8878
I1
sS'NN'
p8879
I3
sS'VB-VP'
p8880
I1
sS'VBN-NP'
p8881
I1
sS'NNS-NP'
p8882
I1
sS'NN-NP'
p8883
I3
sg12
I14
sS'NNS'
p8884
I1
sS'NNP'
p8885
I4
sa(dp8886
S'VBG'
p8887
I1
sg2
I0
sS'NNS-NP'
p8888
I2
sg3
I0
sS'JJ'
p8889
I2
sS'NNP-NP'
p8890
I1
sS'VBZ'
p8891
I1
sg5
VDisorder
p8892
sg7
I3
sS'JJ-NP'
p8893
I2
sS'NN'
p8894
I1
sS'VBZ-VP'
p8895
I1
sS'VBG-VP'
p8896
I1
sS'NN-NP'
p8897
I1
sg12
I2
sS'NNS'
p8898
I2
sS'NNP'
p8899
I1
sa(dp8900
S'VBG'
p8901
I1
sg2
I0
sS'VBG-VP'
p8902
I1
sg3
I0
sS'JJ'
p8903
I1
sS'VBZ'
p8904
I1
sS'NNP-NP'
p8905
I2
sg5
VDrug
p8906
sg7
I0
sS'JJ-NP'
p8907
I1
sS'NN'
p8908
I1
sS'VBZ-VP'
p8909
I1
sS'NNS-NP'
p8910
I1
sS'NN-NP'
p8911
I1
sg12
I7
sS'NNS'
p8912
I1
sS'NNP'
p8913
I2
sa(dp8914
S'VBG'
p8915
I1
sg2
I0
sS'VBN'
p8916
I1
sS'CD'
p8917
I2
sg3
I0
sS'JJ'
p8918
I2
sS'IN'
p8919
I1
sS'NNP-NP'
p8920
I3
sg5
VDrug
p8921
sg7
I0
sS'VBN-VP'
p8922
I1
sS'JJ-NP'
p8923
I2
sS'VBG-NP'
p8924
I1
sS'CD-NP'
p8925
I2
sS'NN'
p8926
I1
sS'IN-PP'
p8927
I1
sS'NNS-NP'
p8928
I4
sS'NN-NP'
p8929
I1
sg12
I0
sS'NNS'
p8930
I4
sS'NNP'
p8931
I3
sa(dp8932
S'JJ-NP'
p8933
I1
sS'NN'
p8934
I1
sg2
I0
sS'CD'
p8935
I2
sg3
I0
sS'NN-NP'
p8936
I1
sg12
I1
sS'JJ'
p8937
I1
sS'NNP-NP'
p8938
I1
sS'NNP'
p8939
I1
sg5
VDrug
p8940
sg7
I2
sS'CD-NP'
p8941
I2
sa(dp8942
S'JJ-NP'
p8943
I1
sS'NN'
p8944
I1
sg2
I0
sS'NNS'
p8945
I2
sS'RB'
p8946
I1
sS'NNS-NP'
p8947
I2
sS'VBN'
p8948
I1
sg3
I0
sS'NN-NP'
p8949
I1
sg12
I4
sS'JJ'
p8950
I1
sS'RB-VP'
p8951
I1
sg5
VDrug
p8952
sg7
I0
sS'VBN-VP'
p8953
I1
sa(dp8954
g2
I1
sS'VBN'
p8955
I1
sg3
I0
sS'JJ'
p8956
I2
sS'NNP-NP'
p8957
I1
sg5
VDrug
p8958
sg7
I3
sS'VBN-VP'
p8959
I1
sS'JJ-NP'
p8960
I2
sS'NN'
p8961
I3
sS'NNS-NP'
p8962
I1
sS'NN-NP'
p8963
I3
sg12
I5
sS'NNS'
p8964
I1
sS'NNP'
p8965
I1
sa(dp8966
g2
I0
sS'VBN-NP'
p8967
I1
sS'VBN'
p8968
I1
sg3
I0
sS'VBP'
p8969
I1
sS'VBP-VP'
p8970
I1
sS'JJ'
p8971
I1
sS'NNP-NP'
p8972
I1
sg5
VDrug
p8973
sg7
I0
sS'JJ-NP'
p8974
I1
sS'NN'
p8975
I2
sS'NNS-NP'
p8976
I1
sS'NN-NP'
p8977
I2
sg12
I5
sS'NNS'
p8978
I1
sS'NNP'
p8979
I1
sa(dp8980
S'VBG'
p8981
I1
sS'NN'
p8982
I2
sg2
I0
sS'NNS'
p8983
I1
sS'NNS-NP'
p8984
I1
sS'VBG-VP'
p8985
I1
sg3
I0
sS'NN-NP'
p8986
I2
sg12
I1
sS'NNP-NP'
p8987
I1
sg5
VDisorder
p8988
sg7
I0
sS'NNP'
p8989
I1
sa(dp8990
S'VB'
p8991
I1
sS'VBG'
p8992
I1
sS'NN'
p8993
I2
sg2
I0
sS'NNS'
p8994
I1
sS'NNS-NP'
p8995
I1
sS'VBG-VP'
p8996
I1
sg3
I0
sS'NN-NP'
p8997
I2
sg12
I3
sS'VB-VP'
p8998
I1
sg5
VDisorder
p8999
sg7
I0
sa(dp9000
S'RB-NP'
p9001
I1
sg2
I2
sS'VBN'
p9002
I2
sS'CD'
p9003
I2
sg3
I0
sS'JJ'
p9004
I1
sg5
VDisorder
p9005
sg7
I3
sS'VBN-VP'
p9006
I2
sS'JJ-NP'
p9007
I1
sS'CD-NP'
p9008
I2
sS'NN'
p9009
I4
sS'NNS-NP'
p9010
I1
sS'NN-NP'
p9011
I4
sg12
I8
sS'RB'
p9012
I1
sS'NNS'
p9013
I1
sa(dp9014
S'VBG'
p9015
I1
sg2
I0
sS'VBD'
p9016
I1
sS'VBD-VP'
p9017
I1
sS'VBN'
p9018
I1
sg3
I0
sS'JJ'
p9019
I3
sS'IN'
p9020
I1
sS'NNP-NP'
p9021
I1
sg5
VDisorder
p9022
sg7
I0
sS'VBN-VP'
p9023
I1
sS'JJ-NP'
p9024
I2
sS'NN'
p9025
I6
sS'NNS-NP'
p9026
I1
sS'VBG-VP'
p9027
I1
sS'NN-NP'
p9028
I5
sg12
I2
sS'RB'
p9029
I1
sS'NNS'
p9030
I1
sS'NNP'
p9031
I1
sa(dp9032
S'VBG'
p9033
I1
sg2
I0
sS'VBD'
p9034
I1
sS'VBD-VP'
p9035
I1
sS'VBN'
p9036
I1
sg3
I1
sS'JJ'
p9037
I1
sS'IN'
p9038
I1
sS'NNP-NP'
p9039
I2
sg5
VDisorder
p9040
sg7
I2
sS'VBN-VP'
p9041
I1
sS'JJ-NP'
p9042
I1
sS'NN'
p9043
I2
sS'IN-PP'
p9044
I1
sS'NNS-NP'
p9045
I1
sS'VBG-VP'
p9046
I1
sS'NN-NP'
p9047
I2
sg12
I2
sS'NNS'
p9048
I1
sS'NNP'
p9049
I2
sa(dp9050
g2
I0
sS'VBN'
p9051
I1
sS'CD'
p9052
I1
sg3
I0
sS'JJ'
p9053
I1
sg5
VDisorder
p9054
sg7
I2
sS'VBN-VP'
p9055
I1
sS'JJ-NP'
p9056
I1
sS'CD-NP'
p9057
I1
sS'NN'
p9058
I1
sS'NNS-NP'
p9059
I2
sS'NN-NP'
p9060
I1
sg12
I5
sS'NNS'
p9061
I2
sa(dp9062
g2
I0
sS'VBN'
p9063
I1
sS'CD'
p9064
I1
sg3
I0
sS'JJ'
p9065
I1
sg5
VDrug
p9066
sg7
I0
sS'VBN-VP'
p9067
I1
sS'JJ-NP'
p9068
I1
sS'CD-NP'
p9069
I1
sS'NN'
p9070
I1
sS'NNS-NP'
p9071
I1
sS'NN-NP'
p9072
I1
sg12
I9
sS'NNS'
p9073
I1
sa(dp9074
g2
I0
sS'VBN'
p9075
I1
sS'CD'
p9076
I1
sg3
I0
sS'JJ'
p9077
I1
sg5
VDisorder
p9078
sg7
I1
sS'VBN-VP'
p9079
I1
sS'JJ-NP'
p9080
I1
sS'CD-NP'
p9081
I1
sS'NN'
p9082
I1
sS'NNS-NP'
p9083
I1
sS'NN-NP'
p9084
I1
sg12
I5
sS'NNS'
p9085
I1
sa(dp9086
g2
I0
sS'VBN'
p9087
I1
sS'CD'
p9088
I1
sg3
I0
sS'JJ'
p9089
I1
sg5
VDrug
p9090
sg7
I0
sS'VBN-VP'
p9091
I1
sS'JJ-NP'
p9092
I1
sS'CD-NP'
p9093
I1
sS'NN'
p9094
I1
sS'NNS-NP'
p9095
I1
sS'NN-NP'
p9096
I1
sg12
I10
sS'NNS'
p9097
I1
sa(dp9098
g2
I1
sg3
I1
sS'VBP'
p9099
I1
sS'VBP-VP'
p9100
I1
sS'JJ'
p9101
I2
sS'IN'
p9102
I1
sS'NNP-NP'
p9103
I1
sg5
VDisorder
p9104
sg7
I5
sS'JJ-NP'
p9105
I2
sS'NN'
p9106
I6
sS'IN-PP'
p9107
I1
sS'NNS-NP'
p9108
I2
sS'NN-NP'
p9109
I6
sg12
I3
sS'NNS'
p9110
I2
sS'NNP'
p9111
I1
sa(dp9112
g2
I0
sS'VBN'
p9113
I1
sg3
I0
sS'VBP'
p9114
I1
sS'VBP-VP'
p9115
I1
sS'JJ'
p9116
I1
sS'IN'
p9117
I1
sS'NNP-NP'
p9118
I1
sg5
VDrug
p9119
sg7
I0
sS'VBN-VP'
p9120
I1
sS'JJ-NP'
p9121
I1
sS'NN'
p9122
I5
sS'IN-PP'
p9123
I1
sS'NNS-NP'
p9124
I2
sS'NN-NP'
p9125
I5
sg12
I5
sS'NNS'
p9126
I2
sS'NNP'
p9127
I1
sa(dp9128
S'JJ-NP'
p9129
I1
sS'NN'
p9130
I2
sg2
I0
sS'IN-PP'
p9131
I1
sS'NNS'
p9132
I2
sS'NNS-NP'
p9133
I2
sg3
I1
sS'NN-NP'
p9134
I2
sg12
I3
sS'JJ'
p9135
I1
sS'IN'
p9136
I1
sg5
VDisorder
p9137
sg7
I2
sa(dp9138
S'JJ-NP'
p9139
I2
sS'NN'
p9140
I1
sg2
I0
sS'IN-PP'
p9141
I1
sS'NNS'
p9142
I2
sS'NNS-NP'
p9143
I2
sS'VBN'
p9144
I1
sg3
I0
sS'NN-NP'
p9145
I1
sg12
I12
sS'JJ'
p9146
I2
sS'IN'
p9147
I1
sg5
VDrug
p9148
sg7
I0
sS'VBN-VP'
p9149
I1
sa(dp9150
S'NN'
p9151
I1
sg2
I0
sS'NNS'
p9152
I1
sS'NNS-NP'
p9153
I1
sg3
I0
sS'NN-NP'
p9154
I1
sg12
I2
sS'NNP-NP'
p9155
I1
sg5
VDrug
p9156
sg7
I0
sS'NNP'
p9157
I1
sa(dp9158
S'VBG'
p9159
I1
sg2
I1
sS'CD'
p9160
I10
sg3
I0
sS'JJ'
p9161
I3
sS'VBZ'
p9162
I1
sS'NNP-NP'
p9163
I3
sg5
VDrug
p9164
sg7
I20
sS'JJ-NP'
p9165
I3
sS'VBG-NP'
p9166
I1
sS'CD-NP'
p9167
I10
sS'NN'
p9168
I12
sS'VBZ-VP'
p9169
I1
sS'NNS-NP'
p9170
I1
sS'NN-NP'
p9171
I12
sg12
I2
sS'NNS'
p9172
I1
sS'NNP'
p9173
I3
sa(dp9174
S'VBG'
p9175
I1
sg2
I2
sS'VBG-VP'
p9176
I1
sS'CD'
p9177
I8
sg3
I0
sS'JJ'
p9178
I3
sS'VBZ'
p9179
I1
sS'NNP-NP'
p9180
I3
sg5
VDrug
p9181
sg7
I17
sS'JJ-NP'
p9182
I3
sS'CD-NP'
p9183
I8
sS'NN'
p9184
I10
sS'VBZ-VP'
p9185
I1
sS'NNS-NP'
p9186
I1
sS'NN-NP'
p9187
I10
sg12
I2
sS'NNS'
p9188
I1
sS'NNP'
p9189
I3
sa(dp9190
S'VBG'
p9191
I1
sg2
I0
sS'CD'
p9192
I6
sg3
I0
sS'JJ'
p9193
I2
sS'NNP-NP'
p9194
I2
sg5
VDrug
p9195
sg7
I14
sS'JJ-NP'
p9196
I2
sS'VBG-NP'
p9197
I1
sS'CD-NP'
p9198
I6
sS'NN'
p9199
I6
sS'NNS-NP'
p9200
I2
sS'NN-NP'
p9201
I6
sg12
I2
sS'NNS'
p9202
I2
sS'NNP'
p9203
I2
sa(dp9204
S'VBG'
p9205
I1
sg2
I0
sS'CD'
p9206
I4
sg3
I0
sS'JJ'
p9207
I1
sS'VBZ'
p9208
I1
sS'NNP-NP'
p9209
I2
sg5
VDrug
p9210
sg7
I9
sS'JJ-NP'
p9211
I1
sS'VBG-NP'
p9212
I1
sS'CD-NP'
p9213
I4
sS'NN'
p9214
I5
sS'VBZ-VP'
p9215
I1
sS'NNS-NP'
p9216
I1
sS'NN-NP'
p9217
I5
sg12
I2
sS'NNS'
p9218
I1
sS'NNP'
p9219
I2
sa(dp9220
S'VBG'
p9221
I1
sg2
I0
sS'CD'
p9222
I2
sg3
I0
sS'JJ'
p9223
I3
sS'VBZ'
p9224
I1
sS'NNP-NP'
p9225
I4
sg5
VDrug
p9226
sg7
I2
sS'JJ-NP'
p9227
I3
sS'VBG-NP'
p9228
I1
sS'CD-NP'
p9229
I2
sS'NN'
p9230
I1
sS'VBZ-VP'
p9231
I1
sS'NNS-NP'
p9232
I1
sS'NN-NP'
p9233
I1
sg12
I2
sS'NNS'
p9234
I1
sS'NNP'
p9235
I4
sa(dp9236
S'VBG'
p9237
I1
sS'VBG-VP'
p9238
I1
sS'VBN'
p9239
I1
sg3
I0
sS'JJ'
p9240
I3
sS'VBZ'
p9241
I1
sg5
VDisorder
p9242
sS'VBN-VP'
p9243
I1
sS'JJ-NP'
p9244
I3
sS'CD-NP'
p9245
I8
sS'NN'
p9246
I10
sS'VBZ-VP'
p9247
I1
sS'NNS'
p9248
I1
sS'NNP'
p9249
I3
sg2
I2
sS'CD'
p9250
I8
sS'NNP-NP'
p9251
I3
sg7
I17
sS'NNS-NP'
p9252
I1
sS'NN-NP'
p9253
I10
sg12
I5
sa(dp9254
S'VBG'
p9255
I1
sg2
I1
sS'VBN'
p9256
I1
sS'CD'
p9257
I8
sg3
I0
sS'JJ'
p9258
I3
sS'VBZ'
p9259
I1
sS'NNP-NP'
p9260
I2
sg5
VDisorder
p9261
sg7
I16
sS'VBN-VP'
p9262
I1
sS'JJ-NP'
p9263
I3
sS'VBG-NP'
p9264
I1
sS'CD-NP'
p9265
I8
sS'NN'
p9266
I10
sS'VBZ-VP'
p9267
I1
sS'NNS-NP'
p9268
I1
sS'NN-NP'
p9269
I10
sg12
I5
sS'NNS'
p9270
I1
sS'NNP'
p9271
I2
sa(dp9272
S'VBG'
p9273
I1
sS'NNS-NP'
p9274
I1
sS'VBN'
p9275
I1
sg3
I0
sS'JJ'
p9276
I3
sS'VBZ'
p9277
I1
sg5
VDisorder
p9278
sS'VBN-VP'
p9279
I1
sS'JJ-NP'
p9280
I3
sS'CD-NP'
p9281
I8
sS'NN'
p9282
I10
sS'VBZ-VP'
p9283
I1
sS'NNS'
p9284
I1
sS'NNP'
p9285
I2
sg2
I1
sS'CD'
p9286
I8
sS'NNP-NP'
p9287
I2
sg7
I16
sS'VBG-VP'
p9288
I1
sS'NN-NP'
p9289
I10
sg12
I9
sa(dp9290
S'VBG'
p9291
I1
sg2
I0
sS'VBN'
p9292
I1
sS'CD'
p9293
I6
sg3
I0
sS'JJ'
p9294
I2
sS'NNP-NP'
p9295
I2
sg5
VDrug
p9296
sg7
I14
sS'VBN-VP'
p9297
I1
sS'JJ-NP'
p9298
I2
sS'VBG-NP'
p9299
I1
sS'CD-NP'
p9300
I6
sS'NN'
p9301
I6
sS'NNS-NP'
p9302
I2
sS'NN-NP'
p9303
I6
sg12
I11
sS'NNS'
p9304
I2
sS'NNP'
p9305
I2
sa(dp9306
S'VBG'
p9307
I1
sg2
I0
sS'VBN'
p9308
I1
sS'CD'
p9309
I4
sg3
I0
sS'JJ'
p9310
I1
sS'VBZ'
p9311
I1
sS'NNP-NP'
p9312
I2
sg5
VDrug
p9313
sg7
I9
sS'VBN-VP'
p9314
I1
sS'JJ-NP'
p9315
I1
sS'VBG-NP'
p9316
I1
sS'CD-NP'
p9317
I4
sS'NN'
p9318
I5
sS'VBZ-VP'
p9319
I1
sS'NNS-NP'
p9320
I1
sS'NN-NP'
p9321
I5
sg12
I11
sS'NNS'
p9322
I1
sS'NNP'
p9323
I2
sa(dp9324
S'VBG'
p9325
I1
sg2
I0
sS'VBN'
p9326
I1
sS'CD'
p9327
I4
sg3
I0
sS'JJ'
p9328
I1
sS'VBZ'
p9329
I1
sS'NNP-NP'
p9330
I1
sg5
VDrug
p9331
sg7
I9
sS'VBN-VP'
p9332
I1
sS'JJ-NP'
p9333
I1
sS'VBG-NP'
p9334
I1
sS'CD-NP'
p9335
I4
sS'NN'
p9336
I4
sS'VBZ-VP'
p9337
I1
sS'NNS-NP'
p9338
I2
sS'NN-NP'
p9339
I4
sg12
I11
sS'NNS'
p9340
I2
sS'NNP'
p9341
I1
sa(dp9342
S'VBG'
p9343
I1
sg2
I0
sS'VBN'
p9344
I1
sS'CD'
p9345
I2
sg3
I0
sS'JJ'
p9346
I3
sS'VBZ'
p9347
I1
sS'NNP-NP'
p9348
I2
sg5
VDrug
p9349
sg7
I2
sS'VBN-VP'
p9350
I1
sS'JJ-NP'
p9351
I3
sS'VBG-NP'
p9352
I1
sS'CD-NP'
p9353
I2
sS'NN'
p9354
I1
sS'VBZ-VP'
p9355
I1
sS'NNS-NP'
p9356
I1
sS'NN-NP'
p9357
I1
sg12
I11
sS'NNS'
p9358
I1
sS'NNP'
p9359
I2
sa(dp9360
S'VBG'
p9361
I1
sg2
I0
sS'VBN'
p9362
I1
sS'CD'
p9363
I4
sg3
I0
sS'JJ'
p9364
I2
sS'VBZ'
p9365
I1
sS'NNP-NP'
p9366
I1
sg5
VDisorder
p9367
sg7
I7
sS'VBN-VP'
p9368
I1
sS'JJ-NP'
p9369
I2
sS'VBG-NP'
p9370
I1
sS'CD-NP'
p9371
I4
sS'NN'
p9372
I3
sS'VBZ-VP'
p9373
I1
sS'NNS-NP'
p9374
I1
sS'NN-NP'
p9375
I3
sg12
I5
sS'NNS'
p9376
I1
sS'NNP'
p9377
I1
sa(dp9378
S'VBG'
p9379
I1
sg2
I0
sS'VBN'
p9380
I1
sS'CD'
p9381
I4
sg3
I0
sS'JJ'
p9382
I1
sS'VBZ'
p9383
I1
sS'NNP-NP'
p9384
I1
sg5
VDisorder
p9385
sg7
I7
sS'VBN-VP'
p9386
I1
sS'JJ-NP'
p9387
I1
sS'VBG-NP'
p9388
I1
sS'CD-NP'
p9389
I4
sS'NN'
p9390
I3
sS'VBZ-VP'
p9391
I1
sS'NNS-NP'
p9392
I1
sS'NN-NP'
p9393
I3
sg12
I23
sS'NNS'
p9394
I1
sS'NNP'
p9395
I1
sa(dp9396
S'VBG'
p9397
I1
sg2
I0
sS'VBN'
p9398
I1
sS'CD'
p9399
I4
sg3
I0
sS'JJ'
p9400
I2
sS'NNP-NP'
p9401
I1
sg5
VDisorder
p9402
sg7
I6
sS'VBN-VP'
p9403
I1
sS'JJ-NP'
p9404
I2
sS'VBG-NP'
p9405
I1
sS'CD-NP'
p9406
I4
sS'NN'
p9407
I3
sS'NNS-NP'
p9408
I2
sS'NN-NP'
p9409
I3
sg12
I17
sS'NNS'
p9410
I2
sS'NNP'
p9411
I1
sa(dp9412
S'VBG'
p9413
I1
sg2
I0
sS'VBN'
p9414
I1
sS'CD'
p9415
I4
sg3
I0
sS'JJ'
p9416
I1
sS'VBZ'
p9417
I1
sS'NNP-NP'
p9418
I1
sg5
VDisorder
p9419
sg7
I6
sS'VBN-VP'
p9420
I1
sS'JJ-NP'
p9421
I1
sS'VBG-NP'
p9422
I1
sS'CD-NP'
p9423
I4
sS'NN'
p9424
I3
sS'VBZ-VP'
p9425
I1
sS'NNS-NP'
p9426
I1
sS'NN-NP'
p9427
I3
sg12
I23
sS'NNS'
p9428
I1
sS'NNP'
p9429
I1
sa(dp9430
S'VBG'
p9431
I1
sg2
I0
sS'VBN'
p9432
I1
sS'CD'
p9433
I4
sg3
I0
sS'JJ'
p9434
I1
sS'VBZ'
p9435
I1
sS'NNP-NP'
p9436
I2
sg5
VDisorder
p9437
sg7
I6
sS'VBN-VP'
p9438
I1
sS'JJ-NP'
p9439
I1
sS'VBG-NP'
p9440
I1
sS'CD-NP'
p9441
I4
sS'NN'
p9442
I3
sS'VBZ-VP'
p9443
I1
sS'NNS-NP'
p9444
I2
sS'NN-NP'
p9445
I3
sg12
I24
sS'NNS'
p9446
I2
sS'NNP'
p9447
I2
sa(dp9448
S'VBG'
p9449
I1
sg2
I0
sS'VBN'
p9450
I1
sS'CD'
p9451
I2
sg3
I0
sS'JJ'
p9452
I3
sS'VBZ'
p9453
I1
sS'NNP-NP'
p9454
I3
sg5
VDrug
p9455
sg7
I2
sS'VBN-VP'
p9456
I1
sS'JJ-NP'
p9457
I3
sS'VBG-NP'
p9458
I1
sS'CD-NP'
p9459
I2
sS'NN'
p9460
I1
sS'VBZ-VP'
p9461
I1
sS'NNS-NP'
p9462
I3
sS'NN-NP'
p9463
I1
sg12
I29
sS'NNS'
p9464
I3
sS'NNP'
p9465
I3
sa(dp9466
S'VBG'
p9467
I1
sg2
I1
sS'NNS-NP'
p9468
I1
sS'VBN'
p9469
I1
sS'CD'
p9470
I1
sg3
I0
sS'JJ'
p9471
I2
sg5
VDrug
p9472
sg7
I2
sS'VBN-VP'
p9473
I1
sS'JJ-NP'
p9474
I2
sS'CD-NP'
p9475
I1
sS'NN'
p9476
I1
sS'VBG-VP'
p9477
I1
sS'NN-NP'
p9478
I1
sg12
I7
sS'NNS'
p9479
I1
sa(dp9480
S'JJ-NP'
p9481
I1
sS'NN'
p9482
I1
sg2
I0
sS'VBN'
p9483
I1
sg3
I0
sS'NN-NP'
p9484
I1
sg12
I2
sS'JJ'
p9485
I1
sg5
VDisorder
p9486
sg7
I1
sS'VBN-VP'
p9487
I1
sa(dp9488
g2
I1
sS'VBD'
p9489
I1
sS'VBD-VP'
p9490
I1
sS'VBN'
p9491
I2
sg3
I1
sS'IN'
p9492
I1
sS'NNP-NP'
p9493
I1
sg5
VDrug
p9494
sg7
I4
sS'VBN-VP'
p9495
I1
sS'NN'
p9496
I2
sS'IN-PP'
p9497
I1
sS'VBN-NP'
p9498
I2
sS'NNS-NP'
p9499
I2
sS'NN-NP'
p9500
I2
sg12
I2
sS'NNS'
p9501
I2
sS'NNP'
p9502
I1
sa(dp9503
g2
I0
sS'VBD'
p9504
I1
sS'VBD-VP'
p9505
I1
sS'VBN'
p9506
I1
sg3
I0
sS'IN'
p9507
I2
sS'NNP-NP'
p9508
I2
sg5
VDrug
p9509
sg7
I1
sS'VBN-VP'
p9510
I1
sS'NN'
p9511
I1
sS'IN-PP'
p9512
I2
sS'VBN-NP'
p9513
I1
sS'NNS-NP'
p9514
I2
sS'NN-NP'
p9515
I1
sg12
I2
sS'NNS'
p9516
I2
sS'NNP'
p9517
I2
sa(dp9518
g2
I0
sS'VBN-NP'
p9519
I2
sS'VBN'
p9520
I2
sg3
I1
sS'IN'
p9521
I1
sS'NNP-NP'
p9522
I1
sg5
VDisorder
p9523
sg7
I3
sS'VBN-VP'
p9524
I1
sS'NN'
p9525
I2
sS'IN-PP'
p9526
I1
sS'NNS-NP'
p9527
I2
sS'NN-NP'
p9528
I2
sg12
I4
sS'NNS'
p9529
I2
sS'NNP'
p9530
I1
sa(dp9531
g2
I0
sS'VBN-NP'
p9532
I1
sS'VBN'
p9533
I1
sg3
I0
sS'IN'
p9534
I1
sS'NNP-NP'
p9535
I2
sg5
VDrug
p9536
sg7
I1
sS'VBN-VP'
p9537
I1
sS'NN'
p9538
I1
sS'IN-PP'
p9539
I1
sS'NNS-NP'
p9540
I1
sS'NN-NP'
p9541
I1
sg12
I7
sS'NNS'
p9542
I1
sS'NNP'
p9543
I2
sa(dp9544
g2
I0
sS'VBD'
p9545
I1
sS'VBD-VP'
p9546
I1
sS'VBN'
p9547
I1
sg3
I0
sS'JJ'
p9548
I2
sS'NNP-NP'
p9549
I1
sg5
VDrug
p9550
sg7
I4
sS'VBN-VP'
p9551
I1
sS'JJ-NP'
p9552
I2
sS'NN'
p9553
I2
sS'NNS-NP'
p9554
I1
sS'NN-NP'
p9555
I2
sg12
I2
sS'NNS'
p9556
I1
sS'NNP'
p9557
I1
sa(dp9558
g2
I0
sS'VBD'
p9559
I1
sS'VBD-VP'
p9560
I1
sS'VBN'
p9561
I1
sg3
I0
sS'JJ'
p9562
I2
sS'NNP-NP'
p9563
I1
sg5
VDrug
p9564
sg7
I3
sS'VBN-VP'
p9565
I1
sS'JJ-NP'
p9566
I2
sS'NN'
p9567
I1
sS'NNS-NP'
p9568
I1
sS'NN-NP'
p9569
I1
sg12
I2
sS'NNS'
p9570
I1
sS'NNP'
p9571
I1
sa(dp9572
g2
I0
sS'VBD'
p9573
I1
sS'VBD-VP'
p9574
I1
sS'VBN'
p9575
I1
sg3
I0
sS'JJ'
p9576
I1
sS'NNP-NP'
p9577
I1
sg5
VDrug
p9578
sg7
I2
sS'VBN-VP'
p9579
I1
sS'JJ-NP'
p9580
I1
sS'NN'
p9581
I5
sS'NNS-NP'
p9582
I2
sS'NN-NP'
p9583
I5
sg12
I2
sS'NNS'
p9584
I2
sS'NNP'
p9585
I1
sa(dp9586
g2
I0
sS'VBD'
p9587
I1
sS'VBD-VP'
p9588
I1
sS'VBN'
p9589
I1
sg3
I0
sS'JJ'
p9590
I2
sS'NNP-NP'
p9591
I1
sg5
VDrug
p9592
sg7
I4
sS'VBN-VP'
p9593
I1
sS'JJ-NP'
p9594
I2
sS'NN'
p9595
I2
sS'NNS-NP'
p9596
I1
sS'NN-NP'
p9597
I2
sg12
I9
sS'NNS'
p9598
I1
sS'NNP'
p9599
I1
sa(dp9600
g2
I0
sS'VBD'
p9601
I1
sS'VBD-VP'
p9602
I1
sS'VBN'
p9603
I1
sg3
I0
sS'JJ'
p9604
I2
sS'NNP-NP'
p9605
I1
sg5
VDrug
p9606
sg7
I3
sS'VBN-VP'
p9607
I1
sS'JJ-NP'
p9608
I2
sS'NN'
p9609
I1
sS'NNS-NP'
p9610
I1
sS'NN-NP'
p9611
I1
sg12
I9
sS'NNS'
p9612
I1
sS'NNP'
p9613
I1
sa(dp9614
g2
I0
sS'VBD'
p9615
I1
sS'VBD-VP'
p9616
I1
sS'VBN'
p9617
I1
sg3
I0
sS'JJ'
p9618
I1
sS'NNP-NP'
p9619
I1
sg5
VDrug
p9620
sg7
I2
sS'VBN-VP'
p9621
I1
sS'JJ-NP'
p9622
I1
sS'NN'
p9623
I2
sS'NNS-NP'
p9624
I1
sS'NN-NP'
p9625
I2
sg12
I9
sS'NNS'
p9626
I1
sS'NNP'
p9627
I1
sa(dp9628
g2
I0
sS'VBD'
p9629
I1
sS'VBD-VP'
p9630
I1
sS'VBN'
p9631
I1
sg3
I0
sS'JJ'
p9632
I2
sS'NNP-NP'
p9633
I1
sg5
VDisorder
p9634
sg7
I3
sS'VBN-VP'
p9635
I1
sS'JJ-NP'
p9636
I2
sS'NN'
p9637
I1
sS'NNS-NP'
p9638
I1
sS'NN-NP'
p9639
I1
sg12
I10
sS'NNS'
p9640
I1
sS'NNP'
p9641
I1
sa(dp9642
g2
I0
sS'VBD'
p9643
I1
sS'VBD-VP'
p9644
I1
sS'VBN'
p9645
I1
sg3
I0
sS'JJ'
p9646
I1
sS'NNP-NP'
p9647
I2
sg5
VDisorder
p9648
sg7
I0
sS'VBN-VP'
p9649
I1
sS'JJ-NP'
p9650
I1
sS'NN'
p9651
I6
sS'NNS-NP'
p9652
I2
sS'NN-NP'
p9653
I6
sg12
I13
sS'NNS'
p9654
I2
sS'NNP'
p9655
I2
sa(dp9656
S'NN'
p9657
I1
sg2
I0
sS'NNS'
p9658
I1
sS'NNS-NP'
p9659
I1
sg3
I0
sS'NN-NP'
p9660
I1
sg12
I0
sg5
VDrug
p9661
sg7
I0
sa(dp9662
S'VB'
p9663
I1
sg2
I1
sS'VBD'
p9664
I1
sS'VBD-VP'
p9665
I1
sS'VBN'
p9666
I1
sg3
I0
sS'JJ'
p9667
I1
sg5
VDrug
p9668
sg7
I4
sS'VBN-VP'
p9669
I1
sS'JJ-NP'
p9670
I1
sS'VB-VP'
p9671
I1
sS'NN'
p9672
I5
sS'NNS-NP'
p9673
I2
sS'NN-NP'
p9674
I5
sg12
I3
sS'NNS'
p9675
I2
sa(dp9676
S'VB'
p9677
I1
sg2
I0
sS'VBD'
p9678
I1
sS'VBD-VP'
p9679
I1
sS'VBN'
p9680
I1
sg3
I0
sS'JJ'
p9681
I1
sg5
VDisorder
p9682
sg7
I2
sS'VBN-VP'
p9683
I1
sS'JJ-NP'
p9684
I1
sS'NN'
p9685
I4
sS'VB-VP'
p9686
I1
sS'NNS-NP'
p9687
I1
sS'NN-NP'
p9688
I4
sg12
I10
sS'NNS'
p9689
I1
sa(dp9690
S'JJ-NP'
p9691
I1
sS'CD-NP'
p9692
I1
sg2
I0
sS'NNS'
p9693
I2
sS'NNS-NP'
p9694
I2
sS'CD'
p9695
I1
sg3
I0
sS'NN-NP'
p9696
I1
sS'NN'
p9697
I1
sg12
I5
sS'JJ'
p9698
I1
sg5
VDisorder
p9699
sg7
I0
sa(dp9700
g2
I0
sS'VBD'
p9701
I2
sS'VBD-VP'
p9702
I2
sS'VBN'
p9703
I1
sS'CD'
p9704
I1
sg3
I0
sS'JJ'
p9705
I1
sS'IN'
p9706
I1
sg5
VDisorder
p9707
sg7
I2
sS'VBN-VP'
p9708
I1
sS'JJ-NP'
p9709
I1
sS'CD-NP'
p9710
I1
sS'NN'
p9711
I1
sS'IN-PP'
p9712
I1
sS'VBN-NP'
p9713
I1
sS'NNS-NP'
p9714
I1
sS'NN-NP'
p9715
I1
sg12
I9
sS'NNS'
p9716
I1
sa(dp9717
g2
I0
sS'VBD'
p9718
I2
sS'VBD-VP'
p9719
I2
sS'VBN'
p9720
I1
sS'CD'
p9721
I1
sg3
I0
sS'JJ'
p9722
I1
sS'IN'
p9723
I1
sg5
VDisorder
p9724
sg7
I2
sS'VBN-VP'
p9725
I1
sS'JJ-NP'
p9726
I1
sS'CD-NP'
p9727
I1
sS'NN'
p9728
I1
sS'IN-PP'
p9729
I1
sS'VBN-NP'
p9730
I1
sS'NNS-NP'
p9731
I1
sS'NN-NP'
p9732
I1
sg12
I9
sS'NNS'
p9733
I1
sa(dp9734
S'VB'
p9735
I1
sS'NN'
p9736
I1
sg2
I1
sg3
I0
sS'NN-NP'
p9737
I1
sg12
I3
sS'VB-VP'
p9738
I1
sS'NNP-NP'
p9739
I1
sg5
VDisorder
p9740
sg7
I1
sS'NNP'
p9741
I1
sa(dp9742
S'VB'
p9743
I1
sg2
I1
sS'VBN'
p9744
I1
sS'CD'
p9745
I1
sg3
I0
sS'JJ'
p9746
I1
sS'VB-VP'
p9747
I1
sS'NNP-NP'
p9748
I1
sg5
VDisorder
p9749
sg7
I1
sS'VBN-VP'
p9750
I1
sS'JJ-NP'
p9751
I1
sS'CD-NP'
p9752
I1
sS'NN'
p9753
I1
sS'NN-NP'
p9754
I1
sg12
I4
sS'NNP'
p9755
I1
sa(dp9756
S'VBP-VP'
p9757
I1
sS'JJ-NP'
p9758
I1
sS'NN'
p9759
I2
sg2
I1
sg3
I0
sS'NN-NP'
p9760
I2
sS'VBP'
p9761
I1
sg12
I3
sS'JJ'
p9762
I1
sS'NNP-NP'
p9763
I1
sg5
VDisorder
p9764
sg7
I0
sS'NNP'
p9765
I1
sa(dp9766
g2
I1
sS'VBN'
p9767
I1
sS'CD'
p9768
I1
sg3
I0
sS'VBP'
p9769
I1
sS'VBP-VP'
p9770
I1
sS'JJ'
p9771
I1
sS'NNP-NP'
p9772
I1
sg5
VDisorder
p9773
sg7
I0
sS'VBN-VP'
p9774
I1
sS'JJ-NP'
p9775
I1
sS'CD-NP'
p9776
I1
sS'NN'
p9777
I1
sS'NN-NP'
p9778
I1
sg12
I4
sS'NNP'
p9779
I1
sa(dp9780
S'JJ-NP'
p9781
I1
sS'NN'
p9782
I1
sg2
I0
sg3
I0
sS'NN-NP'
p9783
I1
sg12
I3
sS'JJ'
p9784
I1
sS'NNP-NP'
p9785
I1
sg5
VDisorder
p9786
sg7
I0
sS'NNP'
p9787
I1
sa(dp9788
g2
I0
sS'VBN'
p9789
I1
sS'CD'
p9790
I1
sg3
I0
sS'JJ'
p9791
I1
sS'NNP-NP'
p9792
I1
sg5
VDisorder
p9793
sg7
I0
sS'VBN-VP'
p9794
I1
sS'JJ-NP'
p9795
I1
sS'CD-NP'
p9796
I1
sS'NN'
p9797
I2
sS'NN-NP'
p9798
I2
sg12
I4
sS'NNP'
p9799
I1
sa(dp9800
S'VBP-VP'
p9801
I1
sS'CD-NP'
p9802
I1
sg2
I1
sS'VBP'
p9803
I1
sS'NNS'
p9804
I2
sS'NNS-NP'
p9805
I1
sS'VBN'
p9806
I1
sS'CD'
p9807
I1
sg3
I0
sS'NN-NP'
p9808
I3
sS'NN'
p9809
I3
sg12
I10
sS'NNP-NP'
p9810
I3
sg5
VDisorder
p9811
sg7
I0
sS'NNP'
p9812
I3
sa(dp9813
g2
I1
sS'VBN'
p9814
I1
sS'CD'
p9815
I1
sg3
I0
sS'VBP'
p9816
I1
sS'VBP-VP'
p9817
I1
sS'JJ'
p9818
I1
sS'NNP-NP'
p9819
I3
sg5
VDisorder
p9820
sg7
I0
sS'VBN-VP'
p9821
I1
sS'CD-NP'
p9822
I1
sS'NN'
p9823
I1
sS'NNS-NP'
p9824
I1
sS'NN-NP'
p9825
I1
sg12
I11
sS'NNS'
p9826
I2
sS'NNP'
p9827
I3
sa(dp9828
S'CD-NP'
p9829
I1
sg2
I0
sS'NNS'
p9830
I2
sS'NNS-NP'
p9831
I1
sS'VBN'
p9832
I1
sS'CD'
p9833
I1
sg3
I0
sS'NN-NP'
p9834
I1
sS'NN'
p9835
I1
sg12
I10
sS'NNP-NP'
p9836
I3
sg5
VDisorder
p9837
sg7
I0
sS'NNP'
p9838
I3
sa(dp9839
g2
I0
sS'VBN'
p9840
I1
sS'CD'
p9841
I1
sg3
I0
sS'JJ'
p9842
I1
sS'NNP-NP'
p9843
I3
sg5
VDisorder
p9844
sg7
I0
sS'VBN-VP'
p9845
I1
sS'CD-NP'
p9846
I1
sS'NN'
p9847
I2
sS'NNS-NP'
p9848
I1
sS'NN-NP'
p9849
I2
sg12
I11
sS'NNS'
p9850
I2
sS'NNP'
p9851
I3
sa(dp9852
S'VB'
p9853
I1
sg2
I1
sS'VBD'
p9854
I1
sS'CC'
p9855
I1
sS'VBD-VP'
p9856
I1
sS'VBN'
p9857
I1
sS'CD'
p9858
I2
sg3
I0
sS'JJ'
p9859
I3
sS'NNP-NP'
p9860
I1
sg5
VDisorder
p9861
sg7
I0
sS'VBN-VP'
p9862
I1
sS'JJ-NP'
p9863
I1
sS'CD-NP'
p9864
I1
sS'NN'
p9865
I1
sS'VBN-NP'
p9866
I1
sS'NNS-NP'
p9867
I1
sS'NN-NP'
p9868
I4
sg12
I3
sS'NNS'
p9869
I1
sS'NNP'
p9870
I1
sa(dp9871
S'VB'
p9872
I1
sg2
I1
sS'VBD'
p9873
I1
sS'CC'
p9874
I1
sS'VBD-VP'
p9875
I1
sS'VBN'
p9876
I1
sS'CD'
p9877
I2
sg3
I0
sS'JJ'
p9878
I3
sS'NNP-NP'
p9879
I1
sS'RB-VP'
p9880
I1
sg5
VDisorder
p9881
sg7
I0
sS'VBN-VP'
p9882
I1
sS'JJ-NP'
p9883
I1
sS'NN'
p9884
I1
sS'VBN-NP'
p9885
I1
sS'NNS-NP'
p9886
I1
sS'NN-NP'
p9887
I2
sg12
I6
sS'RB'
p9888
I1
sS'NNS'
p9889
I1
sS'NNP'
p9890
I1
sa(dp9891
S'VB'
p9892
I2
sg2
I1
sS'VBD'
p9893
I1
sS'CC'
p9894
I2
sS'VBD-VP'
p9895
I1
sS'VBN'
p9896
I4
sS'CD'
p9897
I2
sg3
I0
sS'VBP'
p9898
I1
sS'VBP-VP'
p9899
I1
sS'JJ'
p9900
I3
sS'NNP-NP'
p9901
I1
sg5
VDisorder
p9902
sg7
I3
sS'VBN-VP'
p9903
I1
sS'JJ-NP'
p9904
I1
sS'CD-NP'
p9905
I2
sS'NN'
p9906
I1
sS'VBN-NP'
p9907
I1
sS'NNS-NP'
p9908
I1
sS'NN-NP'
p9909
I1
sg12
I3
sS'NNS'
p9910
I1
sS'NNP'
p9911
I1
sa(dp9912
S'VB'
p9913
I2
sg2
I1
sS'VBD'
p9914
I1
sS'CC'
p9915
I2
sS'VBD-VP'
p9916
I1
sS'VBN'
p9917
I4
sS'CD'
p9918
I2
sg3
I0
sS'VBP'
p9919
I1
sS'VBP-VP'
p9920
I1
sS'JJ'
p9921
I3
sS'NNP-NP'
p9922
I1
sS'RB-VP'
p9923
I1
sg5
VDisorder
p9924
sg7
I3
sS'VBN-VP'
p9925
I1
sS'JJ-NP'
p9926
I1
sS'CD-NP'
p9927
I2
sS'NN'
p9928
I1
sS'VBN-NP'
p9929
I1
sS'NNS-NP'
p9930
I1
sS'NN-NP'
p9931
I1
sg12
I6
sS'RB'
p9932
I1
sS'NNS'
p9933
I1
sS'NNP'
p9934
I1
sa(dp9935
S'VB'
p9936
I2
sg2
I0
sS'VBD'
p9937
I1
sS'CC'
p9938
I2
sS'VBD-VP'
p9939
I1
sS'VBN'
p9940
I4
sS'CD'
p9941
I2
sg3
I0
sS'JJ'
p9942
I3
sS'NNP-NP'
p9943
I1
sg5
VDisorder
p9944
sg7
I3
sS'VBN-VP'
p9945
I1
sS'JJ-NP'
p9946
I1
sS'CD-NP'
p9947
I2
sS'NN'
p9948
I1
sS'VBN-NP'
p9949
I1
sS'NNS-NP'
p9950
I1
sS'NN-NP'
p9951
I1
sg12
I3
sS'NNS'
p9952
I1
sS'NNP'
p9953
I1
sa(dp9954
S'VB'
p9955
I2
sg2
I0
sS'VBD'
p9956
I1
sS'CC'
p9957
I2
sS'VBD-VP'
p9958
I1
sS'VBN'
p9959
I4
sS'CD'
p9960
I2
sg3
I0
sS'JJ'
p9961
I3
sS'NNP-NP'
p9962
I1
sS'RB-VP'
p9963
I1
sg5
VDisorder
p9964
sg7
I3
sS'VBN-VP'
p9965
I1
sS'JJ-NP'
p9966
I1
sS'CD-NP'
p9967
I2
sS'NN'
p9968
I1
sS'VBN-NP'
p9969
I1
sS'NNS-NP'
p9970
I1
sS'NN-NP'
p9971
I1
sg12
I6
sS'RB'
p9972
I1
sS'NNS'
p9973
I1
sS'NNP'
p9974
I1
sa(dp9975
g2
I1
sS'VBD'
p9976
I1
sS'VBD-VP'
p9977
I1
sS'VBN'
p9978
I1
sS'CD'
p9979
I1
sg3
I0
sS'JJ'
p9980
I1
sg5
VDrug
p9981
sg7
I2
sS'VBN-VP'
p9982
I1
sS'JJ-NP'
p9983
I1
sS'CD-NP'
p9984
I1
sS'NN'
p9985
I1
sS'NNS-NP'
p9986
I1
sS'NN-NP'
p9987
I1
sg12
I2
sS'RB'
p9988
I2
sS'NNS'
p9989
I1
sa(dp9990
g2
I1
sS'VBD'
p9991
I1
sS'VBD-VP'
p9992
I1
sS'VBN'
p9993
I1
sS'CD'
p9994
I1
sg3
I0
sS'JJ'
p9995
I1
sg5
VDrug
p9996
sg7
I2
sS'VBN-VP'
p9997
I1
sS'JJ-NP'
p9998
I1
sS'CD-NP'
p9999
I1
sS'NN'
p10000
I1
sS'NNS-NP'
p10001
I1
sS'NN-NP'
p10002
I1
sg12
I7
sS'NNS'
p10003
I1
sa(dp10004
g2
I0
sS'VBD'
p10005
I1
sS'VBD-VP'
p10006
I1
sS'VBN'
p10007
I1
sS'CD'
p10008
I1
sg3
I0
sS'JJ'
p10009
I1
sg5
VDisorder
p10010
sg7
I0
sS'VBN-VP'
p10011
I1
sS'JJ-NP'
p10012
I1
sS'CD-NP'
p10013
I1
sS'NN'
p10014
I4
sS'NNS-NP'
p10015
I1
sS'NN-NP'
p10016
I3
sg12
I12
sS'RB'
p10017
I2
sS'NNS'
p10018
I1
sa(dp10019
S'VBG'
p10020
I1
sg2
I0
sS'VBG-VP'
p10021
I1
sg3
I0
sS'JJ'
p10022
I1
sS'IN'
p10023
I2
sS'NNP-NP'
p10024
I1
sg5
VDisorder
p10025
sg7
I0
sS'JJ-NP'
p10026
I1
sS'NN'
p10027
I1
sS'JJR-NP'
p10028
I1
sS'IN-PP'
p10029
I2
sS'NNS-NP'
p10030
I1
sS'JJR'
p10031
I1
sS'NN-NP'
p10032
I1
sg12
I9
sS'NNS'
p10033
I1
sS'NNP'
p10034
I1
sa.