(dp0
S'0.13'
p1
F7.049
sS'cytosol'
p2
F0.0
sS'phosphoryl'
p3
F24.67
sS'hypercholesterolemia'
p4
F0.0
sS'pyridin-3-yl'
p5
F0.0
sS'1,3'
p6
F0.0
sS'nafe-edta'
p7
F0.0
sS'four'
p8
F10.573
sS'sleev'
p9
F0.0
sS'dysplasia'
p10
F14.097
sS'neoplasia'
p11
F0.0
sS'estrogen-depend'
p12
F0.0
sS'14.3+/-0.9'
p13
F0.0
sS'biaxin'
p14
F0.0
sS'whose'
p15
F3.524
sS'accur'
p16
F0.0
sS'neurodegen'
p17
F0.0
sS'topoisomeras'
p18
F7.049
sS'hcc'
p19
F0.0
sS'antimicrobi'
p20
F0.0
sS'overexpress'
p21
F3.524
sS'intron'
p22
F10.573
sS'3-like'
p23
F0.0
sS'rfc,'
p24
F0.0
sS'interphas'
p25
F0.0
sS'sub-group'
p26
F0.0
sS'exercise-induc'
p27
F0.0
sS'61.9+/-29.0'
p28
F0.0
sS'risk'
p29
F137.446
sS'downstream'
p30
F3.524
sS'45.2'
p31
F0.0
sS'rs3826047'
p32
F3.524
sS'quantif'
p33
F0.0
sS'manic'
p34
F7.049
sS'nalp3'
p35
F3.524
sS'mac251'
p36
F0.0
sS'6q23'
p37
F0.0
sS'pgp,'
p38
F0.0
sS'affect'
p39
F31.718
sS'lidocain'
p40
F0.0
sS'calcif'
p41
F3.524
sS'quantit'
p42
F0.0
sS'special'
p43
F0.0
sS'anemia'
p44
F0.0
sS'warsaw,'
p45
F0.0
sS'school'
p46
F0.0
sS'cml'
p47
F7.049
sS'zr-75'
p48
F0.0
sS'mdr1-transduc'
p49
F0.0
sS'co-express'
p50
F0.0
sS'semisynthet'
p51
F0.0
sS'ref'
p52
F0.0
sS'glra1'
p53
F0.0
sS'tion'
p54
F0.0
sS'8-iso-pgf'
p55
F0.0
sS'clinicopatholog'
p56
F0.0
sS'vector'
p57
F7.049
sS'anti-p-gp'
p58
F0.0
sS'lsd1'
p59
F0.0
sS'cholesterol'
p60
F7.049
sS'295'
p61
F3.524
sS'recov'
p62
F0.0
sS'proteas'
p63
F0.0
sS'ppargamma'
p64
F10.573
sS'ghrh'
p65
F10.573
sS'zinc'
p66
F0.0
sS'shg-44'
p67
F0.0
sS'c5a-induc'
p68
F0.0
sS'direct'
p69
F17.621
sS'cyclooxygenas'
p70
F0.0
sS'arg399gln,'
p71
F0.0
sS'rs6503919'
p72
F3.524
sS'second'
p73
F7.049
sS'diseas'
p74
F49.34
sS'creatinin'
p75
F0.0
sS'me2'
p76
F0.0
sS'56kda'
p77
F0.0
sS'her2'
p78
F0.0
sS'cyclas'
p79
F0.0
sS'illumin'
p80
F0.0
sS'intragen'
p81
F0.0
sS'even'
p82
F0.0
sS'aim'
p83
F0.0
sS'giardia'
p84
F0.0
sS'calcium'
p85
F3.524
sS'homeostasi'
p86
F0.0
sS'pro231ser,'
p87
F0.0
sS'near'
p88
F17.621
sS'poison'
p89
F0.0
sS'children'
p90
F10.573
sS'intergen'
p91
F3.524
sS'fusariosis,'
p92
F0.0
sS'bipolar'
p93
F3.524
sS'drug'
p94
F14.097
sS'trans-4-'
p95
F0.0
sS'dr.'
p96
F0.0
sS'periumbil'
p97
F0.0
sS'new'
p98
F7.049
sS'symmetr'
p99
F0.0
sS'p=0.005'
p100
F0.0
sS'p=0.002'
p101
F0.0
sS'p=0.003'
p102
F0.0
sS'p=0.001'
p103
F0.0
sS'ongo'
p104
F0.0
sS'elimin'
p105
F0.0
sS'mef'
p106
F14.097
sS'converg'
p107
F0.0
sS'tail-skin'
p108
F0.0
sS'hydrolysi'
p109
F0.0
sS'men'
p110
F7.049
sS'gefitinib'
p111
F7.049
sS'mek'
p112
F3.524
sS'endothelium'
p113
F3.524
sS'mg/day'
p114
F0.0
sS'metastas'
p115
F0.0
sS'locomot'
p116
F0.0
sS'metastat'
p117
F0.0
sS'aid'
p118
F0.0
sS'pancreat'
p119
F3.524
sS'103'
p120
F0.0
sS'100'
p121
F31.718
sS'enrol'
p122
F0.0
sS'gli'
p123
F0.0
sS'0.39'
p124
F0.0
sS'taper'
p125
F7.049
sS'postop'
p126
F0.0
sS'k'
p127
F10.573
sS'su11248'
p128
F0.0
sS'0.33'
p129
F0.0
sS'deregul'
p130
F0.0
sS'0.31'
p131
F7.049
sS'0.30'
p132
F7.049
sS'dri'
p133
F0.0
sS'consequently,'
p134
F0.0
sS'il-1alpha'
p135
F0.0
sS'pdx-1'
p136
F3.524
sS'studi'
p137
F17.621
sS'rs3825942'
p138
F3.524
sS'almost'
p139
F3.524
sS'rnai-medi'
p140
F0.0
sS'controversi'
p141
F0.0
sS'interferon'
p142
F0.0
sS'cyclosporine,'
p143
F0.0
sS'bcrp-,'
p144
F3.524
sS'p-gp'
p145
F0.0
sS'campaign'
p146
F0.0
sS'ecstasi'
p147
F3.524
sS'bioavail'
p148
F0.0
sS'tertiari'
p149
F0.0
sS'avenu'
p150
F0.0
sS'cytolyt'
p151
F0.0
sS'blockad'
p152
F3.524
sS'1.05-1.61'
p153
F0.0
sS'population,'
p154
F0.0
sS'mg/m'
p155
F38.767
sS'total'
p156
F0.0
sS'2alpha'
p157
F0.0
sS'rs706778,'
p158
F0.0
sS'unit'
p159
F0.0
sS'fr'
p160
F0.0
sS'htert'
p161
F0.0
sS'dna'
p162
F52.864
sS'describ'
p163
F3.524
sS'would'
p164
F3.524
sS'isoform'
p165
F0.0
sS'leaki'
p166
F0.0
sS'depsipeptid'
p167
F0.0
sS'mening'
p168
F0.0
sS't-cell'
p169
F3.524
sS'meloxicam'
p170
F0.0
sS'myelodysplast'
p171
F0.0
sS'recommend'
p172
F0.0
sS'strike'
p173
F0.0
sS'2-year-old'
p174
F0.0
sS'type'
p175
F7.049
sS'1.7/1.4'
p176
F0.0
sS'covariables,'
p177
F0.0
sS'angiogenesis/'
p178
F3.524
sS'angiogenesis,'
p179
F0.0
sS'comorbid'
p180
F0.0
sS'43'
p181
F0.0
sS'71.8'
p182
F0.0
sS'relat'
p183
F42.291
sS'snps,'
p184
F0.0
sS'19.9'
p185
F0.0
sS'nod2,'
p186
F0.0
sS'resistance-associ'
p187
F0.0
sS'0.09/0.09'
p188
F0.0
sS'adult'
p189
F3.524
sS'fetuin-a'
p190
F0.0
sS'protozoan'
p191
F0.0
sS'91'
p192
F0.0
sS'90'
p193
F17.621
sS'93'
p194
F0.0
sS'95'
p195
F70.485
sS'laparoscopi'
p196
F0.0
sS'leukopenia'
p197
F0.0
sS'mg'
p198
F38.767
sS'rs2228570'
p199
F0.0
sS'sfrp4'
p200
F0.0
sS'restor'
p201
F14.097
sS'mm'
p202
F3.524
sS'fluency,'
p203
F0.0
sS'work'
p204
F0.0
sS'mi'
p205
F0.0
sS'pdgf-r-a'
p206
F0.0
sS'ere'
p207
F0.0
sS'tnf'
p208
F7.049
sS'ms'
p209
F0.0
sS'mr'
p210
F3.524
sS'cytochrom'
p211
F0.0
sS'wnt7a'
p212
F0.0
sS'could'
p213
F35.243
sS'chemoresist'
p214
F0.0
sS'kinet'
p215
F0.0
sS'rd16'
p216
F0.0
sS'hemoglobin'
p217
F3.524
sS'lipophil'
p218
F0.0
sS'infus'
p219
F0.0
sS'cg+gg'
p220
F0.0
sS'impair'
p221
F21.146
sS'malign'
p222
F7.049
sS'neural'
p223
F0.0
sS'avoid'
p224
F3.524
sS'simian'
p225
F0.0
sS'pcr-rflp'
p226
F0.0
sS'preoper'
p227
F0.0
sS'piperidin-1-yl'
p228
F0.0
sS'51.6'
p229
F3.524
sS'real-tim'
p230
F0.0
sS'hob'
p231
F0.0
sS'cypa'
p232
F3.524
sS'75.8'
p233
F3.524
sS'quot'
p234
F0.0
sS'1.21-12.14'
p235
F0.0
sS'travel'
p236
F0.0
sS'monoclon'
p237
F3.524
sS'thapsigargin,'
p238
F0.0
sS'length'
p239
F24.67
sS'classifi'
p240
F0.0
sS'craniofaci'
p241
F0.0
sS'intestin'
p242
F7.049
sS'rhesus'
p243
F0.0
sS'recoveri'
p244
F0.0
sS'ccag/ccag'
p245
F0.0
sS'268521'
p246
F0.0
sS'verifi'
p247
F0.0
sS'g908r'
p248
F0.0
sS'doxorubicin/vincristine/prednison'
p249
F3.524
sS'1177'
p250
F0.0
sS'fever'
p251
F7.049
sS'0.52-0.94'
p252
F0.0
sS'1q44'
p253
F0.0
sS'sw-480'
p254
F0.0
sS'chines'
p255
F0.0
sS'pro231ser'
p256
F24.67
sS'luciferas'
p257
F0.0
sS'cox-2'
p258
F0.0
sS'a1298c'
p259
F0.0
sS'befor'
p260
F14.097
sS'modest'
p261
F0.0
sS'feso4+'
p262
F0.0
sS'osteoblast'
p263
F0.0
sS'nucleotid'
p264
F17.621
sS'tshr'
p265
F0.0
sS'parallel'
p266
F3.524
sS'demonstr'
p267
F17.621
sS'subcutan'
p268
F17.621
sS'embol'
p269
F0.0
sS'23.78'
p270
F0.0
sS't2dm'
p271
F0.0
sS'attempt'
p272
F0.0
sS'vicin'
p273
F0.0
sS'coxofemor'
p274
F0.0
sS'population-bas'
p275
F0.0
sS'igg1'
p276
F3.524
sS'well-characteris'
p277
F0.0
sS'p=0.028'
p278
F14.097
sS'receiv'
p279
F59.912
sS'maintain'
p280
F10.573
sS'689'
p281
F0.0
sS'aldh7a1'
p282
F0.0
sS'21-year-old'
p283
F0.0
sS'icam-1'
p284
F31.718
sS'order'
p285
F10.573
sS'hedgehog'
p286
F0.0
sS'fortifi'
p287
F0.0
sS'kappab'
p288
F0.0
sS'diagnos'
p289
F3.524
sS'multicent'
p290
F0.0
sS'upstream'
p291
F7.049
sS'becaus'
p292
F7.049
sS'or=0.63'
p293
F0.0
sS'or=0.62'
p294
F0.0
sS'lymphomagenesi'
p295
F0.0
sS'12.0'
p296
F0.0
sS'0.47-0.80'
p297
F0.0
sS'forty-on'
p298
F0.0
sS'appar'
p299
F3.524
sS'japan'
p300
F0.0
sS'disease,'
p301
F0.0
sS'vari'
p302
F0.0
sS'cll'
p303
F0.0
sS'lymphoblast'
p304
F0.0
sS'imd'
p305
F0.0
sS'triglycerid'
p306
F0.0
sS'cld'
p307
F0.0
sS'del'
p308
F0.0
sS'gastrointestin'
p309
F10.573
sS'homozyg'
p310
F0.0
sS'better'
p311
F3.524
sS'offic'
p312
F0.0
sS'persist'
p313
F0.0
sS'chop/eshap'
p314
F0.0
sS'preclin'
p315
F0.0
sS'hidden'
p316
F0.0
sS'o104'
p317
F0.0
sS'rhiniti'
p318
F0.0
sS'versus'
p319
F7.049
sS'anim'
p320
F3.524
sS'therapi'
p321
F45.815
sS'subtot'
p322
F0.0
sS'non-homolog'
p323
F24.67
sS'fragment'
p324
F24.67
sS'promin'
p325
F3.524
sS'safe'
p326
F7.049
sS'monocyt'
p327
F7.049
sS'rs677221-g'
p328
F3.524
sS'foki'
p329
F3.524
sS'moieti'
p330
F0.0
sS'break'
p331
F0.0
sS'p=0.0002'
p332
F3.524
sS'p=0.0001'
p333
F0.0
sS'hypoxia'
p334
F0.0
sS'promis'
p335
F3.524
sS'celecoxib'
p336
F0.0
sS'surgic'
p337
F0.0
sS'2-morpholinoethoxi'
p338
F0.0
sS'one'
p339
F31.718
sS'choic'
p340
F3.524
sS'1.02'
p341
F3.524
sS'oxygen'
p342
F0.0
sS'c-delta'
p343
F0.0
sS'l'
p344
F0.0
sS'diastol'
p345
F0.0
sS'arrest'
p346
F0.0
sS'localis'
p347
F0.0
sS'mrna'
p348
F21.146
sS'down-regulatori'
p349
F3.524
sS'complet'
p350
F3.524
sS'374'
p351
F0.0
sS'bone'
p352
F0.0
sS'mean'
p353
F17.621
sS'hippocampi'
p354
F7.049
sS'pml/raralpha'
p355
F0.0
sS'chemokine-stimul'
p356
F0.0
sS'apolipoprotein'
p357
F0.0
sS'knockout'
p358
F7.049
sS'laboratori'
p359
F0.0
sS'setpoint'
p360
F0.0
sS'intraop'
p361
F0.0
sS's65c'
p362
F0.0
sS'high-dens'
p363
F0.0
sS'79.8'
p364
F0.0
sS'kd=2.4'
p365
F0.0
sS'cyp4f2'
p366
F0.0
sS'hydroxyphenyl'
p367
F0.0
sS'fluorogen'
p368
F0.0
sS'depress'
p369
F14.097
sS'rs1784235'
p370
F3.524
sS'network'
p371
F0.0
sS'rr'
p372
F0.0
sS'ceramide,'
p373
F0.0
sS'newli'
p374
F3.524
sS'a1650g'
p375
F0.0
sS'dss'
p376
F7.049
sS'content'
p377
F0.0
sS'verapamil'
p378
F3.524
sS'ppargamma-induc'
p379
F0.0
sS'ra'
p380
F28.194
sS'mini-basdai'
p381
F0.0
sS'factor-kappab'
p382
F17.621
sS'forti'
p383
F0.0
sS'sensori'
p384
F0.0
sS'ad20'
p385
F0.0
sS'phosphatidylethanolamin'
p386
F0.0
sS'vegf-r'
p387
F0.0
sS'rs2165241'
p388
F10.573
sS'esmolol'
p389
F0.0
sS'overweight'
p390
F0.0
sS'u.s.'
p391
F0.0
sS'transduct'
p392
F0.0
sS'situat'
p393
F0.0
sS'asp312asn'
p394
F0.0
sS'free'
p395
F0.0
sS'standard'
p396
F0.0
sS'lineag'
p397
F0.0
sS'rs3093135,'
p398
F0.0
sS'duodenali'
p399
F0.0
sS'liglv'
p400
F24.67
sS'mononuclear'
p401
F0.0
sS'py1173'
p402
F0.0
sS'non-fat'
p403
F0.0
sS'248'
p404
F0.0
sS'monkey'
p405
F0.0
sS'untreat'
p406
F0.0
sS'endophthalm'
p407
F0.0
sS'reconfigur'
p408
F0.0
sS'0.84'
p409
F0.0
sS'atm'
p410
F0.0
sS'english-languag'
p411
F0.0
sS'silicon'
p412
F0.0
sS'gjb6-d13s1,854'
p413
F0.0
sS'atherosclerosi'
p414
F3.524
sS'atr'
p415
F0.0
sS'pattern'
p416
F0.0
sS'abeta'
p417
F3.524
sS'chemotherapi'
p418
F24.67
sS'regress'
p419
F0.0
sS'pesticid'
p420
F0.0
sS'rituximab/cyclophosphamide/'
p421
F0.0
sS'rs13199524'
p422
F0.0
sS'adj'
p423
F0.0
sS'user'
p424
F3.524
sS'still'
p425
F0.0
sS'rang'
p426
F3.524
sS'obstacl'
p427
F0.0
sS'grade'
p428
F7.049
sS'nhl'
p429
F0.0
sS'independ'
p430
F3.524
sS'vitro'
p431
F0.0
sS'agrp'
p432
F0.0
sS'enpp1'
p433
F3.524
sS'restrict'
p434
F0.0
sS'rant'
p435
F0.0
sS'unlik'
p436
F0.0
sS'pheophorbid'
p437
F0.0
sS'0.89-1.07'
p438
F0.0
sS'vascul'
p439
F0.0
sS'primari'
p440
F3.524
sS'42'
p441
F0.0
sS'170'
p442
F0.0
sS'v1a,'
p443
F0.0
sS'0.09'
p444
F0.0
sS'p-gp-'
p445
F3.524
sS'0.03'
p446
F3.524
sS'radioisotop'
p447
F0.0
sS'speci'
p448
F0.0
sS'gain-of-funct'
p449
F0.0
sS'0.04'
p450
F3.524
sS'0.05'
p451
F3.524
sS'1b'
p452
F0.0
sS'7-hydroxy-5,6,7,8-tetrahydronaphthalen-1-yl'
p453
F0.0
sS'role,'
p454
F0.0
sS'intraven'
p455
F10.573
sS'her2/'
p456
F0.0
sS'flt-1'
p457
F0.0
sS'p=0.01'
p458
F0.0
sS'0.065'
p459
F0.0
sS'tool'
p460
F3.524
sS'yield'
p461
F0.0
sS't180k,'
p462
F0.0
sS'del-g-g'
p463
F14.097
sS'c6-7'
p464
F0.0
sS'cysteamin'
p465
F0.0
sS'western'
p466
F3.524
sS'conserv'
p467
F7.049
sS'over-express'
p468
F0.0
sS'cb1/'
p469
F0.0
sS'nsclc'
p470
F0.0
sS'symptom'
p471
F0.0
sS'p53'
p472
F3.524
sS'nodosum'
p473
F0.0
sS'pertussi'
p474
F0.0
sS'target'
p475
F17.621
sS'monogen'
p476
F0.0
sS'sw620'
p477
F0.0
sS'provid'
p478
F21.146
sS'biolog'
p479
F0.0
sS'tnfalpha'
p480
F3.524
sS'18.9'
p481
F0.0
sS'gtpase-defici'
p482
F0.0
sS'ex8-56a'
p483
F0.0
sS'nephropath'
p484
F0.0
sS'iron'
p485
F0.0
sS'entri'
p486
F0.0
sS'fetuin'
p487
F7.049
sS'viscer'
p488
F0.0
sS'antiinflammatori'
p489
F0.0
sS'vinblastin'
p490
F3.524
sS'stimuli'
p491
F3.524
sS'foki,'
p492
F0.0
sS'1.2-1.9'
p493
F10.573
sS'raf'
p494
F0.0
sS'p53-depend'
p495
F0.0
sS'close'
p496
F21.146
sS'erk1'
p497
F3.524
sS'salvag'
p498
F3.524
sS'mine'
p499
F0.0
sS'rat'
p500
F21.146
sS'chemoprevent'
p501
F0.0
sS'manner'
p502
F0.0
sS'genome-wid'
p503
F0.0
sS'adhd'
p504
F0.0
sS'bronchoconstrict'
p505
F0.0
sS'seen'
p506
F3.524
sS'seem'
p507
F3.524
sS'igf-i'
p508
F0.0
sS'arg194trp,'
p509
F0.0
sS'uv'
p510
F0.0
sS'gm-csf'
p511
F7.049
sS'ki-67'
p512
F0.0
sS'latter'
p513
F0.0
sS'thorough'
p514
F0.0
sS'chest'
p515
F0.0
sS'cleft'
p516
F0.0
sS'non-smal'
p517
F0.0
sS'withdraw'
p518
F0.0
sS'electrophoresi'
p519
F0.0
sS'object'
p520
F0.0
sS'autopsi'
p521
F7.049
sS'regular'
p522
F0.0
sS'bsh'
p523
F0.0
sS'fluconazol'
p524
F10.573
sS'homologue-1'
p525
F0.0
sS'oligonucleotid'
p526
F3.524
sS'prematur'
p527
F0.0
sS'tradit'
p528
F3.524
sS'guidelines,'
p529
F0.0
sS'rs1937970-rs677221'
p530
F0.0
sS'rs13199524,'
p531
F0.0
sS'grove'
p532
F0.0
sS'6-methyl-2-propylimino-6,7-dihydro-5h-benzo'
p533
F0.0
sS'clock'
p534
F0.0
sS'lps'
p535
F7.049
sS'vanilloid'
p536
F7.049
sS'piperazin'
p537
F14.097
sS'a-804598'
p538
F3.524
sS'umbil'
p539
F10.573
sS'granulocyte-macrophag'
p540
F3.524
sS'assay,'
p541
F0.0
sS'detriment'
p542
F0.0
sS'unchang'
p543
F0.0
sS'pyrophosphatase/phosphodiesteras'
p544
F7.049
sS'lpa'
p545
F0.0
sS'fzd5'
p546
F0.0
sS'upregul'
p547
F0.0
sS'cias1'
p548
F3.524
sS'papillari'
p549
F0.0
sS'urovys'
p550
F0.0
sS'transfus'
p551
F3.524
sS'0.037-0.659'
p552
F3.524
sS'7.1'
p553
F0.0
sS'7.6'
p554
F0.0
sS'ulcer'
p555
F0.0
sS'psarl'
p556
F0.0
sS'radic'
p557
F0.0
sS'protocol'
p558
F0.0
sS'd3'
p559
F0.0
sS'd1'
p560
F0.0
sS'692'
p561
F0.0
sS'despit'
p562
F3.524
sS'bind'
p563
F10.573
sS'acquir'
p564
F0.0
sS'spite'
p565
F0.0
sS'delet'
p566
F0.0
sS'uveiti'
p567
F0.0
sS'explain'
p568
F3.524
sS'releas'
p569
F3.524
sS'sympathet'
p570
F0.0
sS'benzylamid'
p571
F7.049
sS'2.4/0.8'
p572
F0.0
sS'549'
p573
F0.0
sS'interleukin-23'
p574
F7.049
sS'rzg'
p575
F0.0
sS'multitr'
p576
F0.0
sS'10'
p577
F14.097
sS'conduct'
p578
F0.0
sS'stop'
p579
F0.0
sS'account'
p580
F0.0
sS'12.6/7.1'
p581
F0.0
sS'2,198'
p582
F0.0
sS'12'
p583
F0.0
sS'tumor-select'
p584
F0.0
sS'p=0.007'
p585
F0.0
sS'report'
p586
F35.243
sS'p53+/+'
p587
F0.0
sS'ipaa'
p588
F0.0
sS'effector'
p589
F0.0
sS'child'
p590
F0.0
sS'diabet'
p591
F0.0
sS'rectal'
p592
F3.524
sS'rs2575735'
p593
F3.524
sS'dimethylamin'
p594
F0.0
sS'adenovir'
p595
F0.0
sS'pro-inflammatori'
p596
F3.524
sS'patch'
p597
F0.0
sS'sauc'
p598
F0.0
sS'twice'
p599
F0.0
sS'superfamili'
p600
F0.0
sS'alcohol-rel'
p601
F3.524
sS'plant'
p602
F0.0
sS'stress-rel'
p603
F0.0
sS'ttgc'
p604
F0.0
sS'diplegia'
p605
F0.0
sS'respond'
p606
F0.0
sS'rs42524'
p607
F0.0
sS'victim'
p608
F0.0
sS'fair'
p609
F0.0
sS'kb-3-1'
p610
F0.0
sS'ci=1.00-6.88'
p611
F0.0
sS'resist'
p612
F28.194
sS'aminopyridine-bas'
p613
F0.0
sS'radius'
p614
F0.0
sS'result'
p615
F42.291
sS'respons'
p616
F49.34
sS'fail'
p617
F0.0
sS'transendotheli'
p618
F0.0
sS'cytotoxin-induc'
p619
F0.0
sS'subject'
p620
F17.621
sS'ckd'
p621
F0.0
sS'awar'
p622
F0.0
sS'01'
p623
F0.0
sS'flt3-itd,'
p624
F0.0
sS'fn1'
p625
F0.0
sS'cytoplasm'
p626
F7.049
sS'heterogen'
p627
F0.0
sS'away'
p628
F7.049
sS'granulomat'
p629
F0.0
sS'irv'
p630
F0.0
sS'discoveri'
p631
F0.0
sS'score'
p632
F0.0
sS'finger'
p633
F0.0
sS'simplest'
p634
F0.0
sS'mum'
p635
F0.0
sS'5q-syndrom'
p636
F0.0
sS'approach'
p637
F10.573
sS'attribut'
p638
F3.524
sS'accord'
p639
F0.0
sS'never'
p640
F0.0
sS'infertil'
p641
F0.0
sS'extend'
p642
F7.049
sS'i/ii/iii'
p643
F0.0
sS'oxaliplatin-bas'
p644
F0.0
sS'weak'
p645
F0.0
sS'vitamin'
p646
F0.0
sS'wi'
p647
F10.573
sS'380'
p648
F0.0
sS'extens'
p649
F3.524
sS'wt'
p650
F0.0
sS'macroscop'
p651
F3.524
sS'extent'
p652
F14.097
sS'ziprasidon'
p653
F0.0
sS'7178189a'
p654
F3.524
sS'toler'
p655
F0.0
sS'ms4a12'
p656
F0.0
sS'alfentanil,'
p657
F0.0
sS'forty-f'
p658
F0.0
sS'b-cell'
p659
F0.0
sS'eef2k'
p660
F0.0
sS'chelator-medi'
p661
F0.0
sS'protect'
p662
F28.194
sS'germlin'
p663
F0.0
sS'hepatotox'
p664
F0.0
sS'agonist'
p665
F3.524
sS'c-reactiv'
p666
F0.0
sS'cox'
p667
F0.0
sS'howev'
p668
F14.097
sS'heterozygot'
p669
F0.0
sS'nucleotide-bind'
p670
F0.0
sS'pressure,'
p671
F7.049
sS'4-methyl-2-'
p672
F0.0
sS'ventricular'
p673
F0.0
sS'non-steroid'
p674
F0.0
sS'allopurinol'
p675
F10.573
sS'hcnppp'
p676
F0.0
sS'neurotransmiss'
p677
F0.0
sS'countri'
p678
F0.0
sS'60.1'
p679
F0.0
sS'p300'
p680
F0.0
sS'compromis'
p681
F0.0
sS'1.4'
p682
F0.0
sS'ng/ml'
p683
F10.573
sS'intraperiton'
p684
F0.0
sS'vein'
p685
F10.573
sS'5q'
p686
F0.0
sS'fluorescein'
p687
F0.0
sS'trunk'
p688
F0.0
sS'codon'
p689
F0.0
sS'height'
p690
F0.0
sS'clinic'
p691
F49.34
sS'permut'
p692
F42.291
sS'maraviroc'
p693
F0.0
sS'cytarabin'
p694
F3.524
sS'p2281'
p695
F10.573
sS'summar'
p696
F0.0
sS'254'
p697
F0.0
sS'duplic'
p698
F0.0
sS'rad26'
p699
F0.0
sS'interferon/ribavirin'
p700
F0.0
sS'1.2'
p701
F3.524
sS'nonsens'
p702
F0.0
sS'classif'
p703
F0.0
sS'convolut'
p704
F0.0
sS'three'
p705
F38.767
sS'frontlin'
p706
F0.0
sS'ggh'
p707
F0.0
sS'cc'
p708
F0.0
sS'accumul'
p709
F3.524
sS'adp-ribos'
p710
F0.0
sS'much'
p711
F7.049
sS'interest'
p712
F0.0
sS'progenitor'
p713
F3.524
sS'pge'
p714
F0.0
sS'bmi'
p715
F0.0
sS'cdc6'
p716
F0.0
sS'sites-th'
p717
F0.0
sS'life'
p718
F3.524
sS'mcl'
p719
F3.524
sS'regul'
p720
F10.573
sS'retrospect'
p721
F0.0
sS'eastern'
p722
F0.0
sS'suppress'
p723
F17.621
sS'worker'
p724
F0.0
sS'bladder'
p725
F0.0
sS'cbsct'
p726
F7.049
sS'all-tran'
p727
F3.524
sS'epsilon2'
p728
F0.0
sS'0.14'
p729
F0.0
sS'fibroblast'
p730
F7.049
sS'erythema'
p731
F0.0
sS'h9c2'
p732
F0.0
sS'0.12'
p733
F7.049
sS'organotyp'
p734
F0.0
sS'gata4'
p735
F0.0
sS'160'
p736
F3.524
sS'cervic'
p737
F7.049
sS'unadjust'
p738
F0.0
sS'physician'
p739
F0.0
sS'inhibit'
p740
F140.97
sS'ident'
p741
F0.0
sS'hypofraction'
p742
F0.0
sS'leprosi'
p743
F0.0
sS'dissect'
p744
F14.097
sS'0.38'
p745
F0.0
sS'lessen'
p746
F0.0
sS'iron-defici'
p747
F0.0
sS'intak'
p748
F0.0
sS'n'
p749
F0.0
sS'employ'
p750
F0.0
sS'flavones,'
p751
F0.0
sS'calcul'
p752
F0.0
sS'cep290/'
p753
F0.0
sS'antagon'
p754
F3.524
sS'mg/ml'
p755
F7.049
sS'sle'
p756
F0.0
sS'endotheli'
p757
F14.097
sS'0.35'
p758
F3.524
sS'seven'
p759
F0.0
sS'ultradist'
p760
F0.0
sS'p65'
p761
F7.049
sS'invasion,'
p762
F0.0
sS'domain-contain'
p763
F0.0
sS'early-onset'
p764
F0.0
sS'top2'
p765
F0.0
sS'sting'
p766
F0.0
sS'ii'
p767
F0.0
sS'elicit'
p768
F0.0
sS'il'
p769
F7.049
sS'ia'
p770
F0.0
sS'1.36-9.77'
p771
F0.0
sS'ic'
p772
F0.0
sS'basigin'
p773
F0.0
sS'id'
p774
F0.0
sS'sever'
p775
F21.146
sS'inpati'
p776
F0.0
sS'grown'
p777
F0.0
sS'precis'
p778
F0.0
sS'hong'
p779
F0.0
sS'avastin'
p780
F0.0
sS'uterin'
p781
F0.0
sS'perform'
p782
F0.0
sS'suggest'
p783
F17.621
sS'make'
p784
F14.097
sS'viabil'
p785
F7.049
sS'wound'
p786
F0.0
sS'fortif'
p787
F0.0
sS'conclusions:'
p788
F0.0
sS'complex'
p789
F0.0
sS'upon'
p790
F10.573
sS'split'
p791
F0.0
sS'cutan'
p792
F0.0
sS'success'
p793
F14.097
sS'dystrophy-16'
p794
F0.0
sS'european'
p795
F0.0
sS'kr\xc3\xbcppel-lik'
p796
F0.0
sS'i/r-induc'
p797
F0.0
sS'scaveng'
p798
F0.0
sS'evid'
p799
F7.049
sS'screw'
p800
F0.0
sS'ed50'
p801
F0.0
sS'calcein'
p802
F0.0
sS'pylori'
p803
F0.0
sS'prognost'
p804
F0.0
sS'pubm'
p805
F0.0
sS'hand'
p806
F0.0
sS'topo'
p807
F0.0
sS'prognosi'
p808
F0.0
sS'rais'
p809
F0.0
sS'portal'
p810
F3.524
sS'scale'
p811
F0.0
sS'chemotherapy-induc'
p812
F3.524
sS'neonat'
p813
F0.0
sS'traffick'
p814
F0.0
sS'h3-k4'
p815
F0.0
sS'calcium-atpas'
p816
F0.0
sS'itraconazol'
p817
F0.0
sS'kinase-induc'
p818
F0.0
sS'intermediate-'
p819
F0.0
sS'hypothes'
p820
F0.0
sS'min'
p821
F3.524
sS'thr'
p822
F0.0
sS'inherit'
p823
F3.524
sS'1970'
p824
F0.0
sS'qualit'
p825
F0.0
sS'admiss'
p826
F0.0
sS'squamous'
p827
F7.049
sS'mamma'
p828
F0.0
sS'mother'
p829
F0.0
sS'4002'
p830
F0.0
sS'tha'
p831
F0.0
sS'left'
p832
F0.0
sS'zygomycosi'
p833
F0.0
sS'identifi'
p834
F14.097
sS'pbmc'
p835
F0.0
sS'balf-induc'
p836
F0.0
sS'ex1+82a'
p837
F0.0
sS'rodent'
p838
F0.0
sS'8.18'
p839
F0.0
sS'human'
p840
F45.815
sS'microsomes,'
p841
F0.0
sS'previous'
p842
F7.049
sS'thyroid'
p843
F3.524
sS'lymphoma'
p844
F7.049
sS'calmodulin'
p845
F0.0
sS'atrial'
p846
F0.0
sS'han'
p847
F0.0
sS'septal'
p848
F0.0
sS'interfer'
p849
F3.524
sS'character'
p850
F7.049
sS'neoplasm'
p851
F3.524
sS'poag'
p852
F0.0
sS'rs1937970'
p853
F0.0
sS'peripher'
p854
F0.0
sS'plasma'
p855
F7.049
sS'follicle-stimul'
p856
F0.0
sS'atp-bind'
p857
F0.0
sS'0.61'
p858
F0.0
sS'applic'
p859
F0.0
sS'advis'
p860
F3.524
sS'preserv'
p861
F0.0
sS'egfr'
p862
F0.0
sS'rna'
p863
F14.097
sS'metabolites,'
p864
F0.0
sS'receptor-induc'
p865
F0.0
sS'fusion'
p866
F3.524
sS'polymeras'
p867
F0.0
sS'cell-associ'
p868
F0.0
sS'promyelocyt'
p869
F0.0
sS'lca'
p870
F0.0
sS'ykl-40'
p871
F0.0
sS'intravitr'
p872
F0.0
sS'shoulder'
p873
F3.524
sS'measur'
p874
F10.573
sS'vdr'
p875
F0.0
sS'specif'
p876
F10.573
sS'pro72arg,'
p877
F3.524
sS'mthfr'
p878
F0.0
sS'blunt'
p879
F0.0
sS'56'
p880
F3.524
sS'negat'
p881
F3.524
sS'50'
p882
F7.049
sS'amylas'
p883
F0.0
sS'anastomosi'
p884
F0.0
sS'er+'
p885
F0.0
sS'37'
p886
F0.0
sS'night'
p887
F0.0
sS'rhytid'
p888
F0.0
sS'4.13'
p889
F0.0
sS'right'
p890
F3.524
sS'old'
p891
F0.0
sS'childbear'
p892
F0.0
sS'adriamycin'
p893
F17.621
sS'interv'
p894
F10.573
sS'disord'
p895
F10.573
sS'dizzi'
p896
F3.524
sS'maxim'
p897
F17.621
sS'mycophenol'
p898
F7.049
sS'instabl'
p899
F0.0
sS'intern'
p900
F0.0
sS'tissue-specif'
p901
F0.0
sS'or=0.48'
p902
F0.0
sS'triphosph'
p903
F0.0
sS'inact'
p904
F3.524
sS'adiponectin'
p905
F3.524
sS'angiogenesi'
p906
F3.524
sS'transmiss'
p907
F0.0
sS'insensit'
p908
F0.0
sS'murin'
p909
F3.524
sS'cns'
p910
F0.0
sS'fos'
p911
F0.0
sS'1,072'
p912
F0.0
sS'receptor-posit'
p913
F0.0
sS'over-repres'
p914
F14.097
sS'diarrhea'
p915
F0.0
sS'nocicept'
p916
F0.0
sS'roab18'
p917
F0.0
sS'month,'
p918
F3.524
sS'0.30-0.86'
p919
F0.0
sS'auto-inflammatori'
p920
F0.0
sS'condit'
p921
F0.0
sS'roab13'
p922
F0.0
sS'roab12'
p923
F0.0
sS'roab14'
p924
F0.0
sS'drink-year'
p925
F0.0
sS'cni'
p926
F0.0
sS'cord'
p927
F7.049
sS'models,'
p928
F0.0
sS'ptosi'
p929
F0.0
sS'diltiazem'
p930
F3.524
sS'dental'
p931
F3.524
sS'confluent'
p932
F0.0
sS'confer'
p933
F17.621
sS'nonsynonym'
p934
F0.0
sS'9-hydroxyrisperidon'
p935
F0.0
sS'gamma-globulin'
p936
F0.0
sS'peg-ifn'
p937
F0.0
sS'antigen'
p938
F0.0
sS'acetyltransferas'
p939
F0.0
sS'heparin'
p940
F0.0
sS'lipolactonas'
p941
F0.0
sS'erythematosus'
p942
F3.524
sS'ileal'
p943
F0.0
sS'chronic'
p944
F10.573
sS'literatur'
p945
F0.0
sS'o'
p946
F0.0
sS'ala/thr'
p947
F0.0
sS'distinct'
p948
F10.573
sS'plus'
p949
F10.573
sS'done'
p950
F0.0
sS'inno-406'
p951
F7.049
sS'arthrodesi'
p952
F0.0
sS'produc'
p953
F21.146
sS'small-cel'
p954
F0.0
sS'sod'
p955
F0.0
sS'fetal'
p956
F0.0
sS'encod'
p957
F0.0
sS'oxid'
p958
F7.049
sS'histoplasmosi'
p959
F0.0
sS'montelukast'
p960
F0.0
sS'microsom'
p961
F7.049
sS'gw501516'
p962
F3.524
sS'vegfr-1'
p963
F7.049
sS'amsterdam'
p964
F0.0
sS'e.g.,'
p965
F0.0
sS'39.2'
p966
F0.0
sS'genotyp'
p967
F95.155
sS'suffici'
p968
F0.0
sS'psychot'
p969
F10.573
sS'support'
p970
F7.049
sS'cancer,'
p971
F0.0
sS'transform'
p972
F0.0
sS'rs3093200'
p973
F0.0
sS'avail'
p974
F0.0
sS'reli'
p975
F0.0
sS'drug-treat'
p976
F7.049
sS'p53-/-'
p977
F0.0
sS'toxin-sensit'
p978
F0.0
sS'b.'
p979
F0.0
sS'ex3+23a'
p980
F0.0
sS'synthesis'
p981
F0.0
sS'analysi'
p982
F7.049
sS'headach'
p983
F10.573
sS'autonom'
p984
F0.0
sS'form'
p985
F3.524
sS'instil'
p986
F3.524
sS'altogeth'
p987
F0.0
sS'benzodiazepin'
p988
F0.0
sS'heal'
p989
F0.0
sS'6'
p990
F35.243
sS'substrat'
p991
F7.049
sS'pp2'
p992
F0.0
sS'pp1'
p993
F0.0
sS'ferox'
p994
F0.0
sS'fpgs'
p995
F0.0
sS'percentag'
p996
F0.0
sS'229'
p997
F24.67
sS'rituximab'
p998
F0.0
sS'226'
p999
F0.0
sS'amlodipin'
p1000
F0.0
sS'renal'
p1001
F0.0
sS'retin'
p1002
F0.0
sS'mtx'
p1003
F0.0
sS'0.004'
p1004
F0.0
sS'8-iso-prostaglandin'
p1005
F0.0
sS'ml/h'
p1006
F0.0
sS'multifactor'
p1007
F0.0
sS'endoscop'
p1008
F0.0
sS'shrnas'
p1009
F0.0
sS'topiram'
p1010
F0.0
sS'mtt'
p1011
F0.0
sS'anem'
p1012
F0.0
sS'over-transmiss'
p1013
F7.049
sS'col1a2'
p1014
F3.524
sS'0.001'
p1015
F17.621
sS'slc12a3'
p1016
F0.0
sS'down-regul'
p1017
F7.049
sS'unrel'
p1018
F3.524
sS'diplotyp'
p1019
F3.524
sS'acrylamid'
p1020
F0.0
sS'150'
p1021
F0.0
sS'trio'
p1022
F0.0
sS'featur'
p1023
F0.0
sS'memori'
p1024
F0.0
sS'diagnosi'
p1025
F0.0
sS'0.60'
p1026
F0.0
sS'diagnost'
p1027
F0.0
sS'oprm1'
p1028
F0.0
sS'71.1'
p1029
F0.0
sS'exist'
p1030
F0.0
sS'0.65'
p1031
F0.0
sS'0.66'
p1032
F0.0
sS'nod2'
p1033
F0.0
sS'interf'
p1034
F7.049
sS'graft'
p1035
F3.524
sS'insig2'
p1036
F0.0
sS'melanoma'
p1037
F14.097
sS'nm'
p1038
F14.097
sS'mitoxantron'
p1039
F0.0
sS'238'
p1040
F0.0
sS'pcnsl'
p1041
F0.0
sS'excel'
p1042
F0.0
sS'cambodia'
p1043
F0.0
sS'circulatori'
p1044
F0.0
sS'hct116'
p1045
F0.0
sS'role'
p1046
F24.67
sS'9,250'
p1047
F0.0
sS'test'
p1048
F10.573
sS'implant'
p1049
F0.0
sS'bisphenol'
p1050
F0.0
sS'nt'
p1051
F0.0
sS'roll'
p1052
F0.0
sS'2500'
p1053
F0.0
sS'0.049'
p1054
F0.0
sS'0.048'
p1055
F0.0
sS'benefici'
p1056
F14.097
sS'ifng'
p1057
F0.0
sS'hypogonad'
p1058
F0.0
sS'il-1'
p1059
F0.0
sS'diet'
p1060
F14.097
sS'0.044'
p1061
F0.0
sS'carcinogenesi'
p1062
F0.0
sS'intens'
p1063
F0.0
sS'intent'
p1064
F0.0
sS'abrog'
p1065
F0.0
sS'mc3t3-e1'
p1066
F0.0
sS'doubl'
p1067
F0.0
sS'ccag'
p1068
F0.0
sS'prove'
p1069
F0.0
sS'femal'
p1070
F0.0
sS'astrocyt'
p1071
F0.0
sS'intensity-modul'
p1072
F0.0
sS'furthermor'
p1073
F0.0
sS'fsh'
p1074
F0.0
sS'iminobenzoxathiolon'
p1075
F0.0
sS'sw480'
p1076
F0.0
sS'cpt-11'
p1077
F0.0
sS'time'
p1078
F14.097
sS'1.1-3.2'
p1079
F0.0
sS'n2'
p1080
F3.524
sS'n3'
p1081
F0.0
sS'n4'
p1082
F3.524
sS'daili'
p1083
F7.049
sS'breadth'
p1084
F0.0
sS'concept'
p1085
F0.0
sS'reproduc'
p1086
F0.0
sS'chain'
p1087
F0.0
sS'35.3'
p1088
F0.0
sS'kgf'
p1089
F0.0
sS'focus'
p1090
F0.0
sS'urinari'
p1091
F0.0
sS'endoscopic/radiolog'
p1092
F0.0
sS'pipecoloxylidid'
p1093
F3.524
sS'rkip'
p1094
F0.0
sS'skin'
p1095
F0.0
sS'steroidogen'
p1096
F0.0
sS'na'
p1097
F0.0
sS'primer'
p1098
F0.0
sS'bzd'
p1099
F0.0
sS'catalyt'
p1100
F0.0
sS'depend'
p1101
F0.0
sS'system'
p1102
F10.573
sS'transduc'
p1103
F0.0
sS'428'
p1104
F0.0
sS'nineteen'
p1105
F0.0
sS'proxim'
p1106
F3.524
sS'intermedi'
p1107
F0.0
sS'catalyz'
p1108
F0.0
sS'neuroplastin'
p1109
F0.0
sS'anti-il-1beta'
p1110
F0.0
sS'0'
p1111
F0.0
sS'eef2'
p1112
F0.0
sS'intercellular'
p1113
F10.573
sS'borderlin'
p1114
F0.0
sS'cd20'
p1115
F0.0
sS'2-cyano-1-'
p1116
F3.524
sS'yeast'
p1117
F0.0
sS'vinculin'
p1118
F0.0
sS'feasibl'
p1119
F10.573
sS'merit'
p1120
F0.0
sS'join'
p1121
F24.67
sS'blast'
p1122
F0.0
sS'nephropathi'
p1123
F0.0
sS'relaps'
p1124
F0.0
sS'anti-hcv'
p1125
F0.0
sS'hour'
p1126
F0.0
sS'administr'
p1127
F0.0
sS'level'
p1128
F84.582
sS'tear'
p1129
F0.0
sS'die'
p1130
F0.0
sS'mb'
p1131
F0.0
sS'photodynam'
p1132
F0.0
sS'knock-out'
p1133
F0.0
sS'dexamethason'
p1134
F0.0
sS'trans-methylimino-n-oxi'
p1135
F0.0
sS'filgrastim'
p1136
F0.0
sS'gut'
p1137
F0.0
sS'ppardelta'
p1138
F0.0
sS'drop'
p1139
F0.0
sS'reaction-bas'
p1140
F0.0
sS'prevent'
p1141
F38.767
sS'oncogen'
p1142
F0.0
sS'trisomi'
p1143
F0.0
sS'core'
p1144
F0.0
sS'trend'
p1145
F0.0
sS'autolog'
p1146
F0.0
sS'top2beta-dna'
p1147
F0.0
sS'pore'
p1148
F0.0
sS'anticarcinogen'
p1149
F0.0
sS'gene,'
p1150
F0.0
sS'unprotect'
p1151
F3.524
sS'dickkopf'
p1152
F0.0
sS'nos1ap'
p1153
F17.621
sS'cu2+'
p1154
F0.0
sS'muramyl'
p1155
F3.524
sS'group:'
p1156
F0.0
sS'mammalian'
p1157
F3.524
sS'fusariosi'
p1158
F0.0
sS'appear'
p1159
F7.049
sS'gingiv'
p1160
F0.0
sS'mip1alpha'
p1161
F0.0
sS'250-k'
p1162
F0.0
sS'daily,'
p1163
F0.0
sS'xpd,'
p1164
F0.0
sS'ex3+58a'
p1165
F0.0
sS'toll-lik'
p1166
F0.0
sS'systol'
p1167
F0.0
sS'527'
p1168
F0.0
sS'mp6-xt22'
p1169
F3.524
sS'adh1b'
p1170
F0.0
sS'rs2229094'
p1171
F0.0
sS'1015'
p1172
F0.0
sS'ground'
p1173
F0.0
sS'boost'
p1174
F0.0
sS'example,'
p1175
F0.0
sS'cerebr'
p1176
F0.0
sS'pose'
p1177
F0.0
sS'defici'
p1178
F3.524
sS'deriv'
p1179
F0.0
sS'agonist,'
p1180
F0.0
sS'multidrug'
p1181
F3.524
sS'seizur'
p1182
F0.0
sS'asthma,'
p1183
F3.524
sS'hairi'
p1184
F0.0
sS'coli-'
p1185
F0.0
sS'modif'
p1186
F0.0
sS'splice'
p1187
F21.146
sS'address'
p1188
F0.0
sS'theoriz'
p1189
F0.0
sS'locat'
p1190
F21.146
sS'cyp3a4'
p1191
F0.0
sS'cyp3a5'
p1192
F0.0
sS'or=0.54'
p1193
F0.0
sS'boy'
p1194
F0.0
sS'once-daili'
p1195
F0.0
sS'precursor'
p1196
F0.0
sS'hbf'
p1197
F3.524
sS'trial'
p1198
F7.049
sS'nf-kappab'
p1199
F17.621
sS'healthi'
p1200
F0.0
sS'extrem'
p1201
F7.049
sS'atrioventricular'
p1202
F0.0
sS'trpv6'
p1203
F7.049
sS'ile3434thr'
p1204
F17.621
sS'cyp3a'
p1205
F0.0
sS'promot'
p1206
F24.67
sS'ipc'
p1207
F3.524
sS'elect'
p1208
F0.0
sS'activ'
p1209
F70.485
sS'modul'
p1210
F3.524
sS'two-hybrid'
p1211
F0.0
sS'prefer'
p1212
F0.0
sS'lovo'
p1213
F0.0
sS'gjb6'
p1214
F0.0
sS'co-oper'
p1215
F3.524
sS'subunit'
p1216
F0.0
sS'cholesteryl'
p1217
F0.0
sS'chi3l1'
p1218
F17.621
sS'inlj'
p1219
F0.0
sS'marker'
p1220
F10.573
sS'islet'
p1221
F0.0
sS'mobil'
p1222
F0.0
sS'bloodi'
p1223
F0.0
sS'anorexia,'
p1224
F0.0
sS'alpha-2b'
p1225
F0.0
sS'anesthet'
p1226
F0.0
sS'n-desmethyl'
p1227
F0.0
sS'subvert'
p1228
F0.0
sS'scan'
p1229
F0.0
sS'visit'
p1230
F0.0
sS'p=0.026'
p1231
F0.0
sS'etoposide,'
p1232
F3.524
sS'k121q'
p1233
F0.0
sS'live'
p1234
F0.0
sS'black'
p1235
F0.0
sS'msc'
p1236
F0.0
sS'tensil'
p1237
F7.049
sS'today'
p1238
F0.0
sS'malat'
p1239
F7.049
sS'recently,'
p1240
F0.0
sS'nonselect'
p1241
F0.0
sS'peopl'
p1242
F0.0
sS'eshap'
p1243
F0.0
sS'enhanc'
p1244
F7.049
sS'visual'
p1245
F0.0
sS'tandem'
p1246
F0.0
sS'ss52580101'
p1247
F0.0
sS'examin'
p1248
F0.0
sS'mamu-a*01'
p1249
F0.0
sS'adipos'
p1250
F0.0
sS'stain'
p1251
F0.0
sS'lower,'
p1252
F0.0
sS'staurosporin'
p1253
F7.049
sS'motifs,'
p1254
F0.0
sS'tp53'
p1255
F10.573
sS'nlrp3'
p1256
F0.0
sS'hemolytic-urem'
p1257
F7.049
sS'local'
p1258
F7.049
sS'prepar'
p1259
F0.0
sS'ibd'
p1260
F0.0
sS'uniqu'
p1261
F3.524
sS'p=0.029'
p1262
F0.0
sS'cep290-lca'
p1263
F0.0
sS'0.51-0.85'
p1264
F0.0
sS'vegf'
p1265
F7.049
sS'webster'
p1266
F0.0
sS'metal'
p1267
F0.0
sS'purpos'
p1268
F0.0
sS'qlt0267'
p1269
F0.0
sS'ptk2'
p1270
F0.0
sS'heart'
p1271
F0.0
sS'endocrin'
p1272
F0.0
sS'predict'
p1273
F7.049
sS'meningitis,'
p1274
F0.0
sS'prophylaxi'
p1275
F7.049
sS'agent'
p1276
F17.621
sS'matern'
p1277
F0.0
sS'topic'
p1278
F0.0
sS'critic'
p1279
F10.573
sS'immunolog'
p1280
F0.0
sS'234'
p1281
F0.0
sS'1s'
p1282
F3.524
sS'uncorrect'
p1283
F17.621
sS'occur'
p1284
F7.049
sS'1-methyl-4-phenylpyridinium'
p1285
F7.049
sS'contribut'
p1286
F24.67
sS'differenti'
p1287
F0.0
sS'1.04-1.52'
p1288
F0.0
sS'multipl'
p1289
F7.049
sS'arg94hi'
p1290
F14.097
sS'lysophosphatid'
p1291
F0.0
sS'meperidine/diazepam'
p1292
F0.0
sS'cyclophosphamid'
p1293
F21.146
sS'dysregul'
p1294
F0.0
sS'1'
p1295
F14.097
sS'alway'
p1296
F0.0
sS'ligat'
p1297
F0.0
sS'flank'
p1298
F3.524
sS'criterion'
p1299
F0.0
sS'blood-brain'
p1300
F0.0
sS'tnf-alpha'
p1301
F7.049
sS'hypertens'
p1302
F3.524
sS'pathway'
p1303
F56.388
sS'undertook'
p1304
F0.0
sS'11/47'
p1305
F0.0
sS'cep290/nphp6'
p1306
F0.0
sS'map'
p1307
F0.0
sS'product'
p1308
F45.815
sS'bmax=0.56'
p1309
F0.0
sS'142'
p1310
F0.0
sS'140'
p1311
F0.0
sS'may'
p1312
F98.679
sS'23e'
p1313
F0.0
sS'aom'
p1314
F0.0
sS'rs11209026'
p1315
F0.0
sS'23c'
p1316
F0.0
sS'0.71'
p1317
F7.049
sS'0.70'
p1318
F0.0
sS'snp'
p1319
F14.097
sS'cardiac'
p1320
F0.0
sS'fpgs,'
p1321
F0.0
sS'intoler'
p1322
F0.0
sS'secondari'
p1323
F7.049
sS'data'
p1324
F0.0
sS'man'
p1325
F0.0
sS'stress'
p1326
F7.049
sS'epoetin'
p1327
F0.0
sS'neck'
p1328
F0.0
sS'75.9'
p1329
F0.0
sS'transfect'
p1330
F0.0
sS'henc'
p1331
F0.0
sS'inform'
p1332
F0.0
sS'combin'
p1333
F0.0
sS'deposit'
p1334
F0.0
sS'african'
p1335
F0.0
sS'sc'
p1336
F0.0
sS'1,400-fold'
p1337
F0.0
sS'triallel'
p1338
F0.0
sS'p53/56'
p1339
F0.0
sS'sr-b'
p1340
F0.0
sS'epiderm'
p1341
F0.0
sS'anterior'
p1342
F3.524
sS'shrna'
p1343
F0.0
sS'mg-63'
p1344
F0.0
sS'6.43'
p1345
F0.0
sS'blocker'
p1346
F3.524
sS'infiltr'
p1347
F3.524
sS'approv'
p1348
F10.573
sS'hypothyroid'
p1349
F0.0
sS'kong'
p1350
F0.0
sS'brain'
p1351
F14.097
sS'iatrogen'
p1352
F0.0
sS'tonic'
p1353
F3.524
sS'cab45b'
p1354
F0.0
sS'nitrogen'
p1355
F0.0
sS'noteworthi'
p1356
F0.0
sS'peroxid'
p1357
F0.0
sS'cold'
p1358
F0.0
sS'eno'
p1359
F0.0
sS'lacrim'
p1360
F0.0
sS'nimh'
p1361
F0.0
sS'l1007fsinsc'
p1362
F3.524
sS'reinforc'
p1363
F3.524
sS'group'
p1364
F17.621
sS'monitor'
p1365
F0.0
sS'2002-2004'
p1366
F3.524
sS'p2x7'
p1367
F3.524
sS'ci=1.19-11.24'
p1368
F0.0
sS'irrit'
p1369
F0.0
sS'precondit'
p1370
F0.0
sS'dysfunct'
p1371
F3.524
sS'additionally,'
p1372
F0.0
sS'child-bear'
p1373
F0.0
sS'requir'
p1374
F7.049
sS'tgf-beta'
p1375
F0.0
sS'hormone-releas'
p1376
F0.0
sS'cox-2-depend'
p1377
F0.0
sS'main'
p1378
F0.0
sS'morbid'
p1379
F0.0
sS'chromatin'
p1380
F0.0
sS'rapamycin'
p1381
F0.0
sS'cyclohexylamin'
p1382
F0.0
sS'hypersensit'
p1383
F0.0
sS'small-molecul'
p1384
F0.0
sS'pst1'
p1385
F0.0
sS'initi'
p1386
F14.097
sS'nation'
p1387
F0.0
sS'disloc'
p1388
F3.524
sS'toxic'
p1389
F3.524
sS'cyclin-depend'
p1390
F0.0
sS'exon'
p1391
F0.0
sS'ppm'
p1392
F0.0
sS'acta'
p1393
F0.0
sS'ef-hand'
p1394
F0.0
sS'introduction:'
p1395
F0.0
sS'rs1558139,'
p1396
F0.0
sS'possess'
p1397
F0.0
sS'ropivacain'
p1398
F0.0
sS'lpa-medi'
p1399
F0.0
sS'109.9+/-54.9'
p1400
F0.0
sS'twofold'
p1401
F3.524
sS'1.9'
p1402
F0.0
sS'paclitaxel'
p1403
F0.0
sS'subjects.thes'
p1404
F3.524
sS'revers'
p1405
F10.573
sS'14.9'
p1406
F0.0
sS'47'
p1407
F0.0
sS'propuls'
p1408
F0.0
sS'separ'
p1409
F0.0
sS'0.055'
p1410
F3.524
sS'gstp1'
p1411
F0.0
sS'vinblastine,'
p1412
F3.524
sS'h'
p1413
F7.049
sS'confid'
p1414
F10.573
sS'5-fluorouracil-induc'
p1415
F0.0
sS'domain'
p1416
F7.049
sS'or='
p1417
F0.0
sS'eh'
p1418
F0.0
sS'fistula'
p1419
F0.0
sS'eg'
p1420
F0.0
sS'continu'
p1421
F0.0
sS'breakthrough'
p1422
F7.049
sS'contributor'
p1423
F3.524
sS'therefore,'
p1424
F0.0
sS'asp1104asp'
p1425
F0.0
sS'ex'
p1426
F0.0
sS'year'
p1427
F3.524
sS'recogn'
p1428
F0.0
sS'girl'
p1429
F0.0
sS'acetaldehyd'
p1430
F0.0
sS'baselin'
p1431
F3.524
sS'shown'
p1432
F45.815
sS'hcv'
p1433
F0.0
sS'infarct'
p1434
F0.0
sS'sha'
p1435
F7.049
sS'storag'
p1436
F0.0
sS'miyazaki'
p1437
F0.0
sS'profil'
p1438
F7.049
sS'thus,'
p1439
F0.0
sS'senesc'
p1440
F0.0
sS'hcg'
p1441
F0.0
sS'rational'
p1442
F0.0
sS'nettl'
p1443
F0.0
sS'anorexia'
p1444
F0.0
sS'hepatocyt'
p1445
F0.0
sS'hcl'
p1446
F0.0
sS'hormone-secret'
p1447
F0.0
sS'e.'
p1448
F0.0
sS'mediat'
p1449
F35.243
sS'6.6+/-1.3'
p1450
F0.0
sS'migrat'
p1451
F0.0
sS'variant'
p1452
F14.097
sS'million'
p1453
F0.0
sS'argu'
p1454
F0.0
sS'20'
p1455
F7.049
sS'adalimumab'
p1456
F0.0
sS'growth,'
p1457
F0.0
sS'interestingly,'
p1458
F0.0
sS'apwv'
p1459
F0.0
sS'span'
p1460
F0.0
sS'cough'
p1461
F0.0
sS'beta2-microglobulin'
p1462
F0.0
sS'care'
p1463
F0.0
sS'reflect'
p1464
F0.0
sS'huvec'
p1465
F3.524
sS'amyloid'
p1466
F0.0
sS'frequenc'
p1467
F14.097
sS'paxillin'
p1468
F0.0
sS'or=2.63'
p1469
F0.0
sS'ql'
p1470
F0.0
sS'motion'
p1471
F0.0
sS'turn'
p1472
F0.0
sS'platelet-deriv'
p1473
F7.049
sS'meta-analysi'
p1474
F0.0
sS'1006'
p1475
F0.0
sS'childhood'
p1476
F0.0
sS'frequent'
p1477
F31.718
sS'first'
p1478
F3.524
sS'origin'
p1479
F0.0
sS'mrp1-mediat'
p1480
F0.0
sS'rt-pcr'
p1481
F0.0
sS'bicanalicular'
p1482
F0.0
sS'carri'
p1483
F3.524
sS'distal'
p1484
F0.0
sS'pre-cancer'
p1485
F3.524
sS'phosphotriest'
p1486
F0.0
sS'acquisit'
p1487
F0.0
sS'dyspnoea'
p1488
F0.0
sS'rs3093105,'
p1489
F0.0
sS'supernat'
p1490
F0.0
sS'anti-'
p1491
F3.524
sS'etiopathogenesi'
p1492
F3.524
sS'array'
p1493
F0.0
sS'open'
p1494
F0.0
sS'cystinosi'
p1495
F0.0
sS'size'
p1496
F0.0
sS'mania'
p1497
F0.0
sS'1p'
p1498
F0.0
sS'given'
p1499
F0.0
sS'1r'
p1500
F0.0
sS'1.53'
p1501
F0.0
sS'tnf-alpha-induc'
p1502
F3.524
sS'adjac'
p1503
F0.0
sS'citi'
p1504
F0.0
sS'bcr-abl-posit'
p1505
F0.0
sS'2'
p1506
F77.534
sS'cassett'
p1507
F0.0
sS'subclin'
p1508
F3.524
sS'14-year-old'
p1509
F0.0
sS'coli-induc'
p1510
F0.0
sS'white'
p1511
F0.0
sS'large-scal'
p1512
F0.0
sS'hyl5'
p1513
F0.0
sS'includ'
p1514
F49.34
sS'urocortin'
p1515
F0.0
sS'pancrea'
p1516
F0.0
sS'leukotrien'
p1517
F7.049
sS'hyperuricemia'
p1518
F10.573
sS'especi'
p1519
F3.524
sS'gc/cc'
p1520
F0.0
sS'copi'
p1521
F0.0
sS'1.01-6.56'
p1522
F0.0
sS'pathogenesi'
p1523
F21.146
sS'oritavancin'
p1524
F0.0
sS'interrel'
p1525
F0.0
sS'logist'
p1526
F0.0
sS'hus'
p1527
F3.524
sS'domin'
p1528
F0.0
sS'titrat'
p1529
F0.0
sS'0.83-1.07'
p1530
F0.0
sS'disequilibrium'
p1531
F0.0
sS'lipopolysaccharide-activ'
p1532
F0.0
sS'11'
p1533
F7.049
sS'wide'
p1534
F0.0
sS'13'
p1535
F0.0
sS'tir-yp'
p1536
F0.0
sS'15'
p1537
F0.0
sS'14'
p1538
F0.0
sS'17'
p1539
F3.524
sS'16'
p1540
F0.0
sS'19'
p1541
F0.0
sS'18'
p1542
F0.0
sS'5713'
p1543
F0.0
sS'recruit'
p1544
F24.67
sS'sinai'
p1545
F0.0
sS'cardiotox'
p1546
F0.0
sS'r'
p1547
F0.0
sS'factor-alpha-stimul'
p1548
F10.573
sS'pre-engraft'
p1549
F0.0
sS'sera'
p1550
F0.0
sS'posit'
p1551
F0.0
sS'hla-mismatch'
p1552
F0.0
sS'1-'
p1553
F0.0
sS'cyclophosphamide/doxorubicin/vincristine/prednison'
p1554
F3.524
sS'intracamer'
p1555
F0.0
sS'seri'
p1556
F0.0
sS'prospect'
p1557
F0.0
sS'g559t'
p1558
F3.524
sS'lestaurtinib'
p1559
F0.0
sS'contrast,'
p1560
F0.0
sS'caspase-medi'
p1561
F0.0
sS'elev'
p1562
F10.573
sS'seal'
p1563
F0.0
sS'ani'
p1564
F0.0
sS'delin'
p1565
F0.0
sS'v441i'
p1566
F0.0
sS'anr'
p1567
F0.0
sS'antiprolif'
p1568
F3.524
sS'emet'
p1569
F0.0
sS'allel'
p1570
F31.718
sS'necrosi'
p1571
F17.621
sS'warsaw'
p1572
F0.0
sS'hitherto'
p1573
F0.0
sS'to-norm'
p1574
F0.0
sS'cytokin'
p1575
F17.621
sS'techniqu'
p1576
F0.0
sS'moreov'
p1577
F0.0
sS'mptp'
p1578
F0.0
sS'hotspot'
p1579
F3.524
sS'26/27'
p1580
F0.0
sS'rrms'
p1581
F0.0
sS'take'
p1582
F0.0
sS'exploratori'
p1583
F0.0
sS'vitamin-d'
p1584
F0.0
sS'properti'
p1585
F14.097
sS'gfpc'
p1586
F0.0
sS'bcrp-'
p1587
F3.524
sS'channel'
p1588
F0.0
sS'microg/ml'
p1589
F0.0
sS'200'
p1590
F7.049
sS'gleason'
p1591
F0.0
sS'imatinib-resist'
p1592
F0.0
sS'pain'
p1593
F10.573
sS'normal'
p1594
F7.049
sS'xrcc3,'
p1595
F0.0
sS'function'
p1596
F10.573
sS'beta'
p1597
F0.0
sS'etoposide-induc'
p1598
F0.0
sS'abus'
p1599
F7.049
sS'tract'
p1600
F0.0
sS'pair'
p1601
F3.524
sS'a1,555g'
p1602
F0.0
sS'escherichia'
p1603
F0.0
sS'cardiac-specif'
p1604
F0.0
sS'synthesi'
p1605
F3.524
sS'tnf-alpha-g308a'
p1606
F0.0
sS'latex'
p1607
F0.0
sS'allevi'
p1608
F7.049
sS'synonym'
p1609
F0.0
sS'2005-2006'
p1610
F3.524
sS'rescu'
p1611
F0.0
sS'hfe'
p1612
F0.0
sS'later'
p1613
F0.0
sS'drive'
p1614
F3.524
sS'villin'
p1615
F0.0
sS'chemoradiotherapi'
p1616
F0.0
sS'ikappabalpha'
p1617
F10.573
sS'radioligand'
p1618
F7.049
sS'g0-g1'
p1619
F0.0
sS'mass,'
p1620
F3.524
sS'axi'
p1621
F0.0
sS'boundari'
p1622
F3.524
sS'oxytocin-induc'
p1623
F0.0
sS'recipi'
p1624
F0.0
sS'flt3/'
p1625
F0.0
sS'set'
p1626
F0.0
sS'pmca1b'
p1627
F0.0
sS'uncondit'
p1628
F0.0
sS'3.75'
p1629
F0.0
sS'concomit'
p1630
F7.049
sS'hairpin'
p1631
F0.0
sS'recombin'
p1632
F21.146
sS'rituximab/'
p1633
F0.0
sS'0.49'
p1634
F3.524
sS'composit'
p1635
F0.0
sS'colon-select'
p1636
F0.0
sS'cyclosporin'
p1637
F3.524
sS'contemporari'
p1638
F0.0
sS'fifti'
p1639
F0.0
sS'onli'
p1640
F7.049
sS'ratio'
p1641
F3.524
sS'arg559gln'
p1642
F0.0
sS'favor'
p1643
F0.0
sS'docetaxel'
p1644
F0.0
sS'homologu'
p1645
F0.0
sS'gln221glu'
p1646
F10.573
sS'disease-associ'
p1647
F0.0
sS'intracrani'
p1648
F3.524
sS'actin'
p1649
F0.0
sS'analyz'
p1650
F24.67
sS'11.47'
p1651
F0.0
sS'rs3118470'
p1652
F0.0
sS'analys'
p1653
F3.524
sS'extracellular'
p1654
F3.524
sS'phenoxi'
p1655
F0.0
sS'p=0.054'
p1656
F0.0
sS'advanced-stag'
p1657
F0.0
sS'2702'
p1658
F0.0
sS'irradi'
p1659
F0.0
sS'tailor'
p1660
F3.524
sS'nphp6'
p1661
F0.0
sS'progress'
p1662
F7.049
sS'vicari'
p1663
F0.0
sS'cryptosporidium'
p1664
F0.0
sS'pharmacokinet'
p1665
F3.524
sS'prime'
p1666
F0.0
sS'reveal'
p1667
F14.097
sS'xpd-751,'
p1668
F0.0
sS'supratentori'
p1669
F0.0
sS'amino-acid'
p1670
F0.0
sS'nonspecif'
p1671
F0.0
sS'trp46ter'
p1672
F24.67
sS'pituitari'
p1673
F0.0
sS'median'
p1674
F0.0
sS'intermitt'
p1675
F0.0
sS'intrins'
p1676
F0.0
sS'irrespect'
p1677
F3.524
sS'paroxetin'
p1678
F0.0
sS'opioid-spar'
p1679
F0.0
sS'macropterus'
p1680
F0.0
sS'summari'
p1681
F0.0
sS'ester-load'
p1682
F7.049
sS'gout'
p1683
F3.524
sS'disease-rel'
p1684
F0.0
sS'5t/6t'
p1685
F0.0
sS'often'
p1686
F7.049
sS'burst'
p1687
F0.0
sS'nick-end'
p1688
F0.0
sS'surgeri'
p1689
F0.0
sS'6.0'
p1690
F10.573
sS'atpas'
p1691
F0.0
sS'hepat'
p1692
F0.0
sS'risk=3.83'
p1693
F0.0
sS'j.'
p1694
F0.0
sS'adhesion/migr'
p1695
F0.0
sS'rivaroxaban'
p1696
F0.0
sS'r=0.95'
p1697
F0.0
sS'relapse-fre'
p1698
F0.0
sS'ependymoma'
p1699
F0.0
sS'extrud'
p1700
F3.524
sS'detect'
p1701
F0.0
sS's-transferas'
p1702
F0.0
sS'chemotaxi'
p1703
F0.0
sS'review'
p1704
F0.0
sS'head-neck'
p1705
F0.0
sS'label'
p1706
F3.524
sS'0.020'
p1707
F0.0
sS'3'
p1708
F21.146
sS'0.022'
p1709
F0.0
sS'0.025'
p1710
F0.0
sS'inhibitori'
p1711
F7.049
sS'extrus'
p1712
F0.0
sS'import'
p1713
F38.767
sS'cardiovascular'
p1714
F0.0
sS'across'
p1715
F0.0
sS'scfa'
p1716
F3.524
sS'botul'
p1717
F0.0
sS'dextran'
p1718
F0.0
sS'absenc'
p1719
F3.524
sS'parent'
p1720
F3.524
sS'25'
p1721
F10.573
sS'primary-cultur'
p1722
F0.0
sS'screen'
p1723
F0.0
sS'molluscan'
p1724
F0.0
sS'pd'
p1725
F0.0
sS'0.156'
p1726
F3.524
sS'cycl'
p1727
F3.524
sS'resistance-rel'
p1728
F0.0
sS'spare'
p1729
F0.0
sS'lymphotoxin-alpha'
p1730
F0.0
sS'ud'
p1731
F0.0
sS'shortag'
p1732
F0.0
sS'premalign'
p1733
F0.0
sS'best-correct'
p1734
F0.0
sS'myometri'
p1735
F0.0
sS'background:'
p1736
F0.0
sS'reaction'
p1737
F0.0
sS'ch11'
p1738
F0.0
sS'heterolog'
p1739
F0.0
sS'c-kit'
p1740
F14.097
sS'0.0179'
p1741
F0.0
sS'taqman'
p1742
F0.0
sS'region'
p1743
F31.718
sS'23'
p1744
F0.0
sS'ruptur'
p1745
F7.049
sS'metabolite,'
p1746
F0.0
sS'contract'
p1747
F0.0
sS'inhibitor,'
p1748
F0.0
sS'rad5'
p1749
F0.0
sS'sustain'
p1750
F0.0
sS'hematopoiet'
p1751
F7.049
sS'improv'
p1752
F10.573
sS'symptomat'
p1753
F7.049
sS'malic'
p1754
F0.0
sS'sn-38'
p1755
F0.0
sS'ex9+77a'
p1756
F0.0
sS'neoadjuv'
p1757
F0.0
sS'among'
p1758
F10.573
sS'acceler'
p1759
F7.049
sS'pebp'
p1760
F0.0
sS'cancer'
p1761
F49.34
sS'hypnot'
p1762
F0.0
sS'6-'
p1763
F0.0
sS'60'
p1764
F7.049
sS'61'
p1765
F3.524
sS'62'
p1766
F0.0
sS'64'
p1767
F0.0
sS'65'
p1768
F0.0
sS'66'
p1769
F0.0
sS'67'
p1770
F0.0
sS'aspergillosi'
p1771
F10.573
sS'periop'
p1772
F0.0
sS'mulatta'
p1773
F0.0
sS'poli'
p1774
F0.0
sS'amino'
p1775
F0.0
sS'anosmia'
p1776
F0.0
sS'rs4516035'
p1777
F0.0
sS'coupl'
p1778
F0.0
sS'montelukast,'
p1779
F0.0
sS'bevacizumab'
p1780
F0.0
sS'jvm2'
p1781
F0.0
sS'invers'
p1782
F3.524
sS'frizzled-rel'
p1783
F0.0
sS'shuttl'
p1784
F7.049
sS'hes-1'
p1785
F0.0
sS'individu'
p1786
F0.0
sS'500'
p1787
F0.0
sS'deacetylas'
p1788
F0.0
sS'r=-0.21'
p1789
F0.0
sS'633'
p1790
F0.0
sS'indirect'
p1791
F0.0
sS'ischem'
p1792
F0.0
sS'emphas'
p1793
F3.524
sS'psychoact'
p1794
F0.0
sS'psychotherapi'
p1795
F0.0
sS'400'
p1796
F0.0
sS'suscept'
p1797
F56.388
sS'22-year-old'
p1798
F0.0
sS'comprehens'
p1799
F3.524
sS'f90'
p1800
F0.0
sS'psychosi'
p1801
F0.0
sS'moreover,'
p1802
F0.0
sS'acyclovir'
p1803
F0.0
sS'a569v'
p1804
F0.0
sS'alfentanil'
p1805
F0.0
sS'pilot'
p1806
F0.0
sS'case'
p1807
F31.718
sS'refractori'
p1808
F3.524
sS'ttgc/ttgc'
p1809
F0.0
sS'multitarget'
p1810
F0.0
sS'50k'
p1811
F0.0
sS'long-dist'
p1812
F0.0
sS'gland'
p1813
F0.0
sS'iii-promot'
p1814
F0.0
sS'mount'
p1815
F0.0
sS'le'
p1816
F0.0
sS'metastasi'
p1817
F0.0
sS'5.6-fold'
p1818
F0.0
sS'0.63'
p1819
F0.0
sS'outcom'
p1820
F7.049
sS'uncommon,'
p1821
F0.0
sS'nitazoxanid'
p1822
F0.0
sS'myeloid'
p1823
F0.0
sS'xrcc1-399'
p1824
F0.0
sS'hdl'
p1825
F7.049
sS'immunohistochem'
p1826
F0.0
sS'tumorigenesi'
p1827
F0.0
sS'5.83'
p1828
F0.0
sS'basdai'
p1829
F0.0
sS'yale-gener'
p1830
F0.0
sS'yo-pro'
p1831
F0.0
sS'hcnp'
p1832
F3.524
sS'l-165041'
p1833
F0.0
sS'canon'
p1834
F0.0
sS'arg280hi'
p1835
F0.0
sS'strain'
p1836
F0.0
sS'hyperhomocysteinemia'
p1837
F0.0
sS'integrin-link'
p1838
F0.0
sS'13.6'
p1839
F0.0
sS'protein'
p1840
F24.67
sS'13.0'
p1841
F0.0
sS'multiprong'
p1842
F0.0
sS'ms-275'
p1843
F0.0
sS'pas'
p1844
F0.0
sS'develop'
p1845
F42.291
sS'author'
p1846
F0.0
sS'1937-bp'
p1847
F0.0
sS'rheumatologist'
p1848
F0.0
sS'medic'
p1849
F0.0
sS'transloc'
p1850
F14.097
sS'cisplatin'
p1851
F3.524
sS'agents,'
p1852
F0.0
sS'binari'
p1853
F0.0
sS'infliximab'
p1854
F0.0
sS'paf'
p1855
F3.524
sS'17.8'
p1856
F0.0
sS'70-80'
p1857
F0.0
sS'59.5'
p1858
F0.0
sS'week'
p1859
F0.0
sS'exhaust'
p1860
F0.0
sS'committe'
p1861
F0.0
sS'nest'
p1862
F0.0
sS'2-methyl-1,3-oxazol-4-yl'
p1863
F0.0
sS'driven'
p1864
F0.0
sS'capabl'
p1865
F0.0
sS'acetyl'
p1866
F0.0
sS'vestibular'
p1867
F0.0
sS'cholecystectomi'
p1868
F0.0
sS'mani'
p1869
F0.0
sS'cr'
p1870
F0.0
sS'studied,'
p1871
F0.0
sS'pklr'
p1872
F0.0
sS'cyp1a2'
p1873
F0.0
sS'appropri'
p1874
F0.0
sS'moder'
p1875
F3.524
sS'reliev'
p1876
F0.0
sS'bambu\xc3\xad'
p1877
F0.0
sS'erk'
p1878
F10.573
sS'boiss'
p1879
F0.0
sS'virus/hepat'
p1880
F0.0
sS'formation,'
p1881
F0.0
sS'double-blind'
p1882
F0.0
sS'atelocollagen'
p1883
F0.0
sS'model'
p1884
F14.097
sS'o157'
p1885
F0.0
sS'hippocamp'
p1886
F0.0
sS'nc'
p1887
F0.0
sS'flavon'
p1888
F0.0
sS'edema'
p1889
F7.049
sS'i/r'
p1890
F0.0
sS'caspase-3/7'
p1891
F0.0
sS'stroma'
p1892
F0.0
sS'mitochondrial-l'
p1893
F0.0
sS'temperature-depend'
p1894
F0.0
sS'multiplex'
p1895
F0.0
sS'aspect'
p1896
F0.0
sS'stenot'
p1897
F3.524
sS'exacerb'
p1898
F0.0
sS'speed'
p1899
F0.0
sS'ethyl'
p1900
F10.573
sS'concentr'
p1901
F0.0
sS'blot'
p1902
F3.524
sS'asthma'
p1903
F3.524
sS'pox'
p1904
F0.0
sS'0.01'
p1905
F0.0
sS'rs48'
p1906
F0.0
sS'littl'
p1907
F7.049
sS'identif'
p1908
F0.0
sS'wall'
p1909
F7.049
sS'2-depend'
p1910
F0.0
sS'guidelin'
p1911
F0.0
sS'disrupt'
p1912
F0.0
sS'ca'
p1913
F0.0
sS'5-year-old'
p1914
F0.0
sS'earli'
p1915
F3.524
sS'aml'
p1916
F0.0
sS'hypothesi'
p1917
F7.049
sS'rs3743500'
p1918
F7.049
sS'3.64'
p1919
F0.0
sS'specimen'
p1920
F0.0
sS'rs3840846'
p1921
F0.0
sS'1.22-2.54'
p1922
F0.0
sS'period'
p1923
F7.049
sS'activation/inflammatori'
p1924
F0.0
sS'klf5'
p1925
F0.0
sS'temperatur'
p1926
F0.0
sS'deplet'
p1927
F0.0
sS'10.50'
p1928
F0.0
sS'dock'
p1929
F0.0
sS'0.51'
p1930
F0.0
sS'mob'
p1931
F0.0
sS'cd'
p1932
F7.049
sS'0.55'
p1933
F0.0
sS'excret'
p1934
F0.0
sS'polyfunct'
p1935
F0.0
sS'ns'
p1936
F0.0
sS'grn163l'
p1937
F0.0
sS'meth/pcp-react'
p1938
F0.0
sS'mmol/l'
p1939
F0.0
sS'h63d'
p1940
F0.0
sS'mg/kg'
p1941
F10.573
sS'benefit'
p1942
F0.0
sS'inflammatori'
p1943
F7.049
sS'either'
p1944
F0.0
sS'lung'
p1945
F0.0
sS'cascad'
p1946
F0.0
sS'colon'
p1947
F17.621
sS'ie'
p1948
F0.0
sS'manag'
p1949
F3.524
sS'compet'
p1950
F0.0
sS'obstruct'
p1951
F0.0
sS'beta-catenin/canon'
p1952
F0.0
sS'gnrh'
p1953
F0.0
sS'verbal'
p1954
F0.0
sS'pro47ser,'
p1955
F0.0
sS'68'
p1956
F7.049
sS'respect'
p1957
F35.243
sS'hemodynam'
p1958
F0.0
sS'treatment-na'
p1959
F0.0
sS'constitut'
p1960
F3.524
sS'interleukin'
p1961
F7.049
sS'birth'
p1962
F0.0
sS'pregnanc'
p1963
F0.0
sS'monotherapi'
p1964
F3.524
sS'nerve-spar'
p1965
F0.0
sS'confirm'
p1966
F7.049
sS'deliveri'
p1967
F0.0
sS'tube'
p1968
F0.0
sS'definit'
p1969
F7.049
sS'cv'
p1970
F0.0
sS'sex-stratifi'
p1971
F0.0
sS'interleukin-1beta'
p1972
F0.0
sS'deficit'
p1973
F3.524
sS'ig'
p1974
F0.0
sS'glycopeptid'
p1975
F0.0
sS'dyspnea'
p1976
F0.0
sS'complic'
p1977
F10.573
sS'vzv'
p1978
F3.524
sS'refer'
p1979
F0.0
sS'immun'
p1980
F3.524
sS'also,'
p1981
F0.0
sS'power'
p1982
F0.0
sS'k562'
p1983
F0.0
sS'sixth'
p1984
F0.0
sS'0.4/0.5'
p1985
F0.0
sS'tumour'
p1986
F3.524
sS'csf2'
p1987
F0.0
sS'hormon'
p1988
F0.0
sS'beclomethason'
p1989
F0.0
sS'lead-associ'
p1990
F3.524
sS'chlorin'
p1991
F0.0
sS'4-trifluoromethylphenyl'
p1992
F0.0
sS'referr'
p1993
F0.0
sS'mmol'
p1994
F0.0
sS'enfuvirtid'
p1995
F0.0
sS'tdt'
p1996
F0.0
sS'necess'
p1997
F0.0
sS'comparison'
p1998
F0.0
sS'central'
p1999
F0.0
sS'erk1,'
p2000
F0.0
sS'trans-'
p2001
F0.0
sS'carriers,'
p2002
F0.0
sS'oe'
p2003
F3.524
sS'antibodi'
p2004
F3.524
sS'acn'
p2005
F0.0
sS'srl'
p2006
F0.0
sS'side'
p2007
F3.524
sS'tumor'
p2008
F24.67
sS'1406'
p2009
F0.0
sS'degre'
p2010
F0.0
sS'arthriti'
p2011
F10.573
sS'0.036'
p2012
F0.0
sS'acv'
p2013
F0.0
sS'psc833'
p2014
F0.0
sS'act'
p2015
F0.0
sS'459'
p2016
F3.524
sS'such,'
p2017
F0.0
sS'routin'
p2018
F0.0
sS'ci=7.44-41.58'
p2019
F0.0
sS'effici'
p2020
F14.097
sS'consid'
p2021
F3.524
sS'n-didesmethyl'
p2022
F0.0
sS'rs1558139'
p2023
F0.0
sS'surviv'
p2024
F14.097
sS'1.02-1.57'
p2025
F0.0
sS'spinal'
p2026
F0.0
sS'c282y/c282i'
p2027
F0.0
sS'13.35-42.34'
p2028
F0.0
sS'strip'
p2029
F0.0
sS'pivot'
p2030
F7.049
sS'hyperglycemia'
p2031
F0.0
sS'9p21'
p2032
F0.0
sS'rs3093135'
p2033
F0.0
sS'rs4251961'
p2034
F0.0
sS'log'
p2035
F0.0
sS'area'
p2036
F0.0
sS'non-carri'
p2037
F0.0
sS'start'
p2038
F0.0
sS'non-t/t'
p2039
F0.0
sS'low'
p2040
F24.67
sS'psoriasi'
p2041
F0.0
sS'bortezomib'
p2042
F3.524
sS'gli1'
p2043
F0.0
sS'acute-onset'
p2044
F3.524
sS'downer'
p2045
F0.0
sS'cisplatin,'
p2046
F3.524
sS'dasatinib'
p2047
F0.0
sS"3'-untransl"
p2048
F0.0
sS'thr256ser'
p2049
F3.524
sS'or=3.66'
p2050
F0.0
sS'hydrochlorid'
p2051
F0.0
sS'procarbazin'
p2052
F3.524
sS'regard'
p2053
F0.0
sS'timp'
p2054
F0.0
sS'card15'
p2055
F0.0
sS'electro-olfactogram'
p2056
F0.0
sS'follicular'
p2057
F0.0
sS'offspr'
p2058
F0.0
sS'diffus'
p2059
F0.0
sS'c282y/h63d'
p2060
F0.0
sS'fractur'
p2061
F0.0
sS'asbesto'
p2062
F0.0
sS'molecule-1'
p2063
F10.573
sS'mice'
p2064
F14.097
sS'categor'
p2065
F3.524
sS'conclus'
p2066
F0.0
sS'regimen'
p2067
F3.524
sS'immedi'
p2068
F0.0
sS'adenylyl'
p2069
F0.0
sS'possibl'
p2070
F14.097
sS'cotransport'
p2071
F0.0
sS'hscrp'
p2072
F0.0
sS'g-a'
p2073
F3.524
sS'bsh,'
p2074
F0.0
sS'concentration-depend'
p2075
F28.194
sS'rs677221'
p2076
F3.524
sS'doxorubicin'
p2077
F10.573
sS'unusu'
p2078
F0.0
sS'joubert'
p2079
F3.524
sS'mrp1-overexpress'
p2080
F0.0
sS'anti-abeta'
p2081
F0.0
sS'prostate-specif'
p2082
F0.0
sS'aa'
p2083
F3.524
sS'ac'
p2084
F0.0
sS'ipla1,'
p2085
F0.0
sS'ae'
p2086
F0.0
sS'ad'
p2087
F17.621
sS'ag'
p2088
F3.524
sS'mycobacterium'
p2089
F0.0
sS'certain'
p2090
F0.0
sS'609'
p2091
F0.0
sS'enterococcus'
p2092
F0.0
sS'deep'
p2093
F0.0
sS'nerv'
p2094
F0.0
sS'ap'
p2095
F0.0
sS'kbm-5'
p2096
F0.0
sS'c3435t'
p2097
F0.0
sS'studies,'
p2098
F0.0
sS'follow-up'
p2099
F0.0
sS'cultur'
p2100
F0.0
sS'anti-apoptot'
p2101
F0.0
sS'all-trans-retino'
p2102
F3.524
sS'proport'
p2103
F0.0
sS'acet'
p2104
F0.0
sS'p38,'
p2105
F7.049
sS'4.1'
p2106
F3.524
sS'bmd'
p2107
F0.0
sS'4.2'
p2108
F0.0
sS'extract'
p2109
F0.0
sS'c,'
p2110
F0.0
sS'hybrid'
p2111
F0.0
sS'asthma-rel'
p2112
F0.0
sS'abolish'
p2113
F3.524
sS'igg'
p2114
F0.0
sS'cardiomyocyt'
p2115
F0.0
sS'valid'
p2116
F3.524
sS'multidrug-resist'
p2117
F0.0
sS'intent-to-treat'
p2118
F0.0
sS'243473'
p2119
F0.0
sS'igm'
p2120
F0.0
sS'lymphoid'
p2121
F0.0
sS'2007'
p2122
F0.0
sS'poor'
p2123
F0.0
sS'perpendicular'
p2124
F0.0
sS'lentivir'
p2125
F0.0
sS'coactiv'
p2126
F0.0
sS'sequenc'
p2127
F0.0
sS'teeth'
p2128
F0.0
sS'lipotox'
p2129
F0.0
sS'cb2'
p2130
F0.0
sS'recent'
p2131
F0.0
sS'neuro2a'
p2132
F0.0
sS'serious'
p2133
F0.0
sS'anti-microbi'
p2134
F0.0
sS'gamma-amino'
p2135
F0.0
sS'syber'
p2136
F0.0
sS'antiretrovir'
p2137
F0.0
sS'reduc'
p2138
F49.34
sS'explant'
p2139
F0.0
sS'gastric'
p2140
F0.0
sS'602s'
p2141
F0.0
sS'synthas'
p2142
F0.0
sS'mrp1-transfect'
p2143
F0.0
sS'etiolog'
p2144
F0.0
sS'cd56+'
p2145
F0.0
sS'munc18b'
p2146
F0.0
sS'cilia-centrosom'
p2147
F0.0
sS'nitric'
p2148
F0.0
sS'immunoglobulin'
p2149
F0.0
sS'mass'
p2150
F7.049
sS'potenti'
p2151
F14.097
sS'hdac'
p2152
F0.0
sS'degrad'
p2153
F10.573
sS'oral'
p2154
F0.0
sS'togeth'
p2155
F7.049
sS'pigmentosum'
p2156
F3.524
sS'consider'
p2157
F0.0
sS'rituximab/cyclophosphamide/doxorubicin/vincristine/prednison'
p2158
F0.0
sS'diesel'
p2159
F0.0
sS'lack'
p2160
F0.0
sS'ceramid'
p2161
F0.0
sS'month'
p2162
F7.049
sS'amish'
p2163
F0.0
sS'charlson'
p2164
F0.0
sS'abil'
p2165
F3.524
sS'sh-sy5i'
p2166
F0.0
sS'follow'
p2167
F24.67
sS'alt'
p2168
F0.0
sS'ali/ard'
p2169
F0.0
sS'unansw'
p2170
F0.0
sS'smo'
p2171
F0.0
sS'atorvastatin'
p2172
F0.0
sS'congenit'
p2173
F0.0
sS'bolus'
p2174
F0.0
sS'1.05-1.69'
p2175
F3.524
sS'febuxostat'
p2176
F7.049
sS'tt'
p2177
F0.0
sS'vs'
p2178
F7.049
sS'cotransporters,'
p2179
F0.0
sS'articl'
p2180
F0.0
sS'lyso-sphingomyelin'
p2181
F0.0
sS'hyperthermia'
p2182
F3.524
sS'spain'
p2183
F0.0
sS'tribulus'
p2184
F0.0
sS'stabl'
p2185
F3.524
sS'haloacyl'
p2186
F0.0
sS'mortality/'
p2187
F0.0
sS'corollari'
p2188
F0.0
sS'global'
p2189
F0.0
sS'expression,'
p2190
F0.0
sS'far'
p2191
F3.524
sS'exogen'
p2192
F7.049
sS'fat'
p2193
F10.573
sS'p=0.040'
p2194
F14.097
sS'util'
p2195
F0.0
sS'rs3093105'
p2196
F0.0
sS'candid'
p2197
F7.049
sS'mechan'
p2198
F7.049
sS'rad52'
p2199
F10.573
sS'rad51'
p2200
F10.573
sS'failur'
p2201
F0.0
sS'veri'
p2202
F7.049
sS'exist,'
p2203
F0.0
sS'induct'
p2204
F0.0
sS'a569v,'
p2205
F0.0
sS'motor'
p2206
F0.0
sS'gjb6-d13s1,830'
p2207
F0.0
sS'dampen'
p2208
F0.0
sS'rs677221-c'
p2209
F7.049
sS'list'
p2210
F0.0
sS'mild'
p2211
F3.524
sS'ri'
p2212
F0.0
sS't,'
p2213
F0.0
sS'adjust'
p2214
F0.0
sS'saudi'
p2215
F24.67
sS'small'
p2216
F10.573
sS'cyclophilin'
p2217
F0.0
sS'baff'
p2218
F0.0
sS'folr1'
p2219
F0.0
sS'dimens'
p2220
F3.524
sS'glioma'
p2221
F0.0
sS'ag/gg'
p2222
F0.0
sS'90.0'
p2223
F0.0
sS'extrapyramid'
p2224
F0.0
sS'cholinerg'
p2225
F0.0
sS'cerebrovascular'
p2226
F0.0
sS'past'
p2227
F0.0
sS'rate'
p2228
F17.621
sS'haematolog'
p2229
F0.0
sS'design'
p2230
F0.0
sS'p=0.019'
p2231
F0.0
sS'link'
p2232
F0.0
sS'mtii'
p2233
F0.0
sS'integr'
p2234
F0.0
sS'excit'
p2235
F0.0
sS'serv'
p2236
F3.524
sS'cilia'
p2237
F0.0
sS'3r,6r'
p2238
F0.0
sS'barrier'
p2239
F0.0
sS'excis'
p2240
F3.524
sS'abi'
p2241
F0.0
sS'fatti'
p2242
F0.0
sS'advanc'
p2243
F3.524
sS'abl'
p2244
F14.097
sS'otof'
p2245
F0.0
sS'telomer'
p2246
F0.0
sS'citrat'
p2247
F0.0
sS'stem-cel'
p2248
F7.049
sS't180k'
p2249
F0.0
sS'consecut'
p2250
F0.0
sS'n=20'
p2251
F0.0
sS'u937'
p2252
F3.524
sS'method'
p2253
F0.0
sS'contrast'
p2254
F0.0
sS'5003'
p2255
F0.0
sS'kaplan-mei'
p2256
F0.0
sS'pressur'
p2257
F3.524
sS'5'
p2258
F17.621
sS'streptolysin-o-permeabil'
p2259
F0.0
sS'variat'
p2260
F10.573
sS'homozygot'
p2261
F0.0
sS'i.p'
p2262
F3.524
sS'mmp'
p2263
F3.524
sS'sarcoidosi'
p2264
F0.0
sS'middl'
p2265
F0.0
sS'excess'
p2266
F0.0
sS'catalys'
p2267
F0.0
sS'strong'
p2268
F28.194
sS'modifi'
p2269
F14.097
sS'valv'
p2270
F0.0
sS'valu'
p2271
F0.0
sS'il2ra'
p2272
F0.0
sS'search'
p2273
F0.0
sS'inattent'
p2274
F0.0
sS'hydroperoxid'
p2275
F0.0
sS'contrarily,'
p2276
F0.0
sS'vegfr'
p2277
F0.0
sS'oscc'
p2278
F0.0
sS'ckurova'
p2279
F0.0
sS'long-act'
p2280
F0.0
sS'host'
p2281
F0.0
sS'prior'
p2282
F3.524
sS'amount'
p2283
F0.0
sS'therapeut'
p2284
F10.573
sS'action'
p2285
F3.524
sS'alkyl'
p2286
F0.0
sS'rs1048661,'
p2287
F0.0
sS'magnitud'
p2288
F3.524
sS'rs10735810'
p2289
F0.0
sS'240'
p2290
F3.524
sS'diamet'
p2291
F14.097
sS'via'
p2292
F10.573
sS'depart'
p2293
F0.0
sS'declin'
p2294
F0.0
sS'curat'
p2295
F0.0
sS'high-grad'
p2296
F0.0
sS'posttransplant'
p2297
F0.0
sS'reabsorpt'
p2298
F0.0
sS'haemoglobin'
p2299
F3.524
sS'otoferlin'
p2300
F0.0
sS'famili'
p2301
F7.049
sS'gw786034'
p2302
F0.0
sS'aneurysm'
p2303
F3.524
sS'establish'
p2304
F3.524
sS'q829x'
p2305
F0.0
sS'select'
p2306
F49.34
sS'aggress'
p2307
F0.0
sS'ghrhr'
p2308
F7.049
sS'rs491347'
p2309
F0.0
sS'eye'
p2310
F3.524
sS'p75-fc'
p2311
F3.524
sS'dlbcl'
p2312
F0.0
sS'pml-rara'
p2313
F0.0
sS'injuri'
p2314
F0.0
sS'similarly,'
p2315
F0.0
sS'two'
p2316
F31.718
sS'european-desc'
p2317
F0.0
sS'doxorubicin-induc'
p2318
F7.049
sS'ivl'
p2319
F0.0
sS'0.80'
p2320
F0.0
sS'formul'
p2321
F10.573
sS'kr-62980'
p2322
F0.0
sS'pge2'
p2323
F0.0
sS'alzheim'
p2324
F7.049
sS'taken'
p2325
F0.0
sS'incid'
p2326
F21.146
sS'0.003'
p2327
F0.0
sS'0.002'
p2328
F0.0
sS'minor'
p2329
F0.0
sS'flat'
p2330
F3.524
sS'staphylococcus'
p2331
F0.0
sS'community-bas'
p2332
F0.0
sS'epsilon4'
p2333
F3.524
sS'0.0114'
p2334
F0.0
sS'allerg'
p2335
F0.0
sS'patient-deriv'
p2336
F0.0
sS'hundr'
p2337
F0.0
sS'dacryocystorhinostomi'
p2338
F0.0
sS'potent'
p2339
F21.146
sS'site'
p2340
F0.0
sS'ifn-gamma'
p2341
F0.0
sS'egf,'
p2342
F0.0
sS'nosocomi'
p2343
F0.0
sS'lipoprotein'
p2344
F0.0
sS'particular'
p2345
F7.049
sS'known'
p2346
F10.573
sS'oxytocin'
p2347
F3.524
sS'gh-secret'
p2348
F0.0
sS'rantes,'
p2349
F0.0
sS'document'
p2350
F3.524
sS'hiv-dna'
p2351
F0.0
sS'nausea,'
p2352
F3.524
sS'h19'
p2353
F0.0
sS'none'
p2354
F0.0
sS'calcineurin'
p2355
F0.0
sS'non-o26'
p2356
F0.0
sS'intra-articular'
p2357
F0.0
sS'hiv-rna'
p2358
F0.0
sS'h12'
p2359
F0.0
sS'histori'
p2360
F0.0
sS'syntaxin'
p2361
F0.0
sS'remain'
p2362
F0.0
sS'top2beta'
p2363
F17.621
sS'nine'
p2364
F0.0
sS'pazopanib'
p2365
F10.573
sS'inhibitor-bas'
p2366
F0.0
sS'learn'
p2367
F0.0
sS'irrevoc'
p2368
F0.0
sS'male'
p2369
F0.0
sS'cross-react'
p2370
F0.0
sS'radiotherapi'
p2371
F0.0
sS'ptch'
p2372
F0.0
sS'whole-genom'
p2373
F0.0
sS'prompt'
p2374
F0.0
sS'substanti'
p2375
F3.524
sS'ifn-alpha'
p2376
F7.049
sS'challeng'
p2377
F0.0
sS'ponv'
p2378
F0.0
sS'share'
p2379
F0.0
sS'accept'
p2380
F0.0
sS'hbra'
p2381
F0.0
sS'hormone-induc'
p2382
F0.0
sS'explor'
p2383
F0.0
sS'partner'
p2384
F0.0
sS'rs2395029'
p2385
F0.0
sS'dipeptid'
p2386
F3.524
sS'pro72arg'
p2387
F3.524
sS'5.0'
p2388
F0.0
sS'5.1'
p2389
F3.524
sS'cours'
p2390
F52.864
sS'orientia'
p2391
F0.0
sS'abc'
p2392
F7.049
sS'5.6'
p2393
F3.524
sS'et'
p2394
F0.0
sS'rather'
p2395
F0.0
sS'anoth'
p2396
F0.0
sS'pathogen-associ'
p2397
F0.0
sS'csf'
p2398
F0.0
sS'csa'
p2399
F3.524
sS'1.28-1.81'
p2400
F0.0
sS'complexes,'
p2401
F0.0
sS'5358'
p2402
F0.0
sS'brcp1'
p2403
F0.0
sS'eg,'
p2404
F0.0
sS'1.09-3.42'
p2405
F0.0
sS'polypoid'
p2406
F3.524
sS'0.35-1.13'
p2407
F0.0
sS'8.205'
p2408
F3.524
sS'cbt-1'
p2409
F0.0
sS'atp'
p2410
F0.0
sS'cohort'
p2411
F3.524
sS'fluticason'
p2412
F0.0
sS'pon1'
p2413
F0.0
sS'di-methyl'
p2414
F0.0
sS'pcr-restrict'
p2415
F24.67
sS'fever,'
p2416
F3.524
sS'p=0.0000'
p2417
F0.0
sS'tlr-7'
p2418
F0.0
sS'blood'
p2419
F10.573
sS'tlr-2'
p2420
F0.0
sS'snellen'
p2421
F0.0
sS'npas2'
p2422
F0.0
sS'associ'
p2423
F292.513
sS'stabil'
p2424
F0.0
sS'short'
p2425
F0.0
sS'whole-brain'
p2426
F0.0
sS'or=17.58'
p2427
F0.0
sS'3-fold'
p2428
F14.097
sS'caus'
p2429
F28.194
sS'hypertherm'
p2430
F0.0
sS'cancer-fre'
p2431
F0.0
sS'revlimid'
p2432
F0.0
sS'egf'
p2433
F0.0
sS"3',4',7-trimethoxyflavon"
p2434
F0.0
sS'infant'
p2435
F0.0
sS'help'
p2436
F14.097
sS'reservoir'
p2437
F3.524
sS'consequ'
p2438
F7.049
sS'compounds,'
p2439
F0.0
sS'rs1048661'
p2440
F0.0
sS'mucosa'
p2441
F3.524
sS'held'
p2442
F0.0
sS'paper'
p2443
F0.0
sS'engraft'
p2444
F0.0
sS'1.97'
p2445
F0.0
sS'suffer'
p2446
F10.573
sS'1.93'
p2447
F0.0
sS'paramet'
p2448
F3.524
sS'24'
p2449
F0.0
sS'sirolimus'
p2450
F0.0
sS'ascnar'
p2451
F0.0
sS'pharmacotherapi'
p2452
F0.0
sS'1a1'
p2453
F0.0
sS'21'
p2454
F24.67
sS'22'
p2455
F10.573
sS'sodium'
p2456
F0.0
sS'pcr'
p2457
F0.0
sS'wro'
p2458
F0.0
sS'mesenchym'
p2459
F0.0
sS'perturb'
p2460
F0.0
sS'28'
p2461
F7.049
sS'rs7566605'
p2462
F17.621
sS'interleukin-1'
p2463
F0.0
sS'metalloproteinas'
p2464
F0.0
sS'2-'
p2465
F0.0
sS'might'
p2466
F24.67
sS'alter'
p2467
F10.573
sS'his1104hi'
p2468
F0.0
sS'2+'
p2469
F0.0
sS'graft-versus-host'
p2470
F3.524
sS'good'
p2471
F3.524
sS'high-dos'
p2472
F21.146
sS'amelior'
p2473
F3.524
sS'20-month'
p2474
F0.0
sS'food'
p2475
F0.0
sS'mononeur'
p2476
F0.0
sS'slight'
p2477
F0.0
sS'number'
p2478
F7.049
sS'ces'
p2479
F0.0
sS'diglycidyl'
p2480
F0.0
sS'compound'
p2481
F3.524
sS"3'-utr"
p2482
F0.0
sS'feso4+citr'
p2483
F0.0
sS'intub'
p2484
F0.0
sS'nucleus'
p2485
F7.049
sS'crohn'
p2486
F17.621
sS'thrser'
p2487
F0.0
sS'rs706778'
p2488
F3.524
sS'oxathiol-4-on'
p2489
F0.0
sS'syndrome,'
p2490
F0.0
sS'eventu'
p2491
F0.0
sS'ht'
p2492
F0.0
sS'coimmunoprecipit'
p2493
F0.0
sS'pregnant'
p2494
F7.049
sS'event'
p2495
F7.049
sS'urate-low'
p2496
F0.0
sS'allele-specif'
p2497
F0.0
sS'4-day'
p2498
F0.0
sS'harbor'
p2499
F0.0
sS'achiev'
p2500
F7.049
sS'reactiv'
p2501
F0.0
sS'multiform'
p2502
F0.0
sS'2b'
p2503
F0.0
sS'genom'
p2504
F0.0
sS'recapitul'
p2505
F0.0
sS'fulli'
p2506
F0.0
sS'intervent'
p2507
F0.0
sS'coronari'
p2508
F0.0
sS'risperidon'
p2509
F0.0
sS'1.16-4.57'
p2510
F0.0
sS'status'
p2511
F7.049
sS'605'
p2512
F0.0
sS'prescrib'
p2513
F0.0
sS'weight'
p2514
F3.524
sS'folat'
p2515
F0.0
sS'styryl'
p2516
F0.0
sS'fish'
p2517
F0.0
sS'entamoeba'
p2518
F0.0
sS'idea'
p2519
F0.0
sS'mm3'
p2520
F0.0
sS'circadian'
p2521
F3.524
sS'15455419a'
p2522
F10.573
sS'expect'
p2523
F0.0
sS'pgp-overexpress'
p2524
F0.0
sS'beyond'
p2525
F0.0
sS'orient'
p2526
F0.0
sS'16.37'
p2527
F0.0
sS'safeti'
p2528
F0.0
sS'alcohol'
p2529
F0.0
sS'colony-stimul'
p2530
F3.524
sS'p'
p2531
F95.155
sS'2.2-10.0'
p2532
F3.524
sS'copy-numb'
p2533
F0.0
sS'inactiv'
p2534
F14.097
sS'publish'
p2535
F0.0
sS'research'
p2536
F7.049
sS'1.74'
p2537
F0.0
sS'1.76'
p2538
F0.0
sS'asn312asn'
p2539
F0.0
sS'health'
p2540
F0.0
sS'lacton'
p2541
F0.0
sS'3-week'
p2542
F0.0
sS'1.616-41.667'
p2543
F3.524
sS'occurr'
p2544
F3.524
sS'caucasian'
p2545
F0.0
sS'predispos'
p2546
F7.049
sS'laba'
p2547
F0.0
sS'gp-39'
p2548
F0.0
sS'skelet'
p2549
F0.0
sS'found'
p2550
F52.864
sS'etanercept'
p2551
F3.524
sS'suspici'
p2552
F0.0
sS'1-4'
p2553
F0.0
sS'caco-2'
p2554
F0.0
sS'reason'
p2555
F0.0
sS'base'
p2556
F7.049
sS'stomach'
p2557
F0.0
sS'mmf'
p2558
F0.0
sS'606'
p2559
F0.0
sS'cycloheximid'
p2560
F3.524
sS'basi'
p2561
F0.0
sS'xenograft'
p2562
F0.0
sS'photosensit'
p2563
F0.0
sS'neurolog'
p2564
F0.0
sS'chromogen'
p2565
F0.0
sS'chr2:118,552,255'
p2566
F3.524
sS'normotens'
p2567
F0.0
sS'american'
p2568
F0.0
sS'pre-mirna'
p2569
F0.0
sS'foetal'
p2570
F0.0
sS'nontherm'
p2571
F0.0
sS'clostridia'
p2572
F0.0
sS'undergo'
p2573
F0.0
sS'assign'
p2574
F0.0
sS'lymphocyt'
p2575
F0.0
sS'ahsg'
p2576
F0.0
sS'feed'
p2577
F0.0
sS'copper'
p2578
F0.0
sS'major'
p2579
F17.621
sS'procarcinogen'
p2580
F7.049
sS'second-lin'
p2581
F3.524
sS'c.'
p2582
F0.0
sS'1,'
p2583
F0.0
sS'exchang'
p2584
F0.0
sS'c-allel'
p2585
F0.0
sS'1.23-3.45'
p2586
F0.0
sS'6.07'
p2587
F3.524
sS'feet'
p2588
F3.524
sS'elder'
p2589
F0.0
sS'summaris'
p2590
F0.0
sS'haplotype-bas'
p2591
F0.0
sS'construct'
p2592
F3.524
sS'bhas'
p2593
F0.0
sS'balanc'
p2594
F0.0
sS'membran'
p2595
F7.049
sS'miss'
p2596
F0.0
sS'propranolol'
p2597
F3.524
sS'orofaci'
p2598
F0.0
sS'zymogen'
p2599
F0.0
sS'imatinib-intoler'
p2600
F0.0
sS'differ'
p2601
F0.0
sS'pgda'
p2602
F0.0
sS'interact'
p2603
F10.573
sS'family,'
p2604
F0.0
sS'180'
p2605
F0.0
sS'least'
p2606
F0.0
sS'adenovirus'
p2607
F0.0
sS'181'
p2608
F0.0
sS'intra-abdomin'
p2609
F0.0
sS'crow'
p2610
F3.524
sS'show'
p2611
F77.534
sS'gpx'
p2612
F3.524
sS'compartment'
p2613
F0.0
sS'lps-induc'
p2614
F10.573
sS'coccidioidomycosi'
p2615
F0.0
sS'brca1'
p2616
F0.0
sS'lactat'
p2617
F0.0
sS'antimetabolit'
p2618
F7.049
sS'option'
p2619
F0.0
sS'relationship'
p2620
F0.0
sS'cyp1a1'
p2621
F0.0
sS'asct'
p2622
F0.0
sS'bowel'
p2623
F0.0
sS'insulin-induc'
p2624
F14.097
sS'antitumor'
p2625
F0.0
sS'5-fold'
p2626
F7.049
sS'part'
p2627
F7.049
sS'oxcarbazepin'
p2628
F0.0
sS'conclusion/signific'
p2629
F0.0
sS'pgp-mediat'
p2630
F0.0
sS'apoptosi'
p2631
F24.67
sS'attract'
p2632
F7.049
sS'n-ethylmaleimide-sensit'
p2633
F0.0
sS'proliferator-activ'
p2634
F0.0
sS'exposur'
p2635
F10.573
sS'molecular'
p2636
F10.573
sS'iranian'
p2637
F10.573
sS'pain,'
p2638
F0.0
sS'remov'
p2639
F0.0
sS'reuptak'
p2640
F0.0
sS'urotheli'
p2641
F0.0
sS'azoxymethane/dextran'
p2642
F0.0
sS'sixty-thre'
p2643
F0.0
sS'0.018'
p2644
F3.524
sS'0.019'
p2645
F0.0
sS'varieti'
p2646
F3.524
sS'stressor'
p2647
F0.0
sS'0.99'
p2648
F0.0
sS'0.98'
p2649
F0.0
sS'0.94'
p2650
F0.0
sS'dane'
p2651
F0.0
sS'toward'
p2652
F0.0
sS'stx'
p2653
F0.0
sS'0.015'
p2654
F0.0
sS'chitinas'
p2655
F0.0
sS'0.017'
p2656
F0.0
sS'adhes'
p2657
F17.621
sS'deoxyuridin'
p2658
F0.0
sS'transferase-medi'
p2659
F0.0
sS'885'
p2660
F3.524
sS'p=0.04'
p2661
F0.0
sS'cvcr'
p2662
F0.0
sS'defect'
p2663
F0.0
sS'glioblastoma'
p2664
F0.0
sS'inlj,'
p2665
F0.0
sS'7q'
p2666
F3.524
sS'incub'
p2667
F21.146
sS'full-dos'
p2668
F0.0
sS'0.96-1.10'
p2669
F3.524
sS'mip1beta'
p2670
F0.0
sS'antibodies,'
p2671
F0.0
sS'metabol'
p2672
F14.097
sS'equival'
p2673
F3.524
sS'troublesom'
p2674
F0.0
sS'virus-coinfect'
p2675
F0.0
sS'onset'
p2676
F3.524
sS'periodont'
p2677
F0.0
sS'chromosom'
p2678
F21.146
sS'endogen'
p2679
F0.0
sS'age-rel'
p2680
F0.0
sS'precipit'
p2681
F7.049
sS'frail'
p2682
F0.0
sS'hgf'
p2683
F0.0
sS'donor'
p2684
F0.0
sS'analogu'
p2685
F7.049
sS'clozapin'
p2686
F0.0
sS'relief'
p2687
F14.097
sS'play'
p2688
F17.621
sS'turkish'
p2689
F0.0
sS'distribut'
p2690
F0.0
sS'non-allel'
p2691
F0.0
sS'store-oper'
p2692
F0.0
sS'39'
p2693
F10.573
sS'polydrug'
p2694
F3.524
sS'virul'
p2695
F0.0
sS'75'
p2696
F3.524
sS'prolifer'
p2697
F14.097
sS'73'
p2698
F0.0
sS'plan'
p2699
F3.524
sS'91.2'
p2700
F0.0
sS'70'
p2701
F0.0
sS'pediatr'
p2702
F7.049
sS'alpha'
p2703
F0.0
sS'l11.3'
p2704
F0.0
sS'79'
p2705
F0.0
sS'flt3/tkd'
p2706
F0.0
sS'dialysi'
p2707
F0.0
sS'kb'
p2708
F0.0
sS'stroma-medi'
p2709
F0.0
sS'kg'
p2710
F0.0
sS'arter'
p2711
F0.0
sS'10-fold'
p2712
F0.0
sS'ki'
p2713
F0.0
sS'cover'
p2714
F0.0
sS'hyperthyroid'
p2715
F0.0
sS'p=0.00006'
p2716
F0.0
sS'tacrolimus'
p2717
F0.0
sS'streptococci,'
p2718
F0.0
sS'abnorm'
p2719
F0.0
sS'canthal'
p2720
F0.0
sS'life-threaten'
p2721
F0.0
sS'v1b'
p2722
F0.0
sS'2.06'
p2723
F0.0
sS'dystrophi'
p2724
F0.0
sS'polysynov'
p2725
F0.0
sS'flt3'
p2726
F0.0
sS'messenger-link'
p2727
F0.0
sS'chelat'
p2728
F0.0
sS'prednison'
p2729
F21.146
sS'parp'
p2730
F0.0
sS'thrthr'
p2731
F0.0
sS'ic50'
p2732
F10.573
sS'debrisoquin'
p2733
F0.0
sS'affin'
p2734
F10.573
sS'impact'
p2735
F3.524
sS'current'
p2736
F0.0
sS'giant'
p2737
F0.0
sS'abcg2/brcp1'
p2738
F0.0
sS'ineffect'
p2739
F3.524
sS'nervous'
p2740
F0.0
sS'shellfish'
p2741
F0.0
sS'solut'
p2742
F3.524
sS'52.33'
p2743
F0.0
sS'cough,'
p2744
F0.0
sS'microarray'
p2745
F0.0
sS'3h'
p2746
F7.049
sS'tgfbip/betaig-h3'
p2747
F0.0
sS'trimest'
p2748
F0.0
sS'factor'
p2749
F49.34
sS'suspect'
p2750
F0.0
sS'discuss'
p2751
F0.0
sS'prosthet'
p2752
F0.0
sS'hip'
p2753
F0.0
sS'hiv'
p2754
F0.0
sS'0.64-0.99'
p2755
F0.0
sS'express'
p2756
F95.155
sS'peginterferon'
p2757
F3.524
sS'cd4'
p2758
F0.0
sS'nativ'
p2759
F3.524
sS'b'
p2760
F0.0
sS'5,000'
p2761
F0.0
sS'breast'
p2762
F10.573
sS'arteri'
p2763
F0.0
sS'haemodynam'
p2764
F0.0
sS'gleevec'
p2765
F0.0
sS'trifluoromethyl'
p2766
F0.0
sS'v1a'
p2767
F0.0
sS'crp'
p2768
F0.0
sS'ikappab'
p2769
F0.0
sS'md'
p2770
F7.049
sS'aom/dss'
p2771
F3.524
sS'postul'
p2772
F0.0
sS'synthes'
p2773
F0.0
sS't/t'
p2774
F0.0
sS'acut'
p2775
F7.049
sS'rfc'
p2776
F0.0
sS'g1321a'
p2777
F0.0
sS'crf'
p2778
F0.0
sS'common'
p2779
F10.573
sS'etonogestrel'
p2780
F0.0
sS'virolog'
p2781
F0.0
sS'x'
p2782
F0.0
sS'srta'
p2783
F0.0
sS'cyclin'
p2784
F0.0
sS'immunodefici'
p2785
F0.0
sS'case-control'
p2786
F0.0
sS'anxiety-depress'
p2787
F0.0
sS'fluoresc'
p2788
F3.524
sS'extensor'
p2789
F0.0
sS'agglutin'
p2790
F0.0
sS'b-cell-nhl'
p2791
F0.0
sS'315'
p2792
F0.0
sS'sex'
p2793
F0.0
sS'leukocyt'
p2794
F3.524
sS'crypt'
p2795
F3.524
sS'schizophrenia'
p2796
F28.194
sS'2-fold'
p2797
F0.0
sS'nimesulid'
p2798
F0.0
sS'framingham'
p2799
F0.0
sS'dimethylamino'
p2800
F0.0
sS'reserv'
p2801
F7.049
sS'sem'
p2802
F0.0
sS'2.0'
p2803
F0.0
sS'2.7'
p2804
F3.524
sS'hiv/aid'
p2805
F0.0
sS'analog'
p2806
F7.049
sS'2.4'
p2807
F0.0
sS'meth/'
p2808
F0.0
sS'nonphosphorylat'
p2809
F0.0
sS'chemotherapeut'
p2810
F3.524
sS'6.4+/-1.3'
p2811
F0.0
sS'debat'
p2812
F0.0
sS'mg/dl'
p2813
F10.573
sS'bioluminesc'
p2814
F0.0
sS'various'
p2815
F14.097
sS'opa1'
p2816
F0.0
sS'interferon-gamma'
p2817
F0.0
sS'experi'
p2818
F0.0
sS'urtica'
p2819
F0.0
sS'altern'
p2820
F17.621
sS'hypercholesterolem'
p2821
F0.0
sS'outpati'
p2822
F0.0
sS'genet'
p2823
F24.67
sS'complement'
p2824
F3.524
sS'aspir'
p2825
F0.0
sS'isol'
p2826
F7.049
sS'hiv-1'
p2827
F10.573
sS'death'
p2828
F7.049
sS'lipopolysaccharid'
p2829
F7.049
sS'clarithromycin'
p2830
F0.0
sS'0.011'
p2831
F7.049
sS'interlaminar'
p2832
F0.0
sS'europ'
p2833
F0.0
sS'decreas'
p2834
F74.009
sS'histolytica'
p2835
F0.0
sS'minut'
p2836
F0.0
sS'high-affin'
p2837
F0.0
sS'c'
p2838
F17.621
sS'n-wasp'
p2839
F0.0
sS'bisbenzylisoquinolin'
p2840
F0.0
sS"3'utr"
p2841
F0.0
sS'receptor-rel'
p2842
F0.0
sS'pdt'
p2843
F0.0
sS'pds'
p2844
F0.0
sS'0.012'
p2845
F0.0
sS'abcc1'
p2846
F0.0
sS'meckel'
p2847
F0.0
sS'double-strand'
p2848
F0.0
sS'context'
p2849
F0.0
sS'c282i'
p2850
F0.0
sS'long-term'
p2851
F3.524
sS'antiapoptot'
p2852
F0.0
sS'however,'
p2853
F0.0
sS'whole'
p2854
F0.0
sS'load'
p2855
F0.0
sS'ectonucleotid'
p2856
F7.049
sS'ligand,'
p2857
F0.0
sS'episod'
p2858
F3.524
sS'reject'
p2859
F0.0
sS'point'
p2860
F3.524
sS'receptor-gamma'
p2861
F0.0
sS'except'
p2862
F0.0
sS'nonsteroid'
p2863
F0.0
sS'adh1c'
p2864
F0.0
sS'batteri'
p2865
F0.0
sS'throughout'
p2866
F0.0
sS'stratif'
p2867
F0.0
sS'non-synonym'
p2868
F0.0
sS'platinum'
p2869
F0.0
sS'once-week'
p2870
F0.0
sS'g.-10,1025g'
p2871
F3.524
sS'compris'
p2872
F0.0
sS'enterococci'
p2873
F0.0
sS'cxcr4'
p2874
F0.0
sS'devic'
p2875
F0.0
sS'due'
p2876
F14.097
sS'side-effect'
p2877
F0.0
sS'secret'
p2878
F21.146
sS'pa'
p2879
F0.0
sS'pg'
p2880
F0.0
sS'rs1937970-a'
p2881
F0.0
sS'silenc'
p2882
F7.049
sS'4'
p2883
F10.573
sS'non-centr'
p2884
F0.0
sS'methylprednisolon'
p2885
F10.573
sS'mind'
p2886
F0.0
sS'spp.'
p2887
F0.0
sS'1000-1200'
p2888
F0.0
sS'convert'
p2889
F0.0
sS'neurotox'
p2890
F0.0
sS'spectrum'
p2891
F0.0
sS'gpx1'
p2892
F7.049
sS'leukoplakia'
p2893
F0.0
sS'gpx2'
p2894
F0.0
sS'understand'
p2895
F0.0
sS'liver'
p2896
F0.0
sS'anaplast'
p2897
F0.0
sS'gag'
p2898
F0.0
sS'selikoff'
p2899
F0.0
sS'iibeta'
p2900
F7.049
sS'endovascular'
p2901
F0.0
sS'desensit'
p2902
F7.049
sS'normoxia'
p2903
F0.0
sS'p1'
p2904
F0.0
sS'downregul'
p2905
F0.0
sS'hypomorph'
p2906
F0.0
sS'10p12.31-p12.2'
p2907
F0.0
sS'solid'
p2908
F0.0
sS'4-acetyl-3-hydroxy-2-propylphenoxi'
p2909
F0.0
sS'02-02b'
p2910
F0.0
sS'histor'
p2911
F0.0
sS'ciliari'
p2912
F0.0
sS'durat'
p2913
F0.0
sS'histon'
p2914
F0.0
sS'sv119'
p2915
F0.0
sS'unifi'
p2916
F0.0
sS'behavior'
p2917
F0.0
sS'aberr'
p2918
F0.0
sS'ribonucl'
p2919
F0.0
sS'golgi'
p2920
F0.0
sS'aro'
p2921
F0.0
sS'loop'
p2922
F0.0
sS'morphogenesis,'
p2923
F0.0
sS'alkyloid'
p2924
F0.0
sS'twenty-seven'
p2925
F0.0
sS'19.0'
p2926
F0.0
sS'proteinosi'
p2927
F0.0
sS'centr'
p2928
F0.0
sS'gel'
p2929
F0.0
sS'mg/d'
p2930
F0.0
sS'physic'
p2931
F7.049
sS'confound'
p2932
F0.0
sS'3,'
p2933
F0.0
sS'colorect'
p2934
F0.0
sS'hirudin'
p2935
F0.0
sS'full-length'
p2936
F0.0
sS'deoxynucleotidyl'
p2937
F0.0
sS'34'
p2938
F7.049
sS'3.68'
p2939
F0.0
sS'osteogenesi'
p2940
F0.0
sS'irrelev'
p2941
F3.524
sS'ipla1'
p2942
F0.0
sS'minim'
p2943
F0.0
sS'proteasom'
p2944
F14.097
sS'belong'
p2945
F0.0
sS'shorten'
p2946
F3.524
sS'gaba/glutam'
p2947
F0.0
sS'shh-gli'
p2948
F0.0
sS'myelogen'
p2949
F0.0
sS'microg/kg'
p2950
F0.0
sS'100.8+/-52.5'
p2951
F0.0
sS'ester'
p2952
F3.524
sS'cytometri'
p2953
F0.0
sS'danish'
p2954
F0.0
sS'higher'
p2955
F17.621
sS'anosm'
p2956
F0.0
sS'optic'
p2957
F0.0
sS'optim'
p2958
F7.049
sS'painless'
p2959
F0.0
sS'wherea'
p2960
F7.049
sS'consumpt'
p2961
F0.0
sS'temporari'
p2962
F3.524
sS'parenter'
p2963
F0.0
sS'inflam'
p2964
F0.0
sS'p=0.000001'
p2965
F3.524
sS'robust'
p2966
F0.0
sS'factor-alpha'
p2967
F0.0
sS'typic'
p2968
F0.0
sS'focal'
p2969
F0.0
sS'recreat'
p2970
F0.0
sS'febuxostat,'
p2971
F0.0
sS'gsp'
p2972
F7.049
sS'15.2'
p2973
F3.524
sS'task'
p2974
F0.0
sS'mutation-neg'
p2975
F0.0
sS'calbindin-d9k'
p2976
F0.0
sS'discourag'
p2977
F0.0
sS'older'
p2978
F0.0
sS'12-month'
p2979
F0.0
sS'poland'
p2980
F0.0
sS'butyr'
p2981
F0.0
sS'1.2-6.2'
p2982
F7.049
sS'5.85'
p2983
F0.0
sS'person'
p2984
F0.0
sS'devoid'
p2985
F0.0
sS'anti-inflammatori'
p2986
F0.0
sS'expens'
p2987
F0.0
sS'p38-depend'
p2988
F0.0
sS'swiss'
p2989
F0.0
sS'15452658t'
p2990
F10.573
sS'overall-respons'
p2991
F0.0
sS'dose-depend'
p2992
F3.524
sS'propos'
p2993
F0.0
sS'explan'
p2994
F0.0
sS'burden'
p2995
F3.524
sS'anonym'
p2996
F0.0
sS'52.6'
p2997
F0.0
sS'bilater'
p2998
F0.0
sS'ldl'
p2999
F0.0
sS'0.0008'
p3000
F0.0
sS'administ'
p3001
F3.524
sS'0.0001'
p3002
F3.524
sS'taiwan'
p3003
F0.0
sS'33243301g'
p3004
F21.146
sS'heterozygos'
p3005
F0.0
sS'2.1-'
p3006
F0.0
sS'cut'
p3007
F0.0
sS'predomin'
p3008
F0.0
sS'tablet'
p3009
F0.0
sS'also'
p3010
F42.291
sS'stimul'
p3011
F10.573
sS'first-lin'
p3012
F0.0
sS'cml,'
p3013
F0.0
sS'7'
p3014
F10.573
sS'lys751gln'
p3015
F3.524
sS'subsequ'
p3016
F0.0
sS'zidovudin'
p3017
F0.0
sS'sely'
p3018
F0.0
sS'hsp90beta'
p3019
F0.0
sS'complaint'
p3020
F0.0
sS'gvhd'
p3021
F0.0
sS'format'
p3022
F7.049
sS'glutam'
p3023
F0.0
sS'caspase-depend'
p3024
F0.0
sS'molecul'
p3025
F10.573
sS'circul'
p3026
F0.0
sS'characterist'
p3027
F3.524
sS'truncat'
p3028
F0.0
sS'hdl3'
p3029
F0.0
sS'knock'
p3030
F0.0
sS'nonproduct'
p3031
F0.0
sS'd'
p3032
F10.573
sS'1.39-9.74'
p3033
F0.0
sS'spine'
p3034
F0.0
sS'signal'
p3035
F10.573
sS'rehabilit'
p3036
F0.0
sS'conclusion:'
p3037
F0.0
sS'k9'
p3038
F0.0
sS'ros'
p3039
F0.0
sS'collect'
p3040
F0.0
sS'recalcitr'
p3041
F0.0
sS'bladder,'
p3042
F0.0
sS'histolog'
p3043
F3.524
sS'rheumatoid'
p3044
F10.573
sS'pxn'
p3045
F0.0
sS'3-oxo-1,1-diphenyl-tetrahydro-oxazolo'
p3046
F21.146
sS'1.115-1.858'
p3047
F0.0
sS'0.73-0.88'
p3048
F0.0
sS'epidemiolog'
p3049
F14.097
sS'coliti'
p3050
F3.524
sS'acknowledg'
p3051
F0.0
sS'pulsed-field'
p3052
F0.0
sS's1p'
p3053
F0.0
sS'rs579543'
p3054
F0.0
sS'mhc'
p3055
F0.0
sS'metabolit'
p3056
F3.524
sS'strongest'
p3057
F3.524
sS'1-methyl-4-phenyl-1,2,3,6-tetrahydropyridin'
p3058
F0.0
sS'sampl'
p3059
F3.524
sS'asthmat'
p3060
F0.0
sS'3.0'
p3061
F7.049
sS'gjb2'
p3062
F0.0
sS'surpris'
p3063
F0.0
sS'gjb3'
p3064
F0.0
sS'3.9'
p3065
F0.0
sS'p=0.011'
p3066
F0.0
sS'analges'
p3067
F0.0
sS'and/or'
p3068
F7.049
sS'resect'
p3069
F0.0
sS'nilotinib'
p3070
F0.0
sS'5.7-fold'
p3071
F0.0
sS'inla'
p3072
F0.0
sS't393'
p3073
F0.0
sS'per'
p3074
F3.524
sS'8-iso-'
p3075
F0.0
sS'recognit'
p3076
F0.0
sS'larg'
p3077
F3.524
sS'recognis'
p3078
F3.524
sS'transplant'
p3079
F14.097
sS'rs12198173'
p3080
F0.0
sS'neurostimul'
p3081
F0.0
sS'srage'
p3082
F0.0
sS'samp8'
p3083
F0.0
sS'stec'
p3084
F0.0
sS'sulfate-induc'
p3085
F0.0
sS'patient'
p3086
F172.689
sS'bc'
p3087
F10.573
sS'300'
p3088
F17.621
sS'reach'
p3089
F7.049
sS'7.27'
p3090
F0.0
sS'305'
p3091
F0.0
sS'stem'
p3092
F7.049
sS'cochran'
p3093
F0.0
sS'bp'
p3094
F0.0
sS'bs'
p3095
F0.0
sS'propriocept'
p3096
F0.0
sS'0.93-1.06'
p3097
F0.0
sS'biomark'
p3098
F0.0
sS'impos'
p3099
F0.0
sS'parenchym'
p3100
F0.0
sS'oligomer'
p3101
F7.049
sS'elucid'
p3102
F0.0
sS'materi'
p3103
F0.0
sS'glaucoma'
p3104
F0.0
sS'virus'
p3105
F0.0
sS'immunosuppress'
p3106
F0.0
sS'leukaemia'
p3107
F0.0
sS'ptcl2'
p3108
F0.0
sS'modal'
p3109
F0.0
sS'chi'
p3110
F0.0
sS'carcinoma'
p3111
F10.573
sS'prostat'
p3112
F0.0
sS'gamma'
p3113
F0.0
sS'ida'
p3114
F0.0
sS'reduct'
p3115
F24.67
sS'repair'
p3116
F28.194
sS'sulfat'
p3117
F0.0
sS'antisens'
p3118
F3.524
sS'bcr-abl,'
p3119
F3.524
sS'bbb'
p3120
F0.0
sS'within'
p3121
F14.097
sS'locus'
p3122
F10.573
sS'screened,'
p3123
F0.0
sS'phase'
p3124
F0.0
sS'82.3'
p3125
F0.0
sS'ensur'
p3126
F0.0
sS'infer'
p3127
F0.0
sS'trpv1'
p3128
F0.0
sS'mptp-induc'
p3129
F0.0
sS'7q22.1'
p3130
F7.049
sS'bsg'
p3131
F0.0
sS'institut'
p3132
F0.0
sS'subcellular'
p3133
F0.0
sS'84.3'
p3134
F0.0
sS'question'
p3135
F0.0
sS'msm'
p3136
F0.0
sS'long'
p3137
F0.0
sS'xpd'
p3138
F7.049
sS'unselect'
p3139
F0.0
sS'1.50'
p3140
F0.0
sS'adenocarcinoma'
p3141
F0.0
sS'oyster'
p3142
F0.0
sS'1.54'
p3143
F0.0
sS'epitheli'
p3144
F0.0
sS'procedur'
p3145
F3.524
sS'tet-oper'
p3146
F0.0
sS'kbm5'
p3147
F0.0
sS'cab45'
p3148
F0.0
sS'inflammation-driven'
p3149
F3.524
sS'retino'
p3150
F3.524
sS'haplotype-transmiss'
p3151
F0.0
sS'gonadotropin-releas'
p3152
F0.0
sS'wnk'
p3153
F0.0
sS'teratogen'
p3154
F0.0
sS'rs2275353'
p3155
F10.573
sS'mfn1'
p3156
F0.0
sS'flexor'
p3157
F0.0
sS'wnt'
p3158
F0.0
sS'cytotox'
p3159
F7.049
sS'sun'
p3160
F0.0
sS'line'
p3161
F17.621
sS'mitig'
p3162
F0.0
sS'hair'
p3163
F0.0
sS'epigastr'
p3164
F3.524
sS'consist'
p3165
F17.621
sS'ala394thr'
p3166
F0.0
sS'abcb1'
p3167
F0.0
sS'cin'
p3168
F0.0
sS'us'
p3169
F0.0
sS'utr'
p3170
F14.097
sS'cryoglobulinaemia'
p3171
F0.0
sS'growth'
p3172
F7.049
sS'thiazide-sensit'
p3173
F0.0
sS'lysyl'
p3174
F0.0
sS'drb'
p3175
F0.0
sS'ikkbeta-medi'
p3176
F7.049
sS'remaind'
p3177
F0.0
sS'similar'
p3178
F17.621
sS'clear'
p3179
F0.0
sS'x-ray'
p3180
F0.0
sS'rs3118470,'
p3181
F0.0
sS'curv'
p3182
F0.0
sS'cryptococc'
p3183
F0.0
sS'dss-induc'
p3184
F21.146
sS'estrogen'
p3185
F3.524
sS'tomographi'
p3186
F0.0
sS'flow'
p3187
F0.0
sS'p190rhogap'
p3188
F0.0
sS'fluenci'
p3189
F0.0
sS'repres'
p3190
F3.524
sS'v2'
p3191
F0.0
sS'bcrp'
p3192
F0.0
sS'ether'
p3193
F0.0
sS'cleav'
p3194
F0.0
sS'pyridoxin'
p3195
F0.0
sS'aggrav'
p3196
F0.0
sS'lyn'
p3197
F10.573
sS'hospit'
p3198
F0.0
sS'spontan'
p3199
F0.0
sS'enterocyt'
p3200
F0.0
sS'crisi'
p3201
F0.0
sS'ag/'
p3202
F0.0
sS'oncoprotein'
p3203
F0.0
sS'sequenti'
p3204
F7.049
sS'enpp'
p3205
F7.049
sS'mtdna'
p3206
F3.524
sS'ns-398'
p3207
F0.0
sS'nich'
p3208
F0.0
sS'il-1beta'
p3209
F0.0
sS'transport'
p3210
F14.097
sS'3.27'
p3211
F0.0
sS'slow-onset'
p3212
F0.0
sS'ferment'
p3213
F0.0
sS'receptor-depend'
p3214
F0.0
sS'morphogenesi'
p3215
F0.0
sS'asymmetr'
p3216
F0.0
sS'contracept'
p3217
F0.0
sS'adenoma'
p3218
F7.049
sS'viral'
p3219
F0.0
sS'evas'
p3220
F0.0
sS'90-100'
p3221
F0.0
sS'rs3020781'
p3222
F7.049
sS'du'
p3223
F0.0
sS'public'
p3224
F0.0
sS'thr241met'
p3225
F10.573
sS'hub'
p3226
F0.0
sS'permeabil'
p3227
F0.0
sS'inflamm'
p3228
F7.049
sS'enzym'
p3229
F14.097
sS'propofol'
p3230
F0.0
sS'sphingosine-1-phosph'
p3231
F0.0
sS'602i'
p3232
F0.0
sS'thapsigargin'
p3233
F7.049
sS'e'
p3234
F0.0
sS'algorithm'
p3235
F0.0
sS'antimetabolites,'
p3236
F0.0
sS'ocular'
p3237
F3.524
sS'rhodamin'
p3238
F0.0
sS'age'
p3239
F0.0
sS'remit'
p3240
F0.0
sS'clinician'
p3241
F0.0
sS'2000'
p3242
F21.146
sS'train'
p3243
F0.0
sS'2006'
p3244
F0.0
sS'6.23'
p3245
F0.0
sS'2008'
p3246
F0.0
sS'rs10735810,'
p3247
F0.0
sS'svr'
p3248
F0.0
sS'sodium-induc'
p3249
F0.0
sS'munc18a'
p3250
F0.0
sS'dystrophy,'
p3251
F0.0
sS'code'
p3252
F0.0
sS'partial'
p3253
F0.0
sS'edg'
p3254
F0.0
sS'fulminant,'
p3255
F0.0
sS'serser'
p3256
F3.524
sS'green'
p3257
F0.0
sS'stx2'
p3258
F0.0
sS'gg'
p3259
F3.524
sS'fungal'
p3260
F10.573
sS'gc'
p3261
F7.049
sS'carious'
p3262
F0.0
sS'ribavirin-bas'
p3263
F3.524
sS'r=-0.30'
p3264
F0.0
sS'mri'
p3265
F0.0
sS'cognit'
p3266
F0.0
sS'gi'
p3267
F0.0
sS'gh'
p3268
F0.0
sS'epidur'
p3269
F0.0
sS'lifetim'
p3270
F0.0
sS'pioneer'
p3271
F0.0
sS'background/aim'
p3272
F0.0
sS'1.16-1.54'
p3273
F0.0
sS'osteoporosi'
p3274
F0.0
sS'young'
p3275
F0.0
sS'0.047'
p3276
F0.0
sS'fragmentation,'
p3277
F0.0
sS'lower'
p3278
F24.67
sS'kinases,'
p3279
F7.049
sS'a-medi'
p3280
F0.0
sS'becam'
p3281
F0.0
sS'fatal'
p3282
F0.0
sS'chemokin'
p3283
F0.0
sS'inject'
p3284
F7.049
sS'passiv'
p3285
F0.0
sS'overgrowth'
p3286
F0.0
sS'random'
p3287
F0.0
sS'assay'
p3288
F0.0
sS'0.0011'
p3289
F0.0
sS'without'
p3290
F3.524
sS'disclos'
p3291
F0.0
sS'ddx40'
p3292
F3.524
sS'end'
p3293
F28.194
sS'microenviron'
p3294
F0.0
sS'0.0019'
p3295
F0.0
sS'mous'
p3296
F10.573
sS'1h-indene-2-carboxyl'
p3297
F0.0
sS'volum'
p3298
F0.0
sS'cellular'
p3299
F0.0
sS'neurodevelopment'
p3300
F0.0
sS'ga'
p3301
F0.0
sS'g,'
p3302
F3.524
sS'relev'
p3303
F0.0
sS'nausea'
p3304
F3.524
sS'loxl1'
p3305
F0.0
sS'nptn'
p3306
F10.573
sS'stiff'
p3307
F0.0
sS'apoptot'
p3308
F0.0
sS'gender'
p3309
F0.0
sS'sedentari'
p3310
F0.0
sS'shock'
p3311
F0.0
sS'stratifi'
p3312
F0.0
sS'waist-to-hip'
p3313
F3.524
sS'asp'
p3314
F0.0
sS'angiographi'
p3315
F0.0
sS'2.20'
p3316
F0.0
sS'atpases,'
p3317
F0.0
sS'2.26'
p3318
F0.0
sS'vomit'
p3319
F3.524
sS'nanocapsul'
p3320
F21.146
sS'impli'
p3321
F7.049
sS'smaller'
p3322
F3.524
sS'age-related,'
p3323
F0.0
sS'icss'
p3324
F3.524
sS'aspart'
p3325
F0.0
sS'natur'
p3326
F0.0
sS'hepatocellular'
p3327
F3.524
sS'kampot'
p3328
F0.0
sS'formalin-fix'
p3329
F0.0
sS'acacetin'
p3330
F0.0
sS'3.67'
p3331
F0.0
sS'vaccin'
p3332
F0.0
sS'acini'
p3333
F0.0
sS'indomethacin'
p3334
F14.097
sS'3-kinase-lik'
p3335
F0.0
sS'stk39'
p3336
F0.0
sS'acid'
p3337
F28.194
sS'odd'
p3338
F0.0
sS'elisa'
p3339
F0.0
sS'kinas'
p3340
F38.767
sS'index'
p3341
F7.049
sS'undetect'
p3342
F0.0
sS'nod2-depend'
p3343
F3.524
sS'compar'
p3344
F42.291
sS'receptor-medi'
p3345
F0.0
sS'c1604g'
p3346
F0.0
sS'product,'
p3347
F3.524
sS'cdk9'
p3348
F0.0
sS'parallel-group'
p3349
F0.0
sS'rtx'
p3350
F0.0
sS'cell'
p3351
F102.203
sS'experiment'
p3352
F0.0
sS'bdp'
p3353
F3.524
sS'linkag'
p3354
F0.0
sS'rs2305160'
p3355
F0.0
sS'anticoagul'
p3356
F0.0
sS'prime/rad5'
p3357
F0.0
sS'bird'
p3358
F0.0
sS'deduc'
p3359
F0.0
sS'laxiti'
p3360
F0.0
sS'involv'
p3361
F45.815
sS'cyclooxygenase-2'
p3362
F0.0
sS'lepra'
p3363
F0.0
sS'c-abl'
p3364
F0.0
sS'ligand'
p3365
F3.524
sS'euthyroid'
p3366
F0.0
sS'bp-regul'
p3367
F0.0
sS'adma'
p3368
F0.0
sS'bodi'
p3369
F0.0
sS'recombinant-'
p3370
F0.0
sS'radiolabel'
p3371
F0.0
sS'placebo-control'
p3372
F0.0
sS'sinc'
p3373
F0.0
sS'new-gener'
p3374
F0.0
sS'transmembran'
p3375
F0.0
sS'27.3'
p3376
F0.0
sS'lrp5'
p3377
F3.524
sS'northern'
p3378
F0.0
sS'endometri'
p3379
F0.0
sS'drs.'
p3380
F0.0
sS'32'
p3381
F0.0
sS'31'
p3382
F0.0
sS'30'
p3383
F0.0
sS'meperidin'
p3384
F7.049
sS'36'
p3385
F3.524
sS'serine/threonin'
p3386
F0.0
sS'stomal'
p3387
F3.524
sS'thr241met,'
p3388
F3.524
sS'fluoroscop'
p3389
F0.0
sS'embryon'
p3390
F7.049
sS'insulin'
p3391
F14.097
sS'3-'
p3392
F0.0
sS'samples,'
p3393
F0.0
sS'dopamin'
p3394
F0.0
sS'chang'
p3395
F7.049
sS'gene'
p3396
F246.698
sS'p-glycoprotein'
p3397
F0.0
sS'chanc'
p3398
F3.524
sS'interactions,'
p3399
F0.0
sS'employe'
p3400
F0.0
sS'causat'
p3401
F0.0
sS'inhibitors,'
p3402
F0.0
sS'mitochondri'
p3403
F0.0
sS'approxim'
p3404
F3.524
sS'emot'
p3405
F7.049
sS'67.9'
p3406
F3.524
sS'preferenti'
p3407
F3.524
sS'drug-resist'
p3408
F0.0
sS'apo'
p3409
F3.524
sS'apl'
p3410
F0.0
sS'home'
p3411
F0.0
sS'numer'
p3412
F0.0
sS'3,4-a'
p3413
F21.146
sS'fistul'
p3414
F0.0
sS'use'
p3415
F42.291
sS'mg132'
p3416
F7.049
sS'chd'
p3417
F0.0
sS'4-fluoro-benzylamid'
p3418
F14.097
sS'non-small-cel'
p3419
F0.0
sS'1.13-3.42'
p3420
F0.0
sS'cancers:'
p3421
F0.0
sS'structure-act'
p3422
F0.0
sS'implic'
p3423
F10.573
sS'presynapt'
p3424
F0.0
sS'rs2108622,'
p3425
F0.0
sS'ex6-14g'
p3426
F0.0
sS'panel'
p3427
F0.0
sS'haplotyp'
p3428
F21.146
sS'neurotransmitt'
p3429
F0.0
sS't-allel'
p3430
F7.049
sS'1.6-4.8'
p3431
F0.0
sS'l849h'
p3432
F0.0
sS'src'
p3433
F10.573
sS'trait'
p3434
F0.0
sS'41.4'
p3435
F0.0
sS'mismatch'
p3436
F0.0
sS'trail'
p3437
F0.0
sS'transient'
p3438
F7.049
sS'nitazoxanide,'
p3439
F0.0
sS'hypopharyng'
p3440
F3.524
sS'8'
p3441
F28.194
sS'xrcc1'
p3442
F0.0
sS'xrcc3'
p3443
F14.097
sS'iii'
p3444
F0.0
sS'gstp1-105'
p3445
F0.0
sS'xrcc7'
p3446
F17.621
sS'women'
p3447
F21.146
sS'high'
p3448
F35.243
sS'signific'
p3449
F126.873
sS'homeobox'
p3450
F0.0
sS'augment'
p3451
F0.0
sS'f'
p3452
F0.0
sS'prospective-observ'
p3453
F0.0
sS'oh'
p3454
F0.0
sS'stroke'
p3455
F0.0
sS'serotyp'
p3456
F0.0
sS'celiac'
p3457
F0.0
sS'wild-typ'
p3458
F3.524
sS'i.v.'
p3459
F0.0
sS'inhibitor'
p3460
F49.34
sS'time-depend'
p3461
F7.049
sS'importantly,'
p3462
F0.0
sS'control'
p3463
F38.767
sS'0.8'
p3464
F7.049
sS'malform'
p3465
F0.0
sS'camptothecin'
p3466
F0.0
sS'e.g.'
p3467
F3.524
sS'process'
p3468
F10.573
sS'loci'
p3469
F28.194
sS'0.4'
p3470
F10.573
sS'5-aminosalicyl'
p3471
F0.0
sS'histopatholog'
p3472
F0.0
sS'macaca'
p3473
F0.0
sS'tag'
p3474
F0.0
sS'met1thr'
p3475
F3.524
sS'taa'
p3476
F21.146
sS'tac'
p3477
F0.0
sS'sought'
p3478
F0.0
sS'azathioprin'
p3479
F0.0
sS'g.-247c/t'
p3480
F0.0
sS'gca'
p3481
F0.0
sS'sir'
p3482
F21.146
sS'surfac'
p3483
F0.0
sS'rs731236'
p3484
F0.0
sS'siv'
p3485
F0.0
sS'bcr-abl'
p3486
F28.194
sS'hydrogen'
p3487
F0.0
sS'six'
p3488
F0.0
sS'serum'
p3489
F10.573
sS'transgen'
p3490
F0.0
sS'resiniferatoxin'
p3491
F0.0
sS'glycopeptide,'
p3492
F0.0
sS'isogenic-pair'
p3493
F0.0
sS'occup'
p3494
F0.0
sS'h2ax'
p3495
F0.0
sS'low-grad'
p3496
F0.0
sS'purpose:'
p3497
F0.0
sS'inhal'
p3498
F0.0
sS'attend'
p3499
F0.0
sS'o26'
p3500
F0.0
sS'pmol/mg'
p3501
F0.0
sS'0.035'
p3502
F0.0
sS'prolin'
p3503
F0.0
sS'leukemia'
p3504
F0.0
sS'hazard'
p3505
F0.0
sS'exemplifi'
p3506
F7.049
sS'ca2+'
p3507
F0.0
sS'unidentifi'
p3508
F0.0
sS'pyrazine-7-carboxyl'
p3509
F21.146
sS'ethnic'
p3510
F0.0
sS'glucos'
p3511
F0.0
sS'marrow'
p3512
F0.0
sS'missens'
p3513
F0.0
sS'doe'
p3514
F0.0
sS'nps'
p3515
F7.049
sS'viremia'
p3516
F0.0
sS'classic-i'
p3517
F0.0
sS'drosha'
p3518
F0.0
sS'essenti'
p3519
F0.0
sS'949'
p3520
F0.0
sS'concern'
p3521
F0.0
sS'sh3tc2'
p3522
F3.524
sS'i/ii'
p3523
F0.0
sS'counter'
p3524
F0.0
sS'pro47ser'
p3525
F7.049
sS'correspond'
p3526
F0.0
sS'element'
p3527
F0.0
sS'sorafenib'
p3528
F0.0
sS'p=0.036'
p3529
F14.097
sS'mainten'
p3530
F0.0
sS'allow'
p3531
F0.0
sS'6.7'
p3532
F0.0
sS'thyroidectomi'
p3533
F0.0
sS'elig'
p3534
F0.0
sS'a/b'
p3535
F0.0
sS'syndecan'
p3536
F0.0
sS'hand,'
p3537
F0.0
sS'alon'
p3538
F0.0
sS'innat'
p3539
F0.0
sS'crosstalk'
p3540
F0.0
sS'kappabalpha'
p3541
F3.524
sS'vector-bas'
p3542
F0.0
sS'whilst'
p3543
F0.0
sS'non-smok'
p3544
F0.0
sS'135'
p3545
F0.0
sS'jnk'
p3546
F7.049
sS'aortic'
p3547
F7.049
sS'139'
p3548
F0.0
sS'138'
p3549
F0.0
sS'1.83'
p3550
F3.524
sS'superior'
p3551
F0.0
sS'1.82'
p3552
F0.0
sS'outer'
p3553
F0.0
sS'gram-posit'
p3554
F0.0
sS'tsh'
p3555
F0.0
sS'oropharyng'
p3556
F0.0
sS'1.1-2.9'
p3557
F0.0
sS'mellitus'
p3558
F0.0
sS'twenty-thre'
p3559
F0.0
sS'preincision'
p3560
F0.0
sS'a7,445g'
p3561
F0.0
sS'asa'
p3562
F0.0
sS'decad'
p3563
F0.0
sS'therefor'
p3564
F0.0
sS'preval'
p3565
F7.049
sS'rs4646421'
p3566
F0.0
sS'crucial'
p3567
F3.524
sS'efficaci'
p3568
F10.573
sS'greater'
p3569
F0.0
sS'nephropathies,'
p3570
F0.0
sS'overal'
p3571
F3.524
sS'pharmacolog'
p3572
F3.524
sS'inocul'
p3573
F0.0
sS'venous'
p3574
F0.0
sS'facilit'
p3575
F0.0
sS'rs2108622'
p3576
F0.0
sS'cells,'
p3577
F0.0
sS'50-k'
p3578
F0.0
sS'day'
p3579
F0.0
sS'allograft'
p3580
F0.0
sS'assess'
p3581
F0.0
sS'pressure-low'
p3582
F0.0
sS'profound'
p3583
F0.0
sS'single-centr'
p3584
F0.0
sS'demethyl'
p3585
F0.0
sS'tir'
p3586
F0.0
sS'rs2198843'
p3587
F0.0
sS'telomeras'
p3588
F0.0
sS'polit'
p3589
F0.0
sS'receptor'
p3590
F49.34
sS'lt-e'
p3591
F0.0
sS'subset'
p3592
F0.0
sS'opiat'
p3593
F0.0
sS'tension'
p3594
F7.049
sS'22.25'
p3595
F0.0
sS'gtpase-activ'
p3596
F0.0
sS'cell-bas'
p3597
F0.0
sS'consum'
p3598
F0.0
sS'flavopiridol'
p3599
F0.0
sS'88'
p3600
F0.0
sS'hli'
p3601
F0.0
sS'non-valvular'
p3602
F0.0
sS'quiescent'
p3603
F0.0
sS'1mum'
p3604
F0.0
sS'80'
p3605
F3.524
sS'salin'
p3606
F0.0
sS'hla'
p3607
F3.524
sS'variabl'
p3608
F3.524
sS'men,'
p3609
F0.0
sS'matrix'
p3610
F3.524
sS'influenc'
p3611
F35.243
sS'vcl'
p3612
F0.0
sS'416'
p3613
F0.0
sS'ret'
p3614
F0.0
sS'repress'
p3615
F0.0
sS'time,'
p3616
F0.0
sS'remiss'
p3617
F0.0
sS'prednisone-spar'
p3618
F0.0
sS'vincristine/prednison'
p3619
F3.524
sS'2-methyl4-'
p3620
F0.0
sS'15.10'
p3621
F0.0
sS'xeroderma'
p3622
F3.524
sS'postmenopaus'
p3623
F0.0
sS'clone'
p3624
F3.524
sS'top2beta-conc'
p3625
F0.0
sS'rpla'
p3626
F0.0
sS'clarifi'
p3627
F0.0
sS'763'
p3628
F0.0
sS'regulatori'
p3629
F0.0
sS'southern'
p3630
F0.0
sS'finger-lik'
p3631
F0.0
sS'colorectum'
p3632
F0.0
sS'lysophosphatidylcholin'
p3633
F0.0
sS'haplotypes/diplotyp'
p3634
F0.0
sS'thp-1'
p3635
F0.0
sS'randomis'
p3636
F0.0
sS'immunohistochemistri'
p3637
F0.0
sS'undu'
p3638
F3.524
sS'york'
p3639
F0.0
sS't/c'
p3640
F7.049
sS'invas'
p3641
F10.573
sS'mmp-3'
p3642
F3.524
sS'rhoa'
p3643
F0.0
sS'bleed'
p3644
F3.524
sS'galpha'
p3645
F0.0
sS'intermediate-or'
p3646
F17.621
sS'neuromotor'
p3647
F0.0
sS'septemb'
p3648
F0.0
sS'g'
p3649
F14.097
sS'hly,'
p3650
F0.0
sS'seroneg'
p3651
F0.0
sS'ltx'
p3652
F0.0
sS'respir'
p3653
F0.0
sS'counterpart'
p3654
F0.0
sS'shu9119'
p3655
F0.0
sS'lta'
p3656
F0.0
sS'mab'
p3657
F3.524
sS'51.49'
p3658
F0.0
sS'colitis-associ'
p3659
F7.049
sS'mortal'
p3660
F3.524
sS'retain'
p3661
F0.0
sS'south'
p3662
F0.0
sS'endors'
p3663
F0.0
sS'complete-'
p3664
F0.0
sS'attent'
p3665
F0.0
sS'd2/d3'
p3666
F0.0
sS'solubl'
p3667
F0.0
sS'gsalpha'
p3668
F0.0
sS'attenu'
p3669
F10.573
sS'qualiti'
p3670
F3.524
sS'455'
p3671
F0.0
sS'conclud'
p3672
F0.0
sS'cep290'
p3673
F0.0
sS'damag'
p3674
F28.194
sS'date'
p3675
F3.524
sS'corticosteroid'
p3676
F0.0
sS'his1104asp'
p3677
F0.0
sS'pgp'
p3678
F14.097
sS'trans-platinum'
p3679
F0.0
sS'drinker'
p3680
F0.0
sS'cotreat'
p3681
F0.0
sS'facil'
p3682
F0.0
sS'diuret'
p3683
F0.0
sS'bicycl'
p3684
F14.097
sS'second-gener'
p3685
F0.0
sS'intraepitheli'
p3686
F0.0
sS'ikkbeta'
p3687
F7.049
sS'tcdd'
p3688
F3.524
sS'r381q'
p3689
F0.0
sS'unknown'
p3690
F0.0
sS'habit'
p3691
F0.0
sS'capac'
p3692
F0.0
sS'attach'
p3693
F0.0
sS'anaemia'
p3694
F0.0
sS'termin'
p3695
F0.0
sS'biochem'
p3696
F0.0
sS'final'
p3697
F0.0
sS'pathogen'
p3698
F3.524
sS'prone'
p3699
F3.524
sS'tyrosin'
p3700
F14.097
sS'hyperendem'
p3701
F0.0
sS'staphylococci'
p3702
F0.0
sS'vincristin'
p3703
F14.097
sS'sj\xc3\xb6gren'
p3704
F0.0
sS'0.75'
p3705
F7.049
sS'migrain'
p3706
F3.524
sS'larger'
p3707
F3.524
sS'accompani'
p3708
F10.573
sS'tissu'
p3709
F14.097
sS'methotrex'
p3710
F0.0
sS'cxcl'
p3711
F0.0
sS'diminish'
p3712
F3.524
sS'reaffirm'
p3713
F0.0
sS'lenalidomid'
p3714
F0.0
sS'pouch-an'
p3715
F0.0
sS'plk-1'
p3716
F0.0
sS'glutathion'
p3717
F0.0
sS'non-melanoma'
p3718
F0.0
sS'55'
p3719
F3.524
sS'onc'
p3720
F0.0
sS'2.9'
p3721
F0.0
sS'structur'
p3722
F3.524
sS'adhesion/migration,'
p3723
F0.0
sS'indomethacin-load'
p3724
F7.049
sS'rituximab/cyclophosphamide/doxorubicin/'
p3725
F0.0
sS'becom'
p3726
F0.0
sS'sensit'
p3727
F7.049
sS'india'
p3728
F0.0
sS'rcc'
p3729
F0.0
sS'snp-chip'
p3730
F0.0
sS'threefold'
p3731
F0.0
sS'exhibit'
p3732
F3.524
sS'1.5'
p3733
F10.573
sS'1.7'
p3734
F0.0
sS'delay'
p3735
F3.524
sS'28-week'
p3736
F0.0
sS'ringer'
p3737
F0.0
sS'31,'
p3738
F0.0
sS'1.8'
p3739
F3.524
sS'dipyrimidin'
p3740
F0.0
sS'laparoscop'
p3741
F0.0
sS'wc26'
p3742
F0.0
sS'coher'
p3743
F0.0
sS'2.2'
p3744
F0.0
sS'need'
p3745
F7.049
sS'postincision'
p3746
F0.0
sS'azoxymethan'
p3747
F0.0
sS'diazepam'
p3748
F0.0
sS'probabl'
p3749
F10.573
sS'preterm'
p3750
F0.0
sS'messeng'
p3751
F0.0
sS'ligiv'
p3752
F24.67
sS'stromal'
p3753
F3.524
sS'rout'
p3754
F0.0
sS'expos'
p3755
F17.621
sS'lpc'
p3756
F0.0
sS'il-10'
p3757
F0.0
sS'arm'
p3758
F0.0
sS'uptak'
p3759
F0.0
sS'mix'
p3760
F0.0
sS'il-1,'
p3761
F0.0
sS'326'
p3762
F0.0
sS'2.5'
p3763
F0.0
sS'indic'
p3764
F21.146
sS'mechanist'
p3765
F0.0
sS'1.30'
p3766
F0.0
sS'1.31'
p3767
F0.0
sS'1.33'
p3768
F3.524
sS'olfactori'
p3769
F0.0
sS'divers'
p3770
F0.0
sS'singl'
p3771
F7.049
sS'p450'
p3772
F0.0
sS'22.9'
p3773
F0.0
sS'led'
p3774
F21.146
sS'preliminari'
p3775
F0.0
sS'subtyp'
p3776
F0.0
sS'rituximab/cyclophosphamide/doxorubicin/vincristine/'
p3777
F0.0
sS'whi'
p3778
F0.0
sS'zygomycosis,'
p3779
F0.0
sS'slit-lamp'
p3780
F0.0
sS'thrombocytopenia'
p3781
F0.0
sS'eight'
p3782
F7.049
sS'hydroxyl'
p3783
F0.0
sS'atherosclerot'
p3784
F0.0
sS'conjunctiv'
p3785
F0.0
sS'post-mortem'
p3786
F0.0
sS'mdr1'
p3787
F7.049
sS'gait'
p3788
F0.0
sS'transcript'
p3789
F21.146
sS'proinflammatori'
p3790
F0.0
sS'homogen'
p3791
F0.0
sS'putat'
p3792
F0.0
sS'9'
p3793
F7.049
sS'azoxymethane/'
p3794
F0.0
sS'mucos'
p3795
F7.049
sS'affymetrix'
p3796
F0.0
sS'counteract'
p3797
F7.049
sS'gather'
p3798
F0.0
sS'il-1r'
p3799
F3.524
sS'hh'
p3800
F0.0
sS'epithelium'
p3801
F0.0
sS'amg0347'
p3802
F0.0
sS'univari'
p3803
F0.0
sS'determin'
p3804
F0.0
sS'flux'
p3805
F0.0
sS'satur'
p3806
F3.524
sS'fact'
p3807
F0.0
sS'recess'
p3808
F0.0
sS'cetuximab'
p3809
F0.0
sS'particip'
p3810
F0.0
sS'hdaci'
p3811
F0.0
sS'prostatectomi'
p3812
F0.0
sS'cannabinoid'
p3813
F3.524
sS'rnai'
p3814
F0.0
sS'furthermore,'
p3815
F0.0
sS'neurotoxin'
p3816
F3.524
sS'hc'
p3817
F0.0
sS'noninfecti'
p3818
F0.0
sS'dbp'
p3819
F0.0
sS'4-fold'
p3820
F3.524
sS'culmin'
p3821
F3.524
sS'nanomolar'
p3822
F0.0
sS'open-angl'
p3823
F0.0
sS'illumina'
p3824
F0.0
sS'c677t'
p3825
F0.0
sS'practic'
p3826
F0.0
sS'correl'
p3827
F17.621
sS'meta-tetra'
p3828
F0.0
sS'mono-'
p3829
F0.0
sS'prolong'
p3830
F0.0
sS'p=0.025'
p3831
F0.0
sS'sn-38-induc'
p3832
F0.0
sS'arabian'
p3833
F24.67
sS'metastasis,'
p3834
F0.0
sS'p=0.022'
p3835
F0.0
sS'microm'
p3836
F21.146
sS'herein'
p3837
F0.0
sS'inlb'
p3838
F0.0
sS'discontinu'
p3839
F3.524
sS'microg'
p3840
F0.0
sS'hope'
p3841
F0.0
sS'ubc9'
p3842
F0.0
sS'insight'
p3843
F0.0
sS'lyr-71'
p3844
F0.0
sS'leber'
p3845
F0.0
sS'epidermoid'
p3846
F0.0
sS'vascular'
p3847
F0.0
sS'background'
p3848
F0.0
sS'transwel'
p3849
F0.0
sS'statin'
p3850
F0.0
sS'120'
p3851
F3.524
sS'joint'
p3852
F0.0
sS'123'
p3853
F0.0
sS'125'
p3854
F0.0
sS'increas'
p3855
F137.446
sS'anticanc'
p3856
F0.0
sS'photographi'
p3857
F0.0
sS'antagonist'
p3858
F42.291
sS'abcg2'
p3859
F3.524
sS'ahr-eralpha'
p3860
F0.0
sS'enabl'
p3861
F0.0
sS'organ'
p3862
F0.0
sS'sub-clin'
p3863
F3.524
sS'upper'
p3864
F0.0
sS'sumoyl'
p3865
F0.0
sS'gbm'
p3866
F0.0
sS'disease-fre'
p3867
F0.0
sS'design/pati'
p3868
F0.0
sS'receptor-'
p3869
F0.0
sS'noninferior'
p3870
F3.524
sS'li-fraumeni'
p3871
F0.0
sS'0.26-0.49'
p3872
F3.524
sS'contain'
p3873
F0.0
sS'karnofski'
p3874
F0.0
sS'succim'
p3875
F0.0
sS'sunitinib'
p3876
F0.0
sS'atra'
p3877
F0.0
sS'cocultur'
p3878
F0.0
sS'34.7'
p3879
F0.0
sS'knowledg'
p3880
F0.0
sS'abcg2-medi'
p3881
F0.0
sS'testosteron'
p3882
F0.0
sS'sp.,'
p3883
F0.0
sS'p=0.006'
p3884
F0.0
sS'10-year-old'
p3885
F0.0
sS'coxsacki'
p3886
F0.0
sS'1.439'
p3887
F0.0
sS'crswnp'
p3888
F0.0
sS'convers'
p3889
F0.0
sS'fcgiiia'
p3890
F3.524
sS'nucleas'
p3891
F0.0
sS'nuclear'
p3892
F17.621
sS'bactericid'
p3893
F0.0
sS'loss-of-funct'
p3894
F0.0
sS'state'
p3895
F0.0
sS'physiolog'
p3896
F3.524
sS'unravel'
p3897
F0.0
sS'0.32-0.93'
p3898
F0.0
sS'sonograph'
p3899
F0.0
sS'chemic'
p3900
F0.0
sS'neither'
p3901
F0.0
sS'induc'
p3902
F63.437
sS'mitogen-activ'
p3903
F0.0
sS'alveolar'
p3904
F0.0
sS'patients,'
p3905
F3.524
sS'crssnp'
p3906
F0.0
sS'patholog'
p3907
F0.0
sS'melanoma,'
p3908
F3.524
sS'snps'
p3909
F21.146
sS'streptococci'
p3910
F0.0
sS'lesion'
p3911
F10.573
sS'phenotyp'
p3912
F3.524
sS'coval'
p3913
F0.0
sS'entir'
p3914
F0.0
sS'key'
p3915
F3.524
sS'5q-'
p3916
F0.0
sS'p2x'
p3917
F0.0
sS'addit'
p3918
F7.049
sS'tlr'
p3919
F0.0
sS'anti-murin'
p3920
F3.524
sS'asp62hi'
p3921
F24.67
sS'antiepilept'
p3922
F3.524
sS'xpg'
p3923
F7.049
sS'i/ii,'
p3924
F0.0
sS'at-risk'
p3925
F0.0
sS'ccnu'
p3926
F7.049
sS'migration,'
p3927
F0.0
sS'amd3465'
p3928
F0.0
sS'1.64-6.54'
p3929
F0.0
sS'passag'
p3930
F0.0
sS'placebo'
p3931
F17.621
sS'phase,'
p3932
F0.0
sS'neuropath'
p3933
F0.0
sS'et-1'
p3934
F0.0
sS'ci'
p3935
F74.009
sS'unclear'
p3936
F0.0
sS'cm'
p3937
F14.097
sS'm/s'
p3938
F0.0
sS'prostaglandin'
p3939
F0.0
sS'pulmonari'
p3940
F3.524
sS'cg'
p3941
F3.524
sS'dipropion'
p3942
F0.0
sS'ce'
p3943
F0.0
sS'walk'
p3944
F0.0
sS'quinpirol'
p3945
F0.0
sS'distinguish'
p3946
F0.0
sS'family-bas'
p3947
F0.0
sS'nps-induc'
p3948
F0.0
sS'together,'
p3949
F0.0
sS'beta-catenin'
p3950
F0.0
sS'rosiglitazon'
p3951
F0.0
sS'ct'
p3952
F0.0
sS'8.0'
p3953
F0.0
sS'emesi'
p3954
F0.0
sS'i.e.'
p3955
F0.0
sS'pin'
p3956
F0.0
sS'8-year'
p3957
F0.0
sS'necrot'
p3958
F0.0
sS'timp-1'
p3959
F0.0
sS'8-week'
p3960
F0.0
sS'distens'
p3961
F0.0
sS'compon'
p3962
F0.0
sS'imatinib,'
p3963
F0.0
sS'ppargamma-depend'
p3964
F0.0
sS'besid'
p3965
F0.0
sS'treat'
p3966
F70.485
sS'rs7538490'
p3967
F17.621
sS'popul'
p3968
F52.864
sS'leukemogen'
p3969
F0.0
sS'peroxisom'
p3970
F0.0
sS'flt3/wt'
p3971
F0.0
sS'stx2vha'
p3972
F0.0
sS'xpd-751'
p3973
F0.0
sS'vancomycin-resist'
p3974
F0.0
sS'8-year-old'
p3975
F0.0
sS'presenc'
p3976
F3.524
sS'ultrasound-guid'
p3977
F0.0
sS'normocholesterolem'
p3978
F0.0
sS'thromboembol'
p3979
F0.0
sS'ag-1478'
p3980
F0.0
sS'thrombosi'
p3981
F0.0
sS'6.39'
p3982
F0.0
sS'efflux'
p3983
F0.0
sS't-c-a'
p3984
F3.524
sS't-c-g'
p3985
F3.524
sS'lysosom'
p3986
F0.0
sS'dysmotil'
p3987
F3.524
sS'sbp'
p3988
F0.0
sS'nck'
p3989
F0.0
sS'general'
p3990
F28.194
sS'roab12,'
p3991
F0.0
sS'c6'
p3992
F0.0
sS'present'
p3993
F0.0
sS'statist'
p3994
F7.049
sS'diabetes,'
p3995
F0.0
sS'replic'
p3996
F3.524
sS't-g-t'
p3997
F14.097
sS'novel'
p3998
F7.049
sS'ypel2'
p3999
F3.524
sS'mid-grad'
p4000
F0.0
sS'asp62his,'
p4001
F0.0
sS'defin'
p4002
F0.0
sS'cvl'
p4003
F0.0
sS'oocyt'
p4004
F0.0
sS'exert'
p4005
F7.049
sS'etoposid'
p4006
F7.049
sS'wild'
p4007
F0.0
sS'mtor'
p4008
F0.0
sS'nephrotox'
p4009
F0.0
sS'sirna'
p4010
F0.0
sS'observ'
p4011
F17.621
sS'tubul'
p4012
F0.0
sS'amaurosi'
p4013
F0.0
sS'va'
p4014
F0.0
sS'mutant'
p4015
F7.049
sS'motif'
p4016
F0.0
sS'file'
p4017
F0.0
sS'find'
p4018
F0.0
sS'ceramide-1-phosph'
p4019
F0.0
sS'underpredict'
p4020
F3.524
sS'interleukin-10'
p4021
F0.0
sS'neuron'
p4022
F0.0
sS'thus'
p4023
F0.0
sS'non'
p4024
F0.0
sS'rs3840846,'
p4025
F0.0
sS'uniparent'
p4026
F0.0
sS'dual'
p4027
F10.573
sS'68.3'
p4028
F0.0
sS'1604g'
p4029
F0.0
sS'situ'
p4030
F0.0
sS'tumorigenesis,'
p4031
F0.0
sS'bioactiv'
p4032
F7.049
sS'apoptosom'
p4033
F0.0
sS'mutat'
p4034
F14.097
sS'striatal'
p4035
F0.0
sS'japanes'
p4036
F0.0
sS'under-transmiss'
p4037
F10.573
sS'antibiot'
p4038
F0.0
sS'cross'
p4039
F0.0
sS'member'
p4040
F0.0
sS'thyrotropin'
p4041
F0.0
sS'largest'
p4042
F0.0
sS'mrp1'
p4043
F7.049
sS'outbreak'
p4044
F0.0
sS'sclerosi'
p4045
F0.0
sS'mpges-1'
p4046
F0.0
sS'co-regul'
p4047
F0.0
sS'endocannabinoid'
p4048
F0.0
sS'difficult'
p4049
F0.0
sS'competit'
p4050
F7.049
sS'immuno-histochem'
p4051
F0.0
sS'oxidase-lik'
p4052
F0.0
sS'heterozyg'
p4053
F0.0
sS'myocardi'
p4054
F0.0
sS'balf'
p4055
F0.0
sS'1-3'
p4056
F0.0
sS'drink'
p4057
F0.0
sS'1-5'
p4058
F0.0
sS'effect'
p4059
F102.203
sS'phd'
p4060
F0.0
sS'immunomodulatori'
p4061
F0.0
sS'ion'
p4062
F0.0
sS'issu'
p4063
F0.0
sS'igf1'
p4064
F0.0
sS'arg280his,'
p4065
F0.0
sS'beij'
p4066
F0.0
sS'student'
p4067
F0.0
sS'dust'
p4068
F0.0
sS'sunburn'
p4069
F0.0
sS'varicella-zost'
p4070
F0.0
sS'expand'
p4071
F0.0
sS'arg194trp'
p4072
F0.0
sS'lupus'
p4073
F3.524
sS'dyspnoea,'
p4074
F0.0
sS'center'
p4075
F0.0
sS'oxidase-induc'
p4076
F0.0
sS'ascertain'
p4077
F0.0
sS'nevertheless'
p4078
F0.0
sS'up-regul'
p4079
F3.524
sS'n/l-e'
p4080
F0.0
sS'well'
p4081
F10.573
sS'thought'
p4082
F10.573
sS'likewis'
p4083
F3.524
sS'exampl'
p4084
F0.0
sS'cation-chlorid'
p4085
F0.0
sS'aids-rel'
p4086
F0.0
sS'undertaken'
p4087
F0.0
sS'glial'
p4088
F0.0
sS'1.26'
p4089
F0.0
sS'sibl'
p4090
F0.0
sS'subgroup'
p4091
F0.0
sS'sporad'
p4092
F14.097
sS'spastic'
p4093
F3.524
sS'high-risk'
p4094
F0.0
sS'less'
p4095
F3.524
sS'compel'
p4096
F3.524
sS'pouchiti'
p4097
F0.0
sS'obtain'
p4098
F0.0
sS'dose'
p4099
F10.573
sS'fibril'
p4100
F0.0
sS'non-cn'
p4101
F0.0
sS'surpass'
p4102
F0.0
sS'neutropen'
p4103
F0.0
sS'sutur'
p4104
F0.0
sS'first-cycl'
p4105
F0.0
sS'0.2'
p4106
F7.049
sS'ex9+5c'
p4107
F0.0
sS'rapid'
p4108
F3.524
sS'vivo'
p4109
F0.0
sS'field'
p4110
F0.0
sS'low-dens'
p4111
F0.0
sS'ivs7+82c/t'
p4112
F7.049
sS'mutation-posit'
p4113
F0.0
sS'valacyclovir'
p4114
F0.0
sS'or=0.61'
p4115
F0.0
sS'generat'
p4116
F0.0
sS'thrombot'
p4117
F0.0
sS'rs10399805'
p4118
F3.524
sS'oxidative/nitros'
p4119
F0.0
sS'281'
p4120
F0.0
sS'differentiation,'
p4121
F0.0
sS'introduct'
p4122
F0.0
sS'warrant'
p4123
F0.0
sS'match'
p4124
F0.0
sS'sonic'
p4125
F0.0
sS'kidney'
p4126
F3.524
sS'driver'
p4127
F0.0
sS'respiratori'
p4128
F0.0
sS'vysi'
p4129
F0.0
sS'term'
p4130
F7.049
sS'five'
p4131
F0.0
sS'usual'
p4132
F0.0
sS'facial'
p4133
F0.0
sS'recurr'
p4134
F0.0
sS'acta,'
p4135
F0.0
sS'bcl2'
p4136
F0.0
sS'loss'
p4137
F14.097
sS'resid'
p4138
F0.0
sS'like'
p4139
F7.049
sS'88.8'
p4140
F0.0
sS'or=8'
p4141
F0.0
sS'ring'
p4142
F0.0
sS'ostia'
p4143
F0.0
sS'0.0056'
p4144
F14.097
sS'arg399gln'
p4145
F0.0
sS'mdck'
p4146
F0.0
sS'under-repres'
p4147
F14.097
sS'p=0.012'
p4148
F0.0
sS'necessari'
p4149
F0.0
sS'journalist'
p4150
F0.0
sS'2259'
p4151
F7.049
sS'hepatobiliari'
p4152
F0.0
sS'p=0.018'
p4153
F0.0
sS'non-jewish'
p4154
F3.524
sS'c1p'
p4155
F0.0
sS'flt3/itd'
p4156
F0.0
sS'xrcc4'
p4157
F21.146
sS'conven'
p4158
F0.0
sS'tran'
p4159
F0.0
sS'antiemet'
p4160
F0.0
sS'rs739837'
p4161
F0.0
sS'drug,'
p4162
F3.524
sS'g/kg'
p4163
F7.049
sS'medlin'
p4164
F0.0
sS'armamentarium'
p4165
F3.524
sS'hbs1l-myb'
p4166
F0.0
sS'imatinib'
p4167
F3.524
sS'transcriptas'
p4168
F0.0
sS'macrophag'
p4169
F10.573
sS'librari'
p4170
F0.0
sS'npsr'
p4171
F0.0
sS'guid'
p4172
F0.0
sS'2c9'
p4173
F0.0
sS'lead'
p4174
F0.0
sS'neurotrop'
p4175
F0.0
sS'0.26'
p4176
F0.0
sS'0.27'
p4177
F0.0
sS'results:'
p4178
F0.0
sS'pituitary-adren'
p4179
F0.0
sS'churg,'
p4180
F0.0
sS'septat'
p4181
F0.0
sS'rs563649'
p4182
F0.0
sS'estim'
p4183
F3.524
sS'communiti'
p4184
F0.0
sS'estradiol'
p4185
F3.524
sS'septohippocamp'
p4186
F0.0
sS'pfge'
p4187
F0.0
sS'manifest'
p4188
F10.573
sS'mode'
p4189
F0.0
sS'cleavag'
p4190
F0.0
sS'survivor'
p4191
F0.0
sS'encourag'
p4192
F0.0
sS'investig'
p4193
F7.049
sS'lipid'
p4194
F7.049
sS'ecstasy/cannabi'
p4195
F0.0
sS'posaconazol'
p4196
F0.0
sS'usag'
p4197
F0.0
sS'rs13706'
p4198
F0.0
sS'metalloproteinase,'
p4199
F0.0
sS'obes'
p4200
F3.524
sS'ma'
p4201
F10.573
sS'parasit'
p4202
F0.0
sS'p38'
p4203
F21.146
sS'caspas'
p4204
F0.0
sS'somat'
p4205
F0.0
sS'although'
p4206
F0.0
sS'tlr1'
p4207
F0.0
sS'neutrophil'
p4208
F0.0
sS'sp.'
p4209
F0.0
sS'vs.'
p4210
F0.0
sS'stage'
p4211
F0.0
sS'bgli'
p4212
F0.0
sS'rs3093662'
p4213
F0.0
sS'rare'
p4214
F7.049
sS'5-asa'
p4215
F0.0
sS'world'
p4216
F0.0
sS'node-neg'
p4217
F0.0
sS'pikk'
p4218
F0.0
sS'autocrin'
p4219
F0.0
sS'carrier'
p4220
F17.621
sS'immunofluoresc'
p4221
F0.0
sS'overweight,'
p4222
F0.0
sS'non-hodgkin'
p4223
F7.049
sS'alfa-2a'
p4224
F0.0
sS'ancestr'
p4225
F0.0
sS'taqi'
p4226
F3.524
sS'predictor'
p4227
F3.524
sS'peak'
p4228
F0.0
sS'0.0062'
p4229
F7.049
sS'intracellular'
p4230
F3.524
sS'vegf-induc'
p4231
F0.0
sS'owe'
p4232
F0.0
sS'tight'
p4233
F0.0
sS'h1'
p4234
F0.0
sS'h6'
p4235
F0.0
sS'acuiti'
p4236
F0.0
sS'gli2'
p4237
F0.0
sS'h+'
p4238
F0.0
sS'autosom'
p4239
F0.0
sS'h.'
p4240
F0.0
sS'mor-1k'
p4241
F0.0
sS'h,'
p4242
F0.0
sS'disomi'
p4243
F0.0
sS'tlr-induc'
p4244
F0.0
sS'1986'
p4245
F0.0
sS'2.57'
p4246
F0.0
sS'transfer'
p4247
F0.0
sS'5t5t'
p4248
F0.0
sS'carbohydr'
p4249
F0.0
sS'prefectur'
p4250
F0.0
sS'trigger'
p4251
F0.0
sS'children,'
p4252
F0.0
sS'thr/thr'
p4253
F0.0
sS'anxiety/depress'
p4254
F0.0
sS'meperidine/'
p4255
F0.0
sS'mofetil'
p4256
F7.049
sS'adher'
p4257
F0.0
sS"5'-upstream"
p4258
F10.573
sS'ikkbeta-elicit'
p4259
F3.524
sS'flt3/itd+'
p4260
F0.0
sS'folr1,'
p4261
F0.0
sS'north'
p4262
F0.0
sS'addition,'
p4263
F0.0
sS'unexpect'
p4264
F0.0
sS'hr'
p4265
F0.0
sS'i.e.,'
p4266
F0.0
sS'strictur'
p4267
F0.0
sS'advers'
p4268
F7.049
sS'bacteria'
p4269
F0.0
sS'corneal'
p4270
F0.0
sS'dexrazoxan'
p4271
F0.0
sS'knockdown'
p4272
F3.524
sS'neutral'
p4273
F0.0
sS'24-fold'
p4274
F0.0
sS'gain'
p4275
F3.524
sS'intratumor'
p4276
F0.0
sS'multivari'
p4277
F0.0
sS'eas'
p4278
F0.0
sS'eat'
p4279
F0.0
sS'cryopreserv'
p4280
F0.0
sS'84.5'
p4281
F0.0
sS'count'
p4282
F0.0
sS'made'
p4283
F3.524
sS'flt3/tkd+'
p4284
F0.0
sS'displac'
p4285
F3.524
sS'whether'
p4286
F0.0
sS'virus/'
p4287
F0.0
sS'fibronectin'
p4288
F0.0
sS'aldh2'
p4289
F0.0
sS'record'
p4290
F3.524
sS'pathognomon'
p4291
F0.0
sS'limit'
p4292
F14.097
sS'il23r'
p4293
F7.049
sS'single-nucleotid'
p4294
F7.049
sS'fmol/l'
p4295
F0.0
sS'problem'
p4296
F0.0
sS'strategi'
p4297
F0.0
sS'synerg'
p4298
F10.573
sS'display'
p4299
F3.524
sS'2,3,7,8-tetrachlorodibenzo-p-dioxin'
p4300
F0.0
sS'block'
p4301
F24.67
sS'low-dos'
p4302
F0.0
sS'munc18b,'
p4303
F0.0
sS'evalu'
p4304
F7.049
sS'dure'
p4305
F14.097
sS'endocytosi'
p4306
F0.0
sS'encompass'
p4307
F0.0
sS'epec'
p4308
F0.0
sS'urat'
p4309
F10.573
sS'il-22r1'
p4310
F0.0
sS'lncap'
p4311
F0.0
sS'varic'
p4312
F3.524
sS'syndrom'
p4313
F7.049
sS'dimethylarginin'
p4314
F0.0
sS'il-1ra'
p4315
F0.0
sS'plaqu'
p4316
F0.0
sS'tnfsf4'
p4317
F0.0
sS'tibolon'
p4318
F0.0
sS'ribavirin'
p4319
F0.0
sS'48'
p4320
F0.0
sS'r-chop'
p4321
F0.0
sS'44'
p4322
F3.524
sS'45'
p4323
F3.524
sS'percent'
p4324
F7.049
sS'treatment'
p4325
F52.864
sS'40'
p4326
F0.0
sS'41'
p4327
F0.0
sS'tetracycl'
p4328
F0.0
sS'4-'
p4329
F0.0
sS'2001-2003'
p4330
F0.0
sS'futur'
p4331
F0.0
sS'sick'
p4332
F0.0
sS'infect'
p4333
F14.097
sS'u'
p4334
F0.0
sS'rs11594656'
p4335
F0.0
sS'2.35'
p4336
F0.0
sS'repeat'
p4337
F0.0
sS'nsaid'
p4338
F3.524
sS'12-week'
p4339
F0.0
sS'48-week'
p4340
F0.0
sS'neuroblastoma'
p4341
F0.0
sS'profession'
p4342
F0.0
sS'polymorph'
p4343
F102.203
sS'class'
p4344
F0.0
sS'g2677t/a'
p4345
F0.0
sS'june'
p4346
F0.0
sS'community-acquir'
p4347
F0.0
sS'postur'
p4348
F0.0
sS'rs2395029,'
p4349
F0.0
sS'24,000'
p4350
F0.0
sS'absorpt'
p4351
F3.524
sS'gap'
p4352
F0.0
sS'homolog'
p4353
F17.621
sS'nt_022135.15'
p4354
F3.524
sS'23.8'
p4355
F3.524
sS'experienc'
p4356
F0.0
sS'finally,'
p4357
F0.0
sS'peptid'
p4358
F0.0
sS'pss'
p4359
F0.0
sS'epsilon3'
p4360
F0.0
sS'cingul'
p4361
F0.0
sS'factor-rel'
p4362
F0.0
sS'pathophysiolog'
p4363
F0.0
sS'aa/ag'
p4364
F0.0
sS'portion'
p4365
F0.0
sS'emerg'
p4366
F0.0
sS'pupil'
p4367
F0.0
sS'trial,'
p4368
F0.0
sS'beta-thalassaemia'
p4369
F0.0
sS'phosphatidylinositol'
p4370
F0.0
sS'chemosensit'
p4371
F0.0
s.