c__builtin__
set
p0
((lp1
S'miyazaki'
p2
aS'h9c2'
p3
aS'cytosol'
p4
aS'vcl'
p5
aS'hypercholesterolemia'
p6
aS'pyridin-3-yl'
p7
aS'1,3'
p8
aS'nafe-edta'
p9
aS'four'
p10
aS'sleev'
p11
aS'dysplasia'
p12
aS'chromatin'
p13
aS'neoplasia'
p14
aS'estrogen-depend'
p15
aS'14.3+/-0.9'
p16
aS'biaxin'
p17
aS'whose'
p18
aS'accur'
p19
aS'neurodegen'
p20
aS'hcc'
p21
aS'cutan'
p22
aS'overexpress'
p23
aS'intron'
p24
aS'rfc,'
p25
aS'interphas'
p26
aS'sub-group'
p27
aS'pdt'
p28
aS'exercise-induc'
p29
aS'head-neck'
p30
aS'rs1558139'
p31
aS'risk'
p32
aS'downstream'
p33
aS'rs3826047'
p34
aS'quantif'
p35
aS'mania'
p36
aS'mac251'
p37
aS'6q23'
p38
aS'pgp,'
p39
aS'affect'
p40
aS'lidocain'
p41
aS'calcif'
p42
aS'quantit'
p43
aS'anemia'
p44
aS'school'
p45
aS'cml'
p46
aS'zr-75'
p47
aS'mdr1-transduc'
p48
aS'co-express'
p49
aS'semisynthet'
p50
aS'ref'
p51
aS'salvag'
p52
aS'clinicopatholog'
p53
aS'ppargamma-induc'
p54
aS'anti-p-gp'
p55
aS'lsd1'
p56
aS'cholesterol'
p57
aS'hormone-secret'
p58
aS'recov'
p59
aS'pesticid'
p60
aS'ppargamma'
p61
aS'ghrh'
p62
aS'zinc'
p63
aS'storag'
p64
aS'speci'
p65
aS'c5a-induc'
p66
aS'direct'
p67
aS'histor'
p68
aS'nodosum'
p69
aS'consequ'
p70
aS'second'
p71
aS'diseas'
p72
aS'ciliari'
p73
aS'me2'
p74
aS'56kda'
p75
aS'her2'
p76
aS'cyclas'
p77
aS'i/ii/iii'
p78
aS'intragen'
p79
aS'even'
p80
aS'employ'
p81
aS'374'
p82
aS'giardia'
p83
aS'calcium'
p84
aS'homeostasi'
p85
aS'pro231ser,'
p86
aS'near'
p87
aS'poison'
p88
aS'children'
p89
aS'intergen'
p90
aS'fusariosis,'
p91
aS'bipolar'
p92
aS'trans-4-'
p93
aS'dr.'
p94
aS'periumbil'
p95
aS'new'
p96
aS'symmetr'
p97
aS'p=0.005'
p98
aS'p=0.002'
p99
aS'p=0.001'
p100
aS'ongo'
p101
aS'elimin'
p102
aS'mef'
p103
aS'mptp-induc'
p104
aS'hydrolysi'
p105
aS'men'
p106
aS'gefitinib'
p107
aS'macroscop'
p108
aS'endothelium'
p109
aS'mg/day'
p110
aS'metastas'
p111
aS'locomot'
p112
aS'metastat'
p113
aS'also,'
p114
aS'pancreat'
p115
aS'103'
p116
aS'100'
p117
aS'enrol'
p118
aS'gli'
p119
aS'70-80'
p120
aS'0.39'
p121
aS'0.38'
p122
aS'postop'
p123
aS'k'
p124
aS'su11248'
p125
aS'0.33'
p126
aS'deregul'
p127
aS'discontinu'
p128
aS'dri'
p129
aS'uterin'
p130
aS'scaveng'
p131
aS'pdx-1'
p132
aS'studi'
p133
aS'itraconazol'
p134
aS'rnai-medi'
p135
aS'staurosporin'
p136
aS'interferon'
p137
aS'bcrp-,'
p138
aS'p-gp'
p139
aS'campaign'
p140
aS'ecstasi'
p141
aS'tertiari'
p142
aS'avenu'
p143
aS'invas'
p144
aS'blockad'
p145
aS'cotransporters,'
p146
aS'instabl'
p147
aS'mg/m'
p148
aS'total'
p149
aS'2alpha'
p150
aS'night'
p151
aS'unit'
p152
aS'fr'
p153
aS'amish'
p154
aS'htert'
p155
aS'dna'
p156
aS'describ'
p157
aS'would'
p158
aS'isoform'
p159
aS'leaki'
p160
aS'gw501516'
p161
aS'mening'
p162
aS't-cell'
p163
aS'meloxicam'
p164
aS'myelodysplast'
p165
aS'recommend'
p166
aS'strike'
p167
aS'type'
p168
aS'1.7/1.4'
p169
aS'er+'
p170
aS'angiogenesis/'
p171
aS'71.1'
p172
aS'comorbid'
p173
aS'43'
p174
aS'71.8'
p175
aS'relat'
p176
aS'mg/d'
p177
aS'0.09/0.09'
p178
aS'adult'
p179
aS'fetuin-a'
p180
aS'kgf'
p181
aS'91'
p182
aS'93'
p183
aS'95'
p184
aS'laparoscopi'
p185
aS'md'
p186
aS'mg'
p187
aS'ma'
p188
aS'sfrp4'
p189
aS'restor'
p190
aS'mm'
p191
aS'fluency,'
p192
aS'work'
p193
aS'mi'
p194
aS'0.94'
p195
aS'pdgf-r-a'
p196
aS'alkyl'
p197
aS'tnf'
p198
aS'ms'
p199
aS'meta-tetra'
p200
aS'cytochrom'
p201
aS'asp312asn'
p202
aS'wnt7a'
p203
aS'seroneg'
p204
aS'erk'
p205
aS'rs2108622'
p206
aS'rd16'
p207
aS'hemoglobin'
p208
aS'lipophil'
p209
aS'infus'
p210
aS'indic'
p211
aS'impair'
p212
aS'malign'
p213
aS'pcr-rflp'
p214
aS'attract'
p215
aS'ic'
p216
aS'51.6'
p217
aS'expression,'
p218
aS'real-tim'
p219
aS'hob'
p220
aS'sumoyl'
p221
aS'quot'
p222
aS'parenter'
p223
aS'monoclon'
p224
aS'thapsigargin,'
p225
aS'lta'
p226
aS'classifi'
p227
aS'craniofaci'
p228
aS'intestin'
p229
aS'rhesus'
p230
aS'recoveri'
p231
aS'toxic'
p232
aS'verifi'
p233
aS'g908r'
p234
aS'doxorubicin/vincristine/prednison'
p235
aS'asthma,'
p236
aS'fever'
p237
aS'recogn'
p238
aS'excis'
p239
aS'sw-480'
p240
aS'chines'
p241
aS'pro231ser'
p242
aS'luciferas'
p243
aS'cox-2'
p244
aS'a1298c'
p245
aS'befor'
p246
aS'modest'
p247
aS'feso4+'
p248
aS'osteoblast'
p249
aS'nucleotid'
p250
aS'tshr'
p251
aS'core'
p252
aS'parallel'
p253
aS'demonstr'
p254
aS'subcutan'
p255
aS'embol'
p256
aS'23.78'
p257
aS'disease-fre'
p258
aS'domin'
p259
aS'vicin'
p260
aS'coxofemor'
p261
aS'population-bas'
p262
aS'igg1'
p263
aS'well-characteris'
p264
aS'perform'
p265
aS'maintain'
p266
aS'green'
p267
aS'aldh7a1'
p268
aS'21-year-old'
p269
aS'icam-1'
p270
aS'order'
p271
aS'foetal'
p272
aS'composit'
p273
aS'459'
p274
aS'diagnos'
p275
aS'wound'
p276
aS'upstream'
p277
aS'treatment-na'
p278
aS'6.7'
p279
aS'veri'
p280
aS'lymphomagenesi'
p281
aS'12.0'
p282
aS'0.47-0.80'
p283
aS'incid'
p284
aS'appar'
p285
aS'reflect'
p286
aS'r=0.95'
p287
aS'disease,'
p288
aS'vari'
p289
aS'cll'
p290
aS'unknown'
p291
aS'lps'
p292
aS'ligand'
p293
aS'triglycerid'
p294
aS'cld'
p295
aS'gastrointestin'
p296
aS'bicanalicular'
p297
aS'hypnot'
p298
aS'better'
p299
aS'offic'
p300
aS'persist'
p301
aS'comprehens'
p302
aS'100.8+/-52.5'
p303
aS'hidden'
p304
aS'o104'
p305
aS'rhiniti'
p306
aS'versus'
p307
aS'anim'
p308
aS'therapi'
p309
aS'subtot'
p310
aS'non-homolog'
p311
aS'fragment'
p312
aS'promin'
p313
aS'crypt'
p314
aS'monocyt'
p315
aS'foki'
p316
aS'moieti'
p317
aS'break'
p318
aS'p=0.0002'
p319
aS'p=0.0001'
p320
aS'hypoxia'
p321
aS'promis'
p322
aS'celecoxib'
p323
aS'surgic'
p324
aS'2-morpholinoethoxi'
p325
aS'cep290'
p326
aS'choic'
p327
aS'1.02'
p328
aS'oxygen'
p329
aS'c-delta'
p330
aS'0.80'
p331
aS'l'
p332
aS'diastol'
p333
aS'pml-rara'
p334
aS'localis'
p335
aS'mrna'
p336
aS'his1104asp'
p337
aS'european'
p338
aS'side'
p339
aS'bone'
p340
aS'mean'
p341
aS'hippocampi'
p342
aS'13.35-42.34'
p343
aS'supernat'
p344
aS'knockout'
p345
aS'laboratori'
p346
aS'setpoint'
p347
aS'intraop'
p348
aS's65c'
p349
aS'high-dens'
p350
aS'd1'
p351
aS'member'
p352
aS'kd=2.4'
p353
aS'cyp4f2'
p354
aS'extract'
p355
aS'hypothyroid'
p356
aS'fos'
p357
aS'network'
p358
aS'rr'
p359
aS'ceramide,'
p360
aS'virul'
p361
aS'crucial'
p362
aS'dss'
p363
aS'content'
p364
aS'verapamil'
p365
aS'vector'
p366
aS'ra'
p367
aS'trpv6'
p368
aS'mini-basdai'
p369
aS'factor-kappab'
p370
aS'ri'
p371
aS'sensori'
p372
aS'ad20'
p373
aS'cholinerg'
p374
aS'vegf-r'
p375
aS'rs2165241'
p376
aS'barrier'
p377
aS'overweight'
p378
aS'u.s.'
p379
aS'transduct'
p380
aS'situat'
p381
aS'given'
p382
aS'free'
p383
aS'standard'
p384
aS'lineag'
p385
aS'240'
p386
aS'duodenali'
p387
aS'liglv'
p388
aS'mononuclear'
p389
aS'py1173'
p390
aS'non-fat'
p391
aS'248'
p392
aS'intraepitheli'
p393
aS'untreat'
p394
aS'allerg'
p395
aS'reconfigur'
p396
aS'drug-resist'
p397
aS'atm'
p398
aS'folr1'
p399
aS'silicon'
p400
aS'gjb6-d13s1,854'
p401
aS'atherosclerosi'
p402
aS'atr'
p403
aS'abeta'
p404
aS'chemotherapi'
p405
aS'regress'
p406
aS'1015'
p407
aS'proteas'
p408
aS'rituximab/cyclophosphamide/'
p409
aS'rs13199524'
p410
aS'user'
p411
aS'aom'
p412
aS'rang'
p413
aS'obstacl'
p414
aS'asymmetr'
p415
aS'grade'
p416
aS'nhl'
p417
aS'independ'
p418
aS'vitro'
p419
aS'agrp'
p420
aS'capac'
p421
aS'restrict'
p422
aS'rant'
p423
aS'unlik'
p424
aS'fibril'
p425
aS'0.89-1.07'
p426
aS'vascul'
p427
aS'primari'
p428
aS'170'
p429
aS'v1a,'
p430
aS'0.09'
p431
aS'loci'
p432
aS'p-gp-'
p433
aS'0.03'
p434
aS'radioisotop'
p435
aS'0.01'
p436
aS'gain-of-funct'
p437
aS'0.04'
p438
aS'0.05'
p439
aS'binari'
p440
aS'rapamycin'
p441
aS'1b'
p442
aS'7-hydroxy-5,6,7,8-tetrahydronaphthalen-1-yl'
p443
aS'pioneer'
p444
aS'intraven'
p445
aS'her2/'
p446
aS'p=0.04'
p447
aS'incub'
p448
aS'0.065'
p449
aS'tool'
p450
aS't180k,'
p451
aS'del-g-g'
p452
aS'1.33'
p453
aS'cysteamin'
p454
aS'western'
p455
aS'conserv'
p456
aS'over-express'
p457
aS'cb1/'
p458
aS'symptom'
p459
aS'p53'
p460
aS'arg399gln,'
p461
aS'pertussi'
p462
aS'target'
p463
aS'monogen'
p464
aS'sw620'
p465
aS'provid'
p466
aS'distal'
p467
aS'rate'
p468
aS'18.9'
p469
aS'gtpase-defici'
p470
aS'ex8-56a'
p471
aS'nephropath'
p472
aS'iron'
p473
aS'viscer'
p474
aS'antiinflammatori'
p475
aS'vinblastin'
p476
aS'stimuli'
p477
aS'foki,'
p478
aS'1.2-1.9'
p479
aS'raf'
p480
aS'p53-depend'
p481
aS'distens'
p482
aS'mind'
p483
aS'mine'
p484
aS'rat'
p485
aS'chemoprevent'
p486
aS'manner'
p487
aS'genome-wid'
p488
aS'adhd'
p489
aS'bronchoconstrict'
p490
aS'post-mortem'
p491
aS'seem'
p492
aS'igf-i'
p493
aS'arg194trp,'
p494
aS'recreat'
p495
aS'ki-67'
p496
aS'latter'
p497
aS'chest'
p498
aS'cleft'
p499
aS'p38-depend'
p500
aS'6.0'
p501
aS'electrophoresi'
p502
aS'object'
p503
aS'autopsi'
p504
aS'cilia'
p505
aS'carcinoma'
p506
aS'x'
p507
aS'phase'
p508
aS'bsg'
p509
aS'prematur'
p510
aS'tradit'
p511
aS'chi3l1'
p512
aS'rs1937970-rs677221'
p513
aS'grove'
p514
aS'6-methyl-2-propylimino-6,7-dihydro-5h-benzo'
p515
aS'dss-induc'
p516
aS'flow'
p517
aS'vanilloid'
p518
aS'doe'
p519
aS'rs3020781'
p520
aS'interrel'
p521
aS'a-804598'
p522
aS'umbil'
p523
aS'abi'
p524
aS'detriment'
p525
aS'rhodamin'
p526
aS'lpa'
p527
aS'fzd5'
p528
aS'upregul'
p529
aS'cias1'
p530
aS'3.9'
p531
aS'random'
p532
aS'urovys'
p533
aS'0.70'
p534
aS'pmol/mg'
p535
aS'transfus'
p536
aS'0.037-0.659'
p537
aS'7.1'
p538
aS'7.6'
p539
aS'ulcer'
p540
aS'psarl'
p541
aS'radic'
p542
aS'cisplatin'
p543
aS'd3'
p544
aS'multidrug'
p545
aS'involv'
p546
aS'despit'
p547
aS'acquir'
p548
aS'spite'
p549
aS'telomer'
p550
aS'uveiti'
p551
aS'p-glycoprotein'
p552
aS'sympathet'
p553
aS'benzylamid'
p554
aS'2.4/0.8'
p555
aS'549'
p556
aS'interleukin-23'
p557
aS'rzg'
p558
aS'400'
p559
aS'wide'
p560
aS'conduct'
p561
aS'n/l-e'
p562
aS'cbt-1'
p563
aS'consecut'
p564
aS'12'
p565
aS'tumor-select'
p566
aS'p=0.007'
p567
aS'report'
p568
aS'p53+/+'
p569
aS'ipaa'
p570
aS'0.0008'
p571
aS'diabet'
p572
aS'rectal'
p573
aS'rs2575735'
p574
aS'dimethylamin'
p575
aS'nonphosphorylat'
p576
aS'pro-inflammatori'
p577
aS'method'
p578
aS'sauc'
p579
aS'twice'
p580
aS'superfamili'
p581
aS'alcohol-rel'
p582
aS'plant'
p583
aS'stress-rel'
p584
aS'ttgc'
p585
aS'septemb'
p586
aS'black'
p587
aS'respond'
p588
aS'rs42524'
p589
aS'human'
p590
aS'fair'
p591
aS'kb-3-1'
p592
aS'ci=1.00-6.88'
p593
aS'resist'
p594
aS'aminopyridine-bas'
p595
aS'radius'
p596
aS'result'
p597
aS'respons'
p598
aS'fail'
p599
aS'transendotheli'
p600
aS'subject'
p601
aS'awar'
p602
aS'01'
p603
aS'mdr1'
p604
aS'fn1'
p605
aS'cytoplasm'
p606
aS'heterogen'
p607
aS'granulomat'
p608
aS'irv'
p609
aS'discoveri'
p610
aS'score'
p611
aS'finger'
p612
aS'simplest'
p613
aS'mum'
p614
aS'5q-syndrom'
p615
aS'approach'
p616
aS'attribut'
p617
aS'accord'
p618
aS'never'
p619
aS'extend'
p620
aS'basigin'
p621
aS'oxaliplatin-bas'
p622
aS'weak'
p623
aS'vitamin'
p624
aS'wi'
p625
aS'380'
p626
aS'extens'
p627
aS'amd3465'
p628
aS'neuropath'
p629
aS'extent'
p630
aS'ziprasidon'
p631
aS'natur'
p632
aS'toler'
p633
aS'ms4a12'
p634
aS'alfentanil,'
p635
aS'forty-f'
p636
aS'b-cell'
p637
aS'retrospect'
p638
aS'chelator-medi'
p639
aS'protect'
p640
aS'germlin'
p641
aS'hepatotox'
p642
aS'agonist'
p643
aS'1-'
p644
aS'howev'
p645
aS'heterozygot'
p646
aS'pressure,'
p647
aS'cyclophosphamide/doxorubicin/vincristine/prednison'
p648
aS'ventricular'
p649
aS'non-steroid'
p650
aS'allopurinol'
p651
aS'hcnppp'
p652
aS'or=0.63'
p653
aS'neurotransmiss'
p654
aS'countri'
p655
aS'p300'
p656
aS'1.4'
p657
aS'intraperiton'
p658
aS'1.5'
p659
aS'rs6503919'
p660
aS'5q'
p661
aS'fluorescein'
p662
aS'trunk'
p663
aS'codon'
p664
aS'height'
p665
aS'permut'
p666
aS'maraviroc'
p667
aS'cytarabin'
p668
aS'guid'
p669
aS'ether'
p670
aS'254'
p671
aS'duplic'
p672
aS'rad26'
p673
aS'nonsens'
p674
aS'classif'
p675
aS'convolut'
p676
aS'three'
p677
aS'frontlin'
p678
aS'ggh'
p679
aS'accumul'
p680
aS'adp-ribos'
p681
aS'much'
p682
aS'interest'
p683
aS'advers'
p684
aS'pge'
p685
aS'cdc6'
p686
aS'sites-th'
p687
aS'life'
p688
aS'mcl'
p689
aS'regul'
p690
aS'cambodia'
p691
aS'suppress'
p692
aS'worker'
p693
aS'bladder'
p694
aS'cbsct'
p695
aS'1.9'
p696
aS'epsilon2'
p697
aS'0.14'
p698
aS'fibroblast'
p699
aS'erythema'
p700
aS'efficaci'
p701
aS'child'
p702
aS'organotyp'
p703
aS'gata4'
p704
aS'phosphatidylinositol'
p705
aS'physician'
p706
aS'inhibit'
p707
aS'overall-respons'
p708
aS'hypofraction'
p709
aS'leprosi'
p710
aS'properti'
p711
aS'lessen'
p712
aS'iron-defici'
p713
aS'intak'
p714
aS'n'
p715
aS'aim'
p716
aS'flavones,'
p717
aS'formalin-fix'
p718
aS'cep290/'
p719
aS'imatinib-intoler'
p720
aS'mg/ml'
p721
aS'aid'
p722
aS'modul'
p723
aS'endotheli'
p724
aS'0.35'
p725
aS'seven'
p726
aS'ultradist'
p727
aS'p65'
p728
aS'anr'
p729
aS'early-onset'
p730
aS'sting'
p731
aS'ii'
p732
aS'elicit'
p733
aS'il'
p734
aS'1.36-9.77'
p735
aS'piperidin-1-yl'
p736
aS'ie'
p737
aS'1.50'
p738
aS'ig'
p739
aS'inpati'
p740
aS'grown'
p741
aS'precis'
p742
aS'hong'
p743
aS'avastin'
p744
aS'consequently,'
p745
aS'receiv'
p746
aS'suggest'
p747
aS'lacrim'
p748
aS'child-bear'
p749
aS'multicent'
p750
aS'preserv'
p751
aS'conclusions:'
p752
aS'complex'
p753
aS'dystrophy-16'
p754
aS'complet'
p755
aS'kr\xc3\xbcppel-lik'
p756
aS'caspase-depend'
p757
aS'il-1alpha'
p758
aS'evid'
p759
aS'diazepam'
p760
aS'ed50'
p761
aS'crswnp'
p762
aS'pylori'
p763
aS'prognost'
p764
aS'pubm'
p765
aS'hand'
p766
aS'topo'
p767
aS'prognosi'
p768
aS'rais'
p769
aS'portal'
p770
aS'scale'
p771
aS'chemotherapy-induc'
p772
aS'staphylococci'
p773
aS'neonat'
p774
aS'traffick'
p775
aS'intent-to-treat'
p776
aS'calcium-atpas'
p777
aS'c6-7'
p778
aS'kinase-induc'
p779
aS'hypothes'
p780
aS'messeng'
p781
aS'thr'
p782
aS'inherit'
p783
aS'1970'
p784
aS'qualit'
p785
aS'ligiv'
p786
aS'squamous'
p787
aS'mamma'
p788
aS'mother'
p789
aS'controversi'
p790
aS'4002'
p791
aS'tha'
p792
aS'unchang'
p793
aS'identifi'
p794
aS'pbmc'
p795
aS'balf-induc'
p796
aS'ex1+82a'
p797
aS'rodent'
p798
aS'8.18'
p799
aS'victim'
p800
aS'cytotoxin-induc'
p801
aS'previous'
p802
aS'thyroid'
p803
aS'ykl-40'
p804
aS'calmodulin'
p805
aS'atrial'
p806
aS'expos'
p807
aS'septal'
p808
aS'interfer'
p809
aS'character'
p810
aS'non-synonym'
p811
aS'poag'
p812
aS'cervic'
p813
aS'hdl3'
p814
aS'plasma'
p815
aS'follicle-stimul'
p816
aS'atp-bind'
p817
aS'0.61'
p818
aS'applic'
p819
aS'exploratori'
p820
aS'fortif'
p821
aS'egfr'
p822
aS'rna'
p823
aS'mechanist'
p824
aS'receptor-induc'
p825
aS'fusion'
p826
aS'vdr'
p827
aS'cell-associ'
p828
aS'background'
p829
aS'lca'
p830
aS'lymphoma'
p831
aS'intravitr'
p832
aS'shoulder'
p833
aS'measur'
p834
aS'polymeras'
p835
aS'specif'
p836
aS'cytolyt'
p837
aS'4-acetyl-3-hydroxy-2-propylphenoxi'
p838
aS'blunt'
p839
aS'56'
p840
aS'negat'
p841
aS'50'
p842
aS'amylas'
p843
aS'anastomosi'
p844
aS'ancestr'
p845
aS'confid'
p846
aS'cxcr4'
p847
aS'rhytid'
p848
aS'endophthalm'
p849
aS'oxid'
p850
aS'microsom'
p851
aS'salin'
p852
aS'childbear'
p853
aS'interv'
p854
aS'disord'
p855
aS'maxim'
p856
aS'mycophenol'
p857
aS'population,'
p858
aS'intern'
p859
aS'tissue-specif'
p860
aS'low-dos'
p861
aS'interf'
p862
aS'etonogestrel'
p863
aS'mitoxantron'
p864
aS'bisphenol'
p865
aS'insensit'
p866
aS'murin'
p867
aS'cns'
p868
aS'flux'
p869
aS'1,072'
p870
aS'receptor-posit'
p871
aS'nocicept'
p872
aS'roab18'
p873
aS'month,'
p874
aS'0.30-0.86'
p875
aS'antimicrobi'
p876
aS'auto-inflammatori'
p877
aS'condit'
p878
aS'roab13'
p879
aS'roab12'
p880
aS'roab14'
p881
aS'drink-year'
p882
aS'cni'
p883
aS'cord'
p884
aS'models,'
p885
aS'diltiazem'
p886
aS'dental'
p887
aS'confluent'
p888
aS'confer'
p889
aS'nonsynonym'
p890
aS'whi'
p891
aS'gamma-globulin'
p892
aS'promot'
p893
aS'acetyltransferas'
p894
aS'heparin'
p895
aS'lipolactonas'
p896
aS'eat'
p897
aS'ileal'
p898
aS'literatur'
p899
aS'o'
p900
aS'ala/thr'
p901
aS'le'
p902
aS'blood-brain'
p903
aS'cyp3a5'
p904
aS'inno-406'
p905
aS'arthrodesi'
p906
aS'produc'
p907
aS'small-cel'
p908
aS'encod'
p909
aS'4.13'
p910
aS'ppm'
p911
aS'montelukast'
p912
aS'right'
p913
aS'depsipeptid'
p914
aS'vegfr-1'
p915
aS'amsterdam'
p916
aS'e.g.,'
p917
aS'39.2'
p918
aS'anorexia'
p919
aS'suffici'
p920
aS'support'
p921
aS'cancer,'
p922
aS'transform'
p923
aS'proinflammatori'
p924
aS'avail'
p925
aS'reli'
p926
aS'drug-treat'
p927
aS'toxin-sensit'
p928
aS'b.'
p929
aS'ex3+23a'
p930
aS'synthesis'
p931
aS'analysi'
p932
aS'headach'
p933
aS'glucos'
p934
aS'pge2'
p935
aS'form'
p936
aS'mptp'
p937
aS'altogeth'
p938
aS'benzodiazepin'
p939
aS'heal'
p940
aS'nt_022135.15'
p941
aS'substrat'
p942
aS'pp2'
p943
aS'pp1'
p944
aS'fpgs'
p945
aS'percentag'
p946
aS'229'
p947
aS'rituximab'
p948
aS'226'
p949
aS'amlodipin'
p950
aS'retin'
p951
aS'mtx'
p952
aS'suspect'
p953
aS'ml/h'
p954
aS'multifactor'
p955
aS'rescu'
p956
aS'topiram'
p957
aS'vivo'
p958
aS'leukopenia'
p959
aS'over-transmiss'
p960
aS'col1a2'
p961
aS'minor'
p962
aS'absenc'
p963
aS'down-regul'
p964
aS'unrel'
p965
aS'asthmat'
p966
aS'150'
p967
aS'1.16-4.57'
p968
aS'featur'
p969
aS'phosphotriest'
p970
aS'compartment'
p971
aS'diagnosi'
p972
aS'diagnost'
p973
aS'oprm1'
p974
aS'0.63'
p975
aS'0.65'
p976
aS'0.66'
p977
aS'nod2'
p978
aS'agents,'
p979
aS'graft'
p980
aS'insig2'
p981
aS'ile3434thr'
p982
aS'melanoma'
p983
aS'nm'
p984
aS'angiogenesi'
p985
aS'pcnsl'
p986
aS'excel'
p987
aS'pyrophosphatase/phosphodiesteras'
p988
aS'tir'
p989
aS'circulatori'
p990
aS'hct116'
p991
aS'role'
p992
aS'enterococci'
p993
aS'test'
p994
aS'implant'
p995
aS'transmiss'
p996
aS'nt'
p997
aS'roll'
p998
aS'radioligand'
p999
aS'0.049'
p1000
aS'a1,555g'
p1001
aS'benefici'
p1002
aS'ifng'
p1003
aS'hyperhomocysteinemia'
p1004
aS'g0-g1'
p1005
aS'hypogonad'
p1006
aS'hormon'
p1007
aS'diet'
p1008
aS'0.044'
p1009
aS'carcinogenesi'
p1010
aS'intens'
p1011
aS'intent'
p1012
aS'abrog'
p1013
aS'mc3t3-e1'
p1014
aS'1-5'
p1015
aS'ccag'
p1016
aS'pre-engraft'
p1017
aS'timp'
p1018
aS'axi'
p1019
aS'intensity-modul'
p1020
aS'furthermor'
p1021
aS'fsh'
p1022
aS'iminobenzoxathiolon'
p1023
aS'dane'
p1024
aS'sw480'
p1025
aS'cpt-11'
p1026
aS'haplotype-bas'
p1027
aS'time'
p1028
aS'1.1-3.2'
p1029
aS'n3'
p1030
aS'daili'
p1031
aS'breadth'
p1032
aS'concept'
p1033
aS'japan'
p1034
aS'bolus'
p1035
aS'35.3'
p1036
aS'consum'
p1037
aS'focus'
p1038
aS'opa1'
p1039
aS'urinari'
p1040
aS'signific'
p1041
aS'rkip'
p1042
aS'skin'
p1043
aS'steroidogen'
p1044
aS'ros'
p1045
aS'streptococci,'
p1046
aS'234'
p1047
aS'catalyt'
p1048
aS'depend'
p1049
aS'transduc'
p1050
aS'428'
p1051
aS'nineteen'
p1052
aS'3.75'
p1053
aS'intermedi'
p1054
aS'catalyz'
p1055
aS'neuroplastin'
p1056
aS'anti-il-1beta'
p1057
aS'hiv-dna'
p1058
aS'intercellular'
p1059
aS'nerv'
p1060
aS'inact'
p1061
aS'yeast'
p1062
aS'vinculin'
p1063
aS'diminish'
p1064
aS'feasibl'
p1065
aS'1.82'
p1066
aS'hairpin'
p1067
aS'join'
p1068
aS'blast'
p1069
aS'nephropathi'
p1070
aS'secondari'
p1071
aS'hour'
p1072
aS'administr'
p1073
aS'level'
p1074
aS'tear'
p1075
aS'die'
p1076
aS'mb'
p1077
aS'make'
p1078
aS'knock-out'
p1079
aS'1a1'
p1080
aS'p'
p1081
aS'trans-methylimino-n-oxi'
p1082
aS'filgrastim'
p1083
aS'gut'
p1084
aS'ppardelta'
p1085
aS'reaction-bas'
p1086
aS'prevent'
p1087
aS'oncogen'
p1088
aS'trisomi'
p1089
aS'stec'
p1090
aS'trend'
p1091
aS'autolog'
p1092
aS'pore'
p1093
aS'gene,'
p1094
aS'cerebr'
p1095
aS'dickkopf'
p1096
aS'nos1ap'
p1097
aS'bacteria'
p1098
aS'muramyl'
p1099
aS'group:'
p1100
aS'mammalian'
p1101
aS'fusariosi'
p1102
aS'appear'
p1103
aS'gingiv'
p1104
aS'ere'
p1105
aS'mip1alpha'
p1106
aS'250-k'
p1107
aS'daily,'
p1108
aS'xpd,'
p1109
aS'ex3+58a'
p1110
aS'toll-lik'
p1111
aS'systol'
p1112
aS'527'
p1113
aS'mp6-xt22'
p1114
aS'adh1b'
p1115
aS'rs2229094'
p1116
aS'del'
p1117
aS'fifti'
p1118
aS'boost'
p1119
aS'7.27'
p1120
aS'endometri'
p1121
aS'pose'
p1122
aS'defici'
p1123
aS'deriv'
p1124
aS'agonist,'
p1125
aS'genet'
p1126
aS'nanomolar'
p1127
aS'perpendicular'
p1128
aS'coli-'
p1129
aS'modif'
p1130
aS'splice'
p1131
aS'address'
p1132
aS'locat'
p1133
aS'cyp3a4'
p1134
aS'stem'
p1135
aS'or=0.54'
p1136
aS'59.5'
p1137
aS'anxiety-depress'
p1138
aS'precursor'
p1139
aS'0.0179'
p1140
aS'twenty-seven'
p1141
aS'trial'
p1142
aS'nf-kappab'
p1143
aS'healthi'
p1144
aS'extrem'
p1145
aS'atrioventricular'
p1146
aS'chemoresist'
p1147
aS'12-month'
p1148
aS'cyp3a'
p1149
aS'peg-ifn'
p1150
aS'ipc'
p1151
aS'elect'
p1152
aS'once-daili'
p1153
aS'homologu'
p1154
aS'gjb3'
p1155
aS'two-hybrid'
p1156
aS'prefer'
p1157
aS'cyclin'
p1158
aS'lovo'
p1159
aS'gjb6'
p1160
aS'co-oper'
p1161
aS'cholesteryl'
p1162
aS'0.73-0.88'
p1163
aS'inlj'
p1164
aS'marker'
p1165
aS'islet'
p1166
aS'mobil'
p1167
aS'transplant'
p1168
aS'anorexia,'
p1169
aS'alpha-2b'
p1170
aS'differenti'
p1171
aS'n-desmethyl'
p1172
aS'subvert'
p1173
aS'scan'
p1174
aS'visit'
p1175
aS'p=0.026'
p1176
aS'k121q'
p1177
aS'live'
p1178
aS'threefold'
p1179
aS'msc'
p1180
aS'today'
p1181
aS'metastasis,'
p1182
aS'malat'
p1183
aS'recently,'
p1184
aS'reduct'
p1185
aS'peopl'
p1186
aS'morphogenesi'
p1187
aS'promyelocyt'
p1188
aS'315'
p1189
aS'enhanc'
p1190
aS'visual'
p1191
aS'tandem'
p1192
aS'leukemogen'
p1193
aS'examin'
p1194
aS'mamu-a*01'
p1195
aS'adipos'
p1196
aS'rs3118470'
p1197
aS'lower,'
p1198
aS'tp53'
p1199
aS'nlrp3'
p1200
aS'hemolytic-urem'
p1201
aS'local'
p1202
aS'prepar'
p1203
aS'ibd'
p1204
aS'uniqu'
p1205
aS'microg'
p1206
aS'cep290-lca'
p1207
aS'0.51-0.85'
p1208
aS'vegf'
p1209
aS'webster'
p1210
aS'purpos'
p1211
aS'qlt0267'
p1212
aS'heart'
p1213
aS'glaucoma'
p1214
aS'endocrin'
p1215
aS'predict'
p1216
aS'fmol/l'
p1217
aS'meningitis,'
p1218
aS'prophylaxi'
p1219
aS'agent'
p1220
aS'topic'
p1221
aS'stroke'
p1222
aS'immunolog'
p1223
aS'atorvastatin'
p1224
aS'articl'
p1225
aS'hydrogen'
p1226
aS'serum'
p1227
aS'1-methyl-4-phenylpyridinium'
p1228
aS'occup'
p1229
aS'p=0.040'
p1230
aS'dyspnoea'
p1231
aS'multipl'
p1232
aS'arg94hi'
p1233
aS'lysophosphatid'
p1234
aS'meperidine/diazepam'
p1235
aS'preoper'
p1236
aS'2702'
p1237
aS'dysregul'
p1238
aS'1'
p1239
aS'alway'
p1240
aS'ligat'
p1241
aS'flank'
p1242
aS'criterion'
p1243
aS'plus'
p1244
aS'tnf-alpha'
p1245
aS'hypertens'
p1246
aS'pathway'
p1247
aS'undertook'
p1248
aS'11/47'
p1249
aS'cep290/nphp6'
p1250
aS'product'
p1251
aS'142'
p1252
aS'140'
p1253
aS'may'
p1254
aS'23e'
p1255
aS'clone'
p1256
aS'rs11209026'
p1257
aS'23c'
p1258
aS'mab'
p1259
aS'allele-specif'
p1260
aS'snp'
p1261
aS'cardiac'
p1262
aS'end'
p1263
aS'ascertain'
p1264
aS'data'
p1265
aS'repeat'
p1266
aS'man'
p1267
aS'tion'
p1268
aS'epoetin'
p1269
aS'practic'
p1270
aS'75.9'
p1271
aS'transfect'
p1272
aS'inform'
p1273
aS'combin'
p1274
aS'block'
p1275
aS'african'
p1276
aS'sc'
p1277
aS'1,400-fold'
p1278
aS'triallel'
p1279
aS'p53/56'
p1280
aS'regimen'
p1281
aS'125'
p1282
aS'shrna'
p1283
aS'mg-63'
p1284
aS'6.43'
p1285
aS'blocker'
p1286
aS'infiltr'
p1287
aS'approv'
p1288
aS'kong'
p1289
aS'brain'
p1290
aS'cab45b'
p1291
aS'nitrogen'
p1292
aS'noteworthi'
p1293
aS'peroxid'
p1294
aS'cold'
p1295
aS'still'
p1296
aS'l1007fsinsc'
p1297
aS'group'
p1298
aS'monitor'
p1299
aS'asp62hi'
p1300
aS'passag'
p1301
aS'ci=1.19-11.24'
p1302
aS'relaps'
p1303
aS'precondit'
p1304
aS'dysfunct'
p1305
aS'additionally,'
p1306
aS'cryptosporidium'
p1307
aS'hormone-releas'
p1308
aS'cox-2-depend'
p1309
aS'main'
p1310
aS'morbid'
p1311
aS'non'
p1312
aS'uniparent'
p1313
aS'profession'
p1314
aS'reject'
p1315
aS'small-molecul'
p1316
aS'pst1'
p1317
aS'initi'
p1318
aS'nation'
p1319
aS'disloc'
p1320
aS'268521'
p1321
aS'cyclin-depend'
p1322
aS'exon'
p1323
aS'histoplasmosi'
p1324
aS'acta'
p1325
aS'ef-hand'
p1326
aS'introduction:'
p1327
aS'discuss'
p1328
aS'possess'
p1329
aS'lpa-medi'
p1330
aS'term'
p1331
aS'cycloheximid'
p1332
aS'all-tran'
p1333
aS'paclitaxel'
p1334
aS'subjects.thes'
p1335
aS'revers'
p1336
aS'14.9'
p1337
aS'propuls'
p1338
aS'separ'
p1339
aS'0.055'
p1340
aS'gstp1'
p1341
aS'snellen'
p1342
aS'polit'
p1343
aS'domain'
p1344
aS'or='
p1345
aS'eh'
p1346
aS'fistula'
p1347
aS'individu'
p1348
aS'continu'
p1349
aS'intermitt'
p1350
aS'ensur'
p1351
aS'therefore,'
p1352
aS'adenoma'
p1353
aS'ex'
p1354
aS'year'
p1355
aS'et'
p1356
aS'plaqu'
p1357
aS'acetaldehyd'
p1358
aS'baselin'
p1359
aS'shown'
p1360
aS'hcv'
p1361
aS'infarct'
p1362
aS'beta-thalassaemia'
p1363
aS'alzheim'
p1364
aS'pancrea'
p1365
aS'profil'
p1366
aS'thus,'
p1367
aS'senesc'
p1368
aS'hcg'
p1369
aS'rational'
p1370
aS'opioid-spar'
p1371
aS'genotyp'
p1372
aS'hepatocyt'
p1373
aS'hcl'
p1374
aS'0.26-0.49'
p1375
aS'e.'
p1376
aS'macropterus'
p1377
aS'6.6+/-1.3'
p1378
aS'migrat'
p1379
aS'variant'
p1380
aS'million'
p1381
aS'1mum'
p1382
aS'argu'
p1383
aS'28-week'
p1384
aS'adalimumab'
p1385
aS'growth,'
p1386
aS'interestingly,'
p1387
aS'apwv'
p1388
aS'institut'
p1389
aS'cough'
p1390
aS'beta2-microglobulin'
p1391
aS'care'
p1392
aS'pcr-restrict'
p1393
aS'huvec'
p1394
aS'prescrib'
p1395
aS'frequenc'
p1396
aS'bcr-abl-posit'
p1397
aS'paxillin'
p1398
aS'or=2.63'
p1399
aS'ql'
p1400
aS'motion'
p1401
aS'turn'
p1402
aS'platelet-deriv'
p1403
aS'meta-analysi'
p1404
aS'1006'
p1405
aS'childhood'
p1406
aS'frequent'
p1407
aS'first'
p1408
aS'origin'
p1409
aS'mrp1-mediat'
p1410
aS'rt-pcr'
p1411
aS'endoscop'
p1412
aS'carri'
p1413
aS'onc'
p1414
aS'pre-cancer'
p1415
aS'one'
p1416
aS'amino'
p1417
aS'acquisit'
p1418
aS'rs3093105,'
p1419
aS'chemokine-stimul'
p1420
aS'anti-'
p1421
aS'etiopathogenesi'
p1422
aS'fluorogen'
p1423
aS'rs3093200'
p1424
aS'open'
p1425
aS'cystinosi'
p1426
aS'size'
p1427
aS'1p'
p1428
aS'1s'
p1429
aS'1r'
p1430
aS'azathioprin'
p1431
aS'citi'
p1432
aS'silenc'
p1433
aS'2'
p1434
aS'cassett'
p1435
aS'subclin'
p1436
aS'thrthr'
p1437
aS'14-year-old'
p1438
aS'coli-induc'
p1439
aS'white'
p1440
aS'hyl5'
p1441
aS'urocortin'
p1442
aS'knowledg'
p1443
aS'leukotrien'
p1444
aS'hub'
p1445
aS'especi'
p1446
aS'gc/cc'
p1447
aS'copi'
p1448
aS'abcg2-medi'
p1449
aS'pathogenesi'
p1450
aS'oritavancin'
p1451
aS't2dm'
p1452
aS'logist'
p1453
aS'hus'
p1454
aS'vegfr'
p1455
aS'titrat'
p1456
aS'0.83-1.07'
p1457
aS'disequilibrium'
p1458
aS'lipopolysaccharide-activ'
p1459
aS'11'
p1460
aS'10'
p1461
aS'13'
p1462
aS'tir-yp'
p1463
aS'15'
p1464
aS'14'
p1465
aS'17'
p1466
aS'16'
p1467
aS'19'
p1468
aS'18'
p1469
aS'5713'
p1470
aS'recruit'
p1471
aS'cardiotox'
p1472
aS'r'
p1473
aS'balanc'
p1474
aS'sera'
p1475
aS'posit'
p1476
aS'hla-mismatch'
p1477
aS'cingul'
p1478
aS'4-methyl-2-'
p1479
aS'intracamer'
p1480
aS'seri'
p1481
aS'prospect'
p1482
aS'g559t'
p1483
aS'lestaurtinib'
p1484
aS'contrast,'
p1485
aS'caspase-medi'
p1486
aS'ani'
p1487
aS'delin'
p1488
aS'inlb'
p1489
aS'v441i'
p1490
aS'invasion,'
p1491
aS'antiprolif'
p1492
aS'emet'
p1493
aS'allel'
p1494
aS'necrosi'
p1495
aS'warsaw'
p1496
aS'hitherto'
p1497
aS'to-norm'
p1498
aS'aberr'
p1499
aS'cytokin'
p1500
aS'techniqu'
p1501
aS'moreov'
p1502
aS'zygomycosi'
p1503
aS'hotspot'
p1504
aS'26/27'
p1505
aS'rrms'
p1506
aS'take'
p1507
aS'advis'
p1508
aS'689'
p1509
aS'microenviron'
p1510
aS'gfpc'
p1511
aS'bcrp-'
p1512
aS'channel'
p1513
aS'microg/ml'
p1514
aS'200'
p1515
aS'gleason'
p1516
aS'imatinib-resist'
p1517
aS'pain'
p1518
aS'normal'
p1519
aS'p450'
p1520
aS'xrcc3,'
p1521
aS'beta'
p1522
aS'etoposide-induc'
p1523
aS'abus'
p1524
aS'tract'
p1525
aS'pair'
p1526
aS'escherichia'
p1527
aS'cardiac-specif'
p1528
aS'synthesi'
p1529
aS'tnf-alpha-g308a'
p1530
aS'latex'
p1531
aS'ferox'
p1532
aS'synonym'
p1533
aS'renal'
p1534
aS'shrnas'
p1535
aS'hfe'
p1536
aS'later'
p1537
aS'chemoradiotherapi'
p1538
aS'ikappabalpha'
p1539
aS'multivari'
p1540
aS'pattern'
p1541
aS'quiescent'
p1542
aS'astrocyt'
p1543
aS'recipi'
p1544
aS'flt3/'
p1545
aS'set'
p1546
aS'pmca1b'
p1547
aS'uncondit'
p1548
aS'show'
p1549
aS'concomit'
p1550
aS'merit'
p1551
aS'recombin'
p1552
aS'rituximab/'
p1553
aS'top2beta-dna'
p1554
aS'fortifi'
p1555
aS'colon-select'
p1556
aS'cyclosporin'
p1557
aS'contemporari'
p1558
aS'ground'
p1559
aS'onli'
p1560
aS'ratio'
p1561
aS'arg559gln'
p1562
aS'loss-of-funct'
p1563
aS'docetaxel'
p1564
aS'kappab'
p1565
aS'activ'
p1566
aS'gln221glu'
p1567
aS'disease-associ'
p1568
aS'intracrani'
p1569
aS'actin'
p1570
aS'analyz'
p1571
aS'11.47'
p1572
aS'stain'
p1573
aS'analys'
p1574
aS'extracellular'
p1575
aS'p=0.054'
p1576
aS'motor'
p1577
aS'prostatectomi'
p1578
aS'becaus'
p1579
aS'irradi'
p1580
aS'nphp6'
p1581
aS'chemic'
p1582
aS'vicari'
p1583
aS'requir'
p1584
aS'pharmacokinet'
p1585
aS'prime'
p1586
aS'reveal'
p1587
aS'xpd-751,'
p1588
aS'supratentori'
p1589
aS'amino-acid'
p1590
aS'or=0.62'
p1591
aS'nonspecif'
p1592
aS'trp46ter'
p1593
aS'pituitari'
p1594
aS'median'
p1595
aS'preincision'
p1596
aS'intrins'
p1597
aS'irrespect'
p1598
aS'paroxetin'
p1599
aS'nettl'
p1600
aS'mediat'
p1601
aS'summari'
p1602
aS'ester-load'
p1603
aS'orientia'
p1604
aS'disease-rel'
p1605
aS'5t/6t'
p1606
aS'often'
p1607
aS'burst'
p1608
aS'surgeri'
p1609
aS'outpati'
p1610
aS'atpas'
p1611
aS'hepat'
p1612
aS'j.'
p1613
aS'adhesion/migr'
p1614
aS'pfge'
p1615
aS'seal'
p1616
aS'reserv'
p1617
aS'anem'
p1618
aS'concern'
p1619
aS'extrud'
p1620
aS'detect'
p1621
aS's-transferas'
p1622
aS'chemotaxi'
p1623
aS'review'
p1624
aS'hybrid'
p1625
aS'label'
p1626
aS'0.020'
p1627
aS'3'
p1628
aS'0.022'
p1629
aS'0.025'
p1630
aS'inhibitori'
p1631
aS'extrus'
p1632
aS'import'
p1633
aS'paramet'
p1634
aS'across'
p1635
aS'scfa'
p1636
aS'diplotyp'
p1637
aS'dextran'
p1638
aS'slc12a3'
p1639
aS'primary-cultur'
p1640
aS'screen'
p1641
aS'molluscan'
p1642
aS'lymphoblast'
p1643
aS'0.156'
p1644
aS'factor-rel'
p1645
aS'pharmacotherapi'
p1646
aS'spare'
p1647
aS'lymphotoxin-alpha'
p1648
aS'ikkbeta-medi'
p1649
aS'shortag'
p1650
aS'premalign'
p1651
aS'best-correct'
p1652
aS'myometri'
p1653
aS'background:'
p1654
aS'ischem'
p1655
aS'ch11'
p1656
aS'heterolog'
p1657
aS'c-kit'
p1658
aS'mob'
p1659
aS'cycl'
p1660
aS'taqman'
p1661
aS'region'
p1662
aS'23'
p1663
aS'metabolite,'
p1664
aS'contract'
p1665
aS'inhibitor,'
p1666
aS'rad5'
p1667
aS'sorafenib'
p1668
aS'sustain'
p1669
aS'hematopoiet'
p1670
aS'75'
p1671
aS'improv'
p1672
aS'rs3118470,'
p1673
aS'sn-38'
p1674
aS'ex9+77a'
p1675
aS'among'
p1676
aS'acceler'
p1677
aS'pebp'
p1678
aS'cancer'
p1679
aS'homozyg'
p1680
aS'period'
p1681
aS'60'
p1682
aS'61'
p1683
aS'62'
p1684
aS'colon'
p1685
aS'65'
p1686
aS'66'
p1687
aS'67'
p1688
aS'68'
p1689
aS'periop'
p1690
aS'nerve-spar'
p1691
aS'poli'
p1692
aS'dyspnea'
p1693
aS'anosmia'
p1694
aS'tumour'
p1695
aS'coupl'
p1696
aS'bevacizumab'
p1697
aS'jvm2'
p1698
aS'invers'
p1699
aS'frizzled-rel'
p1700
aS'hes-1'
p1701
aS'serine/threonin'
p1702
aS'500'
p1703
aS'deacetylas'
p1704
aS'r=-0.21'
p1705
aS'633'
p1706
aS'bmd'
p1707
aS'reaction'
p1708
aS'psychoact'
p1709
aS'psychotherapi'
p1710
aS'lentivir'
p1711
aS'suscept'
p1712
aS'22-year-old'
p1713
aS'chop/eshap'
p1714
aS'f90'
p1715
aS'psychosi'
p1716
aS'moreover,'
p1717
aS'acyclovir'
p1718
aS'mtor'
p1719
aS'a569v'
p1720
aS'alfentanil'
p1721
aS'pilot'
p1722
aS'case'
p1723
aS'refractori'
p1724
aS'ttgc/ttgc'
p1725
aS'multitarget'
p1726
aS'50k'
p1727
aS'long-dist'
p1728
aS'gland'
p1729
aS'iii-promot'
p1730
aS'mount'
p1731
aS'metastasi'
p1732
aS'alter'
p1733
aS'citrat'
p1734
aS'outcom'
p1735
aS'rs3825942'
p1736
aS'nitazoxanid'
p1737
aS'xrcc1-399'
p1738
aS'immunohistochem'
p1739
aS'tumorigenesi'
p1740
aS'basdai'
p1741
aS'ivl'
p1742
aS'5.83'
p1743
aS'henc'
p1744
aS'arg280hi'
p1745
aS'strain'
p1746
aS'summar'
p1747
aS'integrin-link'
p1748
aS'13.6'
p1749
aS'protein'
p1750
aS'13.0'
p1751
aS'pas'
p1752
aS'develop'
p1753
aS'author'
p1754
aS'1937-bp'
p1755
aS'rheumatologist'
p1756
aS'medic'
p1757
aS'transloc'
p1758
aS'microarray'
p1759
aS'infliximab'
p1760
aS'ss52580101'
p1761
aS'17.8'
p1762
aS'document'
p1763
aS'week'
p1764
aS'exhaust'
p1765
aS'committe'
p1766
aS'nest'
p1767
aS'2-methyl-1,3-oxazol-4-yl'
p1768
aS'driven'
p1769
aS'capabl'
p1770
aS'acetyl'
p1771
aS'vestibular'
p1772
aS'cholecystectomi'
p1773
aS'mani'
p1774
aS'cr'
p1775
aS'cyp1a1'
p1776
aS'cyp1a2'
p1777
aS'appropri'
p1778
aS'moder'
p1779
aS'reliev'
p1780
aS'bambu\xc3\xad'
p1781
aS'without'
p1782
aS'virus/hepat'
p1783
aS'na'
p1784
aS'g.-10,1025g'
p1785
aS'ces'
p1786
aS'model'
p1787
aS'hippocamp'
p1788
aS'ic50'
p1789
aS'flavon'
p1790
aS'edema'
p1791
aS'109.9+/-54.9'
p1792
aS'i/r'
p1793
aS'caspase-3/7'
p1794
aS'stroma'
p1795
aS'hirudin'
p1796
aS'temperature-depend'
p1797
aS'multiplex'
p1798
aS'aspect'
p1799
aS'stenot'
p1800
aS'exacerb'
p1801
aS'speed'
p1802
aS'ethyl'
p1803
aS'concentr'
p1804
aS'gather'
p1805
aS'death'
p1806
aS'europ'
p1807
aS'pox'
p1808
aS'littl'
p1809
aS'identif'
p1810
aS'm/s'
p1811
aS'il-1beta'
p1812
aS'4'
p1813
aS'disrupt'
p1814
aS'ca'
p1815
aS'9,250'
p1816
aS'earli'
p1817
aS'3.68'
p1818
aS'hypothesi'
p1819
aS'rs3743500'
p1820
aS'3.64'
p1821
aS'specimen'
p1822
aS'rs3840846'
p1823
aS'6-'
p1824
aS'klf5'
p1825
aS'deplet'
p1826
aS'10.50'
p1827
aS'dock'
p1828
aS'22.25'
p1829
aS'0.51'
p1830
aS'pss'
p1831
aS'walk'
p1832
aS'0.55'
p1833
aS'excret'
p1834
aS'rs3093662'
p1835
aS'ns'
p1836
aS'grn163l'
p1837
aS'meth/pcp-react'
p1838
aS'mmol/l'
p1839
aS'h63d'
p1840
aS'mg/kg'
p1841
aS'benefit'
p1842
aS'family-bas'
p1843
aS'either'
p1844
aS'cascad'
p1845
aS'64'
p1846
aS'2500'
p1847
aS'manag'
p1848
aS'obstruct'
p1849
aS'gnrh'
p1850
aS'verbal'
p1851
aS'pro47ser,'
p1852
aS'together,'
p1853
aS'unselect'
p1854
aS'0.048'
p1855
aS'beta-catenin'
p1856
aS'hemodynam'
p1857
aS'constitut'
p1858
aS'interleukin'
p1859
aS'birth'
p1860
aS'viral'
p1861
aS'mulatta'
p1862
aS'confirm'
p1863
aS'definit'
p1864
aS'protocol'
p1865
aS'cv'
p1866
aS'sex-stratifi'
p1867
aS'a-medi'
p1868
aS'inject'
p1869
aS'glycopeptid'
p1870
aS'damag'
p1871
aS'complic'
p1872
aS'vzv'
p1873
aS'refer'
p1874
aS'immun'
p1875
aS'compris'
p1876
aS'power'
p1877
aS'k562'
p1878
aS'sixth'
p1879
aS'rivaroxaban'
p1880
aS'0.4/0.5'
p1881
aS'rs4516035'
p1882
aS'csf2'
p1883
aS'beclomethason'
p1884
aS'chlorin'
p1885
aS'found'
p1886
aS'referr'
p1887
aS'mmol'
p1888
aS'intervent'
p1889
aS'comparison'
p1890
aS'central'
p1891
aS'24-fold'
p1892
aS'cyclohexylamin'
p1893
aS'oh'
p1894
aS'carriers,'
p1895
aS'antibodi'
p1896
aS'5-aminosalicyl'
p1897
aS'srl'
p1898
aS'risperidon'
p1899
aS'tumor'
p1900
aS'1406'
p1901
aS'degre'
p1902
aS'arthriti'
p1903
aS'0.036'
p1904
aS'acv'
p1905
aS'psc833'
p1906
aS'act'
p1907
aS'routin'
p1908
aS'ci=7.44-41.58'
p1909
aS'effici'
p1910
aS'consid'
p1911
aS'n-didesmethyl'
p1912
aS'surviv'
p1913
aS'1.02-1.57'
p1914
aS'spinal'
p1915
aS'c282y/c282i'
p1916
aS'pml/raralpha'
p1917
aS'mpges-1'
p1918
aS'strip'
p1919
aS'non-valvular'
p1920
aS'hyperglycemia'
p1921
aS'9p21'
p1922
aS'rs3093135'
p1923
aS'rs4251961'
p1924
aS'polyfunct'
p1925
aS'area'
p1926
aS'non-carri'
p1927
aS'start'
p1928
aS'non-t/t'
p1929
aS'low'
p1930
aS'psoriasi'
p1931
aS'bortezomib'
p1932
aS'gli1'
p1933
aS'acute-onset'
p1934
aS'rs1558139,'
p1935
aS'downer'
p1936
aS'dasatinib'
p1937
aS"3'-untransl"
p1938
aS'postincision'
p1939
aS'or=3.66'
p1940
aS'hydrochlorid'
p1941
aS'procarbazin'
p1942
aS'regard'
p1943
aS'femal'
p1944
aS'electro-olfactogram'
p1945
aS'offspr'
p1946
aS'thapsigargin'
p1947
aS'satur'
p1948
aS'mm3'
p1949
aS'asbesto'
p1950
aS'molecule-1'
p1951
aS'mice'
p1952
aS'urate-low'
p1953
aS'categor'
p1954
aS'conclus'
p1955
aS'transwel'
p1956
aS'adenylyl'
p1957
aS'possibl'
p1958
aS'cotransport'
p1959
aS'hscrp'
p1960
aS'succim'
p1961
aS'hyperthyroid'
p1962
aS'linkag'
p1963
aS'concentration-depend'
p1964
aS'doxorubicin'
p1965
aS'unusu'
p1966
aS'joubert'
p1967
aS'mrp1-overexpress'
p1968
aS'anti-abeta'
p1969
aS'prostate-specif'
p1970
aS'aa'
p1971
aS'ac'
p1972
aS'606'
p1973
aS'ae'
p1974
aS'ad'
p1975
aS'ag'
p1976
aS'mycobacterium'
p1977
aS'certain'
p1978
aS'pgp-overexpress'
p1979
aS'609'
p1980
aS'enterococcus'
p1981
aS'deep'
p1982
aS'general'
p1983
aS'ap'
p1984
aS'oocyt'
p1985
aS'decreas'
p1986
aS'amaurosi'
p1987
aS'follow-up'
p1988
aS'generat'
p1989
aS'anti-apoptot'
p1990
aS'encompass'
p1991
aS'acet'
p1992
aS'beyond'
p1993
aS'4.1'
p1994
aS'4.2'
p1995
aS'hydroxyphenyl'
p1996
aS'cu2+'
p1997
aS'diarrhea'
p1998
aS'vitamin-d'
p1999
aS'event'
p2000
aS'igg'
p2001
aS'cardiomyocyt'
p2002
aS'valid'
p2003
aS'5'
p2004
aS'243473'
p2005
aS'igm'
p2006
aS'6.23'
p2007
aS'poor'
p2008
aS'bmi'
p2009
aS'coactiv'
p2010
aS'sequenc'
p2011
aS'teeth'
p2012
aS'lipotox'
p2013
aS'high-affin'
p2014
aS'cb2'
p2015
aS'neuro2a'
p2016
aS'serious'
p2017
aS'summaris'
p2018
aS'gamma-amino'
p2019
aS'syber'
p2020
aS'admiss'
p2021
aS'reduc'
p2022
aS'explant'
p2023
aS'gastric'
p2024
aS'rs10735810,'
p2025
aS'mrp1-transfect'
p2026
aS'etiolog'
p2027
aS'cd56+'
p2028
aS'dimethylarginin'
p2029
aS'cilia-centrosom'
p2030
aS'nitric'
p2031
aS'immunoglobulin'
p2032
aS'mass'
p2033
aS'potenti'
p2034
aS'hdac'
p2035
aS'degrad'
p2036
aS'oral'
p2037
aS't-c-g'
p2038
aS'pigmentosum'
p2039
aS'corticosteroid'
p2040
aS'consider'
p2041
aS'rituximab/cyclophosphamide/doxorubicin/vincristine/prednison'
p2042
aS'diesel'
p2043
aS'lack'
p2044
aS'ceramid'
p2045
aS'month'
p2046
aS'correl'
p2047
aS'charlson'
p2048
aS'abil'
p2049
aS'sh-sy5i'
p2050
aS'follow'
p2051
aS'alt'
p2052
aS'ali/ard'
p2053
aS'unansw'
p2054
aS'smo'
p2055
aS'chain'
p2056
aS'1.05-1.69'
p2057
aS'febuxostat'
p2058
aS'tt'
p2059
aS'1.05-1.61'
p2060
aS'prostaglandin'
p2061
aS'lyso-sphingomyelin'
p2062
aS'tribulus'
p2063
aS'haloacyl'
p2064
aS'corollari'
p2065
aS'global'
p2066
aS'3-week'
p2067
aS'far'
p2068
aS'exogen'
p2069
aS'fat'
p2070
aS'util'
p2071
aS'rs3093105'
p2072
aS'candid'
p2073
aS'mechan'
p2074
aS'rad52'
p2075
aS'rad51'
p2076
aS'failur'
p2077
aS'anti-microbi'
p2078
aS'han'
p2079
aS'exist,'
p2080
aS'induct'
p2081
aS'a569v,'
p2082
aS'mild'
p2083
aS'gjb6-d13s1,830'
p2084
aS'dampen'
p2085
aS'ypel2'
p2086
aS'list'
p2087
aS'endoscopic/radiolog'
p2088
aS'forti'
p2089
aS't,'
p2090
aS'adjust'
p2091
aS'saudi'
p2092
aS'small'
p2093
aS'cyclophilin'
p2094
aS'baff'
p2095
aS'english-languag'
p2096
aS'mid-grad'
p2097
aS'glioma'
p2098
aS'90.0'
p2099
aS'extrapyramid'
p2100
aS'phosphatidylethanolamin'
p2101
aS'cerebrovascular'
p2102
aS'past'
p2103
aS'biolog'
p2104
aS'haematolog'
p2105
aS'design'
p2106
aS'5.6-fold'
p2107
aS'excit'
p2108
aS'serv'
p2109
aS'primer'
p2110
aS'3r,6r'
p2111
aS'esmolol'
p2112
aS'61.9+/-29.0'
p2113
aS'clock'
p2114
aS'oyster'
p2115
aS'favor'
p2116
aS'abl'
p2117
aS'otof'
p2118
aS'delet'
p2119
aS'stem-cel'
p2120
aS't180k'
p2121
aS'nonselect'
p2122
aS'mutation-posit'
p2123
aS'c1604g'
p2124
aS'public'
p2125
aS'contrast'
p2126
aS'5003'
p2127
aS'kaplan-mei'
p2128
aS'cyclooxygenase-2'
p2129
aS'streptolysin-o-permeabil'
p2130
aS'variat'
p2131
aS'homozygot'
p2132
aS'suspici'
p2133
aS'3-like'
p2134
aS'excess'
p2135
aS'catalys'
p2136
aS'strong'
p2137
aS'modifi'
p2138
aS'valv'
p2139
aS'valu'
p2140
aS'il2ra'
p2141
aS'search'
p2142
aS'inattent'
p2143
aS'caco-2'
p2144
aS'cells,'
p2145
aS'oscc'
p2146
aS'asa'
p2147
aS'long-act'
p2148
aS'prior'
p2149
aS'amount'
p2150
aS'therapeut'
p2151
aS'action'
p2152
aS'magnitud'
p2153
aS'rs10735810'
p2154
aS'rs3093135,'
p2155
aS'diamet'
p2156
aS'via'
p2157
aS'depart'
p2158
aS'declin'
p2159
aS'curat'
p2160
aS'high-grad'
p2161
aS'posttransplant'
p2162
aS'reabsorpt'
p2163
aS'haemoglobin'
p2164
aS'otoferlin'
p2165
aS'famili'
p2166
aS'gw786034'
p2167
aS'establish'
p2168
aS'q829x'
p2169
aS'select'
p2170
aS'aggress'
p2171
aS'ghrhr'
p2172
aS'mmf'
p2173
aS'eye'
p2174
aS'dlbcl'
p2175
aS'distinct'
p2176
aS'injuri'
p2177
aS'similarly,'
p2178
aS'two'
p2179
aS'doxorubicin-induc'
p2180
aS'yo-pro'
p2181
aS'abcb1'
p2182
aS'formul'
p2183
aS'kr-62980'
p2184
aS'autonom'
p2185
aS'6'
p2186
aS'taken'
p2187
aS'0.004'
p2188
aS'0.003'
p2189
aS'0.002'
p2190
aS'0.001'
p2191
aS'flat'
p2192
aS'staphylococcus'
p2193
aS'community-bas'
p2194
aS'epsilon4'
p2195
aS'0.0114'
p2196
aS'lrp5'
p2197
aS'patient-deriv'
p2198
aS'hundr'
p2199
aS'dacryocystorhinostomi'
p2200
aS'line'
p2201
aS'ifn-gamma'
p2202
aS'egf,'
p2203
aS'nosocomi'
p2204
aS'lipoprotein'
p2205
aS'particular'
p2206
aS'known'
p2207
aS'oxytocin'
p2208
aS'gh-secret'
p2209
aS'rantes,'
p2210
aS'eef2'
p2211
aS'nausea,'
p2212
aS'h19'
p2213
aS'none'
p2214
aS'calcineurin'
p2215
aS'non-o26'
p2216
aS'intra-articular'
p2217
aS'hiv-rna'
p2218
aS'h12'
p2219
aS'xenograft'
p2220
aS'histori'
p2221
aS'syntaxin'
p2222
aS'remain'
p2223
aS'top2beta'
p2224
aS'nine'
p2225
aS'pazopanib'
p2226
aS'inhibitor-bas'
p2227
aS'learn'
p2228
aS'irrevoc'
p2229
aS'hyperuricemia'
p2230
aS'male'
p2231
aS'cross-react'
p2232
aS'radiotherapi'
p2233
aS'ptch'
p2234
aS'tcdd'
p2235
aS'prompt'
p2236
aS'dual'
p2237
aS'ifn-alpha'
p2238
aS'challeng'
p2239
aS'ponv'
p2240
aS'share'
p2241
aS'accept'
p2242
aS'hbra'
p2243
aS'hormone-induc'
p2244
aS'explor'
p2245
aS'1604g'
p2246
aS'rs2395029'
p2247
aS'dipeptid'
p2248
aS'pro72arg'
p2249
aS'second-gener'
p2250
aS'5.1'
p2251
aS'cours'
p2252
aS'abc'
p2253
aS'5.6'
p2254
aS'rather'
p2255
aS'anoth'
p2256
aS'pathogen-associ'
p2257
aS'csf'
p2258
aS'csa'
p2259
aS'npas2'
p2260
aS'complexes,'
p2261
aS'5358'
p2262
aS'brcp1'
p2263
aS'eg,'
p2264
aS'field'
p2265
aS'1.09-3.42'
p2266
aS'polypoid'
p2267
aS'0.35-1.13'
p2268
aS'8.205'
p2269
aS'2-year-old'
p2270
aS'atp'
p2271
aS'apoptosom'
p2272
aS'fluticason'
p2273
aS'pon1'
p2274
aS'conclusion/signific'
p2275
aS'di-methyl'
p2276
aS'lifetim'
p2277
aS'tlr-7'
p2278
aS'blood'
p2279
aS'tlr-2'
p2280
aS'associ'
p2281
aS'stabil'
p2282
aS'short'
p2283
aS'whole-brain'
p2284
aS'macrophag'
p2285
aS'or=17.58'
p2286
aS'3-fold'
p2287
aS'caus'
p2288
aS'hypertherm'
p2289
aS'cancer-fre'
p2290
aS'revlimid'
p2291
aS'egf'
p2292
aS"3',4',7-trimethoxyflavon"
p2293
aS'travel'
p2294
aS'infant'
p2295
aS'help'
p2296
aS'reservoir'
p2297
aS'mucosa'
p2298
aS'held'
p2299
aS'paper'
p2300
aS'engraft'
p2301
aS'1.97'
p2302
aS'suffer'
p2303
aS'0.0011'
p2304
aS'1.93'
p2305
aS'cardiovascular'
p2306
aS'24'
p2307
aS'25'
p2308
aS'ascnar'
p2309
aS'resistance-rel'
p2310
aS'20'
p2311
aS'21'
p2312
aS'22'
p2313
aS'sodium'
p2314
aS'pcr'
p2315
aS'wro'
p2316
aS'mesenchym'
p2317
aS'28'
p2318
aS'rs7566605'
p2319
aS'montelukast,'
p2320
aS'metalloproteinas'
p2321
aS'2-'
p2322
aS'might'
p2323
aS'mtii'
p2324
aS'his1104hi'
p2325
aS'2+'
p2326
aS'graft-versus-host'
p2327
aS'protozoan'
p2328
aS'good'
p2329
aS'high-dos'
p2330
aS'amelior'
p2331
aS'food'
p2332
aS'largest'
p2333
aS'slight'
p2334
aS'vomit'
p2335
aS'diglycidyl'
p2336
aS'compound'
p2337
aS"3'-utr"
p2338
aS'feso4+citr'
p2339
aS'intub'
p2340
aS'crohn'
p2341
aS'thrser'
p2342
aS'rs706778'
p2343
aS'sunitinib'
p2344
aS'subunit'
p2345
aS'coimmunoprecipit'
p2346
aS'pregnant'
p2347
aS'beta-catenin/canon'
p2348
aS'endocannabinoid'
p2349
aS'pregnanc'
p2350
aS'apoptot'
p2351
aS'achiev'
p2352
aS'reactiv'
p2353
aS'multiform'
p2354
aS'2b'
p2355
aS'genom'
p2356
aS'recapitul'
p2357
aS'fulli'
p2358
aS'enfuvirtid'
p2359
aS'difficult'
p2360
aS"5'-upstream"
p2361
aS'truncat'
p2362
aS'status'
p2363
aS'605'
p2364
aS'416'
p2365
aS'weight'
p2366
aS'folat'
p2367
aS'messenger-link'
p2368
aS'fish'
p2369
aS'entamoeba'
p2370
aS'idea'
p2371
aS'procedur'
p2372
aS'circadian'
p2373
aS'15455419a'
p2374
aS'expect'
p2375
aS'stabl'
p2376
aS'srta'
p2377
aS'compet'
p2378
aS'orient'
p2379
aS'16.37'
p2380
aS'safeti'
p2381
aS'alcohol'
p2382
aS'colony-stimul'
p2383
aS'dexamethason'
p2384
aS'2.2-10.0'
p2385
aS'copy-numb'
p2386
aS'inactiv'
p2387
aS'publish'
p2388
aS'research'
p2389
aS'1.74'
p2390
aS'asn312asn'
p2391
aS'health'
p2392
aS'lacton'
p2393
aS'7'
p2394
aS'occurr'
p2395
aS'caucasian'
p2396
aS'predispos'
p2397
aS'laba'
p2398
aS'asp'
p2399
aS'cetuximab'
p2400
aS'advanc'
p2401
aS'etanercept'
p2402
aS'mmp'
p2403
aS'1-4'
p2404
aS'hydroperoxid'
p2405
aS'ckurova'
p2406
aS'base'
p2407
aS'stomach'
p2408
aS'oligomer'
p2409
aS'canon'
p2410
aS'1.1-2.9'
p2411
aS'basi'
p2412
aS'ceramide-1-phosph'
p2413
aS'devoid'
p2414
aS'photosensit'
p2415
aS'neurolog'
p2416
aS'chromogen'
p2417
aS'chr2:118,552,255'
p2418
aS'normotens'
p2419
aS'american'
p2420
aS'pre-mirna'
p2421
aS'hedgehog'
p2422
aS'clostridia'
p2423
aS'undergo'
p2424
aS'l-165041'
p2425
aS'lymphocyt'
p2426
aS'ahsg'
p2427
aS'feed'
p2428
aS'copper'
p2429
aS'major'
p2430
aS'procarcinogen'
p2431
aS'c.'
p2432
aS'perturb'
p2433
aS'exchang'
p2434
aS'number'
p2435
aS'1.23-3.45'
p2436
aS'photodynam'
p2437
aS'feet'
p2438
aS'elder'
p2439
aS'tlr1'
p2440
aS'done'
p2441
aS'least'
p2442
aS'bhas'
p2443
aS'membran'
p2444
aS'miss'
p2445
aS'propranolol'
p2446
aS'orofaci'
p2447
aS'zymogen'
p2448
aS'diuret'
p2449
aS'differ'
p2450
aS'pgda'
p2451
aS'interact'
p2452
aS'family,'
p2453
aS'180'
p2454
aS'construct'
p2455
aS'adenovirus'
p2456
aS'181'
p2457
aS'intra-abdomin'
p2458
aS'antigen'
p2459
aS'molecular'
p2460
aS'lps-induc'
p2461
aS'coccidioidomycosi'
p2462
aS'adhes'
p2463
aS'lactat'
p2464
aS'c,'
p2465
aS'assign'
p2466
aS'antimetabolit'
p2467
aS'option'
p2468
aS'relationship'
p2469
aS'pklr'
p2470
aS'asct'
p2471
aS'bowel'
p2472
aS'insulin-induc'
p2473
aS'antitumor'
p2474
aS'5-fold'
p2475
aS'nck'
p2476
aS'acacetin'
p2477
aS'role,'
p2478
aS'pgp-mediat'
p2479
aS'apoptosi'
p2480
aS'n-ethylmaleimide-sensit'
p2481
aS'proliferator-activ'
p2482
aS'exposur'
p2483
aS'b'
p2484
aS'reason'
p2485
aS'iranian'
p2486
aS'pain,'
p2487
aS'remov'
p2488
aS'urotheli'
p2489
aS'imd'
p2490
aS'sixty-thre'
p2491
aS'meth/'
p2492
aS'0.019'
p2493
aS'stressor'
p2494
aS'0.98'
p2495
aS'postur'
p2496
aS'0.012'
p2497
aS'toward'
p2498
aS'stx'
p2499
aS'abcc1'
p2500
aS'chitinas'
p2501
aS'0.017'
p2502
aS'885'
p2503
aS'exert'
p2504
aS'defect'
p2505
aS'glioblastoma'
p2506
aS'inlj,'
p2507
aS'7q'
p2508
aS'full-dos'
p2509
aS'gaba/glutam'
p2510
aS'antibodies,'
p2511
aS'gp-39'
p2512
aS'metabol'
p2513
aS'equival'
p2514
aS'virus-coinfect'
p2515
aS'onset'
p2516
aS'also'
p2517
aS'chromosom'
p2518
aS'endogen'
p2519
aS'age-rel'
p2520
aS'sely'
p2521
aS'frail'
p2522
aS'hgf'
p2523
aS'donor'
p2524
aS'k9'
p2525
aS'histolog'
p2526
aS'play'
p2527
aS'distribut'
p2528
aS'non-allel'
p2529
aS'store-oper'
p2530
aS'aids-rel'
p2531
aS'polydrug'
p2532
aS'1.616-41.667'
p2533
aS'virus'
p2534
aS'prolifer'
p2535
aS'73'
p2536
aS'plan'
p2537
aS'91.2'
p2538
aS'atelocollagen'
p2539
aS'pediatr'
p2540
aS'alpha'
p2541
aS'l11.3'
p2542
aS'79'
p2543
aS'dialysi'
p2544
aS'kb'
p2545
aS'stroma-medi'
p2546
aS'kg'
p2547
aS'arter'
p2548
aS'10-fold'
p2549
aS'clear'
p2550
aS'ag-1478'
p2551
aS'sodium-induc'
p2552
aS'cleav'
p2553
aS'cell-bas'
p2554
aS'part'
p2555
aS'abnorm'
p2556
aS'canthal'
p2557
aS'life-threaten'
p2558
aS'2.06'
p2559
aS'dystrophi'
p2560
aS'h3-k4'
p2561
aS'clinician'
p2562
aS'chelat'
p2563
aS'prednison'
p2564
aS'parp'
p2565
aS'nalp3'
p2566
aS'ipla1,'
p2567
aS'stk39'
p2568
aS'find'
p2569
aS'impact'
p2570
aS'current'
p2571
aS'giant'
p2572
aS'abcg2/brcp1'
p2573
aS'ineffect'
p2574
aS'nervous'
p2575
aS'solut'
p2576
aS'52.33'
p2577
aS'cough,'
p2578
aS'4-fluoro-benzylamid'
p2579
aS'3h'
p2580
aS'tgfbip/betaig-h3'
p2581
aS'factor'
p2582
aS'adh1c'
p2583
aS'prosthet'
p2584
aS'hip'
p2585
aS'hiv'
p2586
aS'0.64-0.99'
p2587
aS'express'
p2588
aS'missens'
p2589
aS'cd4'
p2590
aS'nativ'
p2591
aS'mainten'
p2592
aS'5,000'
p2593
aS'breast'
p2594
aS'arteri'
p2595
aS'haemodynam'
p2596
aS'v1b'
p2597
aS'trifluoromethyl'
p2598
aS'v1a'
p2599
aS'g-a'
p2600
aS'crp'
p2601
aS'ikappab'
p2602
aS'aom/dss'
p2603
aS'mitochondrial-l'
p2604
aS'prime/rad5'
p2605
aS'postul'
p2606
aS'synthes'
p2607
aS't/t'
p2608
aS'acut'
p2609
aS'rfc'
p2610
aS'g1321a'
p2611
aS'crf'
p2612
aS'common'
p2613
aS'background/aim'
p2614
aS'virolog'
p2615
aS't/c'
p2616
aS'peak'
p2617
aS'respir'
p2618
aS'immunodefici'
p2619
aS'case-control'
p2620
aS'rs13199524,'
p2621
aS'symptomat'
p2622
aS'agglutin'
p2623
aS'b-cell-nhl'
p2624
aS'potent'
p2625
aS'sex'
p2626
aS'leukocyt'
p2627
aS'sutur'
p2628
aS'schizophrenia'
p2629
aS'2-fold'
p2630
aS'nimesulid'
p2631
aS'framingham'
p2632
aS'dimethylamino'
p2633
aS'close'
p2634
aS'sem'
p2635
aS'2.0'
p2636
aS'2.7'
p2637
aS'arm'
p2638
aS'analog'
p2639
aS'2.4'
p2640
aS'0.018'
p2641
aS'thrombocytopenia'
p2642
aS'particip'
p2643
aS'debat'
p2644
aS'mg/dl'
p2645
aS'bioluminesc'
p2646
aS'various'
p2647
aS'vascular'
p2648
aS'interferon-gamma'
p2649
aS'experi'
p2650
aS'urtica'
p2651
aS'altern'
p2652
aS'piperazin'
p2653
aS'hypercholesterolem'
p2654
aS'numer'
p2655
aS'0.32-0.93'
p2656
aS'induc'
p2657
aS'aspir'
p2658
aS'isol'
p2659
aS'0.011'
p2660
aS'hiv-1'
p2661
aS'blot'
p2662
aS'lipopolysaccharid'
p2663
aS'clarithromycin'
p2664
aS'consumpt'
p2665
aS'interlaminar'
p2666
aS'asthma'
p2667
aS'histolytica'
p2668
aS'minut'
p2669
aS'popul'
p2670
aS'enpp1'
p2671
aS'c'
p2672
aS'n-wasp'
p2673
aS'bisbenzylisoquinolin'
p2674
aS"3'utr"
p2675
aS'receptor-rel'
p2676
aS'trimest'
p2677
aS'pds'
p2678
aS'0.015'
p2679
aS'meckel'
p2680
aS'double-strand'
p2681
aS'context'
p2682
aS'c282i'
p2683
aS'long-term'
p2684
aS'antiapoptot'
p2685
aS'however,'
p2686
aS'whole'
p2687
aS'load'
p2688
aS'ectonucleotid'
p2689
aS'antiepilept'
p2690
aS'first-cycl'
p2691
aS'low-dens'
p2692
aS'receptor-gamma'
p2693
aS'nonsteroid'
p2694
aS'batteri'
p2695
aS'throughout'
p2696
aS'stratif'
p2697
aS'communiti'
p2698
aS'platinum'
p2699
aS'once-week'
p2700
aS'becom'
p2701
aS'5-asa'
p2702
aS'arrest'
p2703
aS'pro72arg,'
p2704
aS'intracellular'
p2705
aS'devic'
p2706
aS'due'
p2707
aS'side-effect'
p2708
aS'secret'
p2709
aS'pa'
p2710
aS'pg'
p2711
aS'pd'
p2712
aS'new-gener'
p2713
aS'strategi'
p2714
aS'non-centr'
p2715
aS'infect'
p2716
aS'oxidative/nitros'
p2717
aS'1000-1200'
p2718
aS'convert'
p2719
aS'neurotox'
p2720
aS'spectrum'
p2721
aS'leukoplakia'
p2722
aS'gpx2'
p2723
aS'understand'
p2724
aS'liver'
p2725
aS'differentiation,'
p2726
aS'gag'
p2727
aS'turkish'
p2728
aS'iibeta'
p2729
aS'endovascular'
p2730
aS'desensit'
p2731
aS'normoxia'
p2732
aS'p1'
p2733
aS'downregul'
p2734
aS'hypomorph'
p2735
aS'10p12.31-p12.2'
p2736
aS'solid'
p2737
aS'adj'
p2738
aS'02-02b'
p2739
aS'cyclooxygenas'
p2740
aS'creatinin'
p2741
aS'durat'
p2742
aS'histon'
p2743
aS'sv119'
p2744
aS'unifi'
p2745
aS'behavior'
p2746
aS'32'
p2747
aS'ribonucl'
p2748
aS'recognit'
p2749
aS'anonym'
p2750
aS'5-year-old'
p2751
aS'31'
p2752
aS'loop'
p2753
aS'ikkbeta-elicit'
p2754
aS'morphogenesis,'
p2755
aS'larger'
p2756
aS'19.0'
p2757
aS'interferon/ribavirin'
p2758
aS'gel'
p2759
aS'herein'
p2760
aS'36'
p2761
aS'confound'
p2762
aS'colorect'
p2763
aS'full-length'
p2764
aS'simian'
p2765
aS'aml'
p2766
aS'osteogenesi'
p2767
aS'ipla1'
p2768
aS'minim'
p2769
aS'styryl'
p2770
aS'belong'
p2771
aS'shorten'
p2772
aS'mip1beta'
p2773
aS'shh-gli'
p2774
aS'myelogen'
p2775
aS'preclin'
p2776
aS'ester'
p2777
aS'cytometri'
p2778
aS'danish'
p2779
aS'higher'
p2780
aS'optic'
p2781
aS'mofetil'
p2782
aS'painless'
p2783
aS'wherea'
p2784
aS'temporari'
p2785
aS'fatti'
p2786
aS'inflam'
p2787
aS'p=0.000001'
p2788
aS'robust'
p2789
aS'factor-alpha'
p2790
aS'typic'
p2791
aS'focal'
p2792
aS'recent'
p2793
aS'febuxostat,'
p2794
aS'gsp'
p2795
aS'lower'
p2796
aS'task'
p2797
aS'mutation-neg'
p2798
aS'calbindin-d9k'
p2799
aS'discourag'
p2800
aS'older'
p2801
aS'entri'
p2802
aS'poland'
p2803
aS'butyr'
p2804
aS'1.2-6.2'
p2805
aS'5.85'
p2806
aS'person'
p2807
aS'anti-inflammatori'
p2808
aS'expens'
p2809
aS'elev'
p2810
aS'swiss'
p2811
aS'15452658t'
p2812
aS'dose-depend'
p2813
aS'leber'
p2814
aS'propos'
p2815
aS'explan'
p2816
aS'rs1048661'
p2817
aS'hbf'
p2818
aS'763'
p2819
aS'bilater'
p2820
aS'ldl'
p2821
aS'effector'
p2822
aS'administ'
p2823
aS'0.0001'
p2824
aS'taiwan'
p2825
aS'33243301g'
p2826
aS'heterozygos'
p2827
aS'2.1-'
p2828
aS'predomin'
p2829
aS'tablet'
p2830
aS'periodont'
p2831
aS'stimul'
p2832
aS'relief'
p2833
aS'first-lin'
p2834
aS'cml,'
p2835
aS'indirect'
p2836
aS'lys751gln'
p2837
aS'subsequ'
p2838
aS'zidovudin'
p2839
aS'hsp90beta'
p2840
aS'complaint'
p2841
aS'gvhd'
p2842
aS'format'
p2843
aS'glutam'
p2844
aS'i/r-induc'
p2845
aS'molecul'
p2846
aS'3.67'
p2847
aS'characterist'
p2848
aS'analogu'
p2849
aS'peripher'
p2850
aS'knock'
p2851
aS'nonproduct'
p2852
aS'd'
p2853
aS'1.39-9.74'
p2854
aS'spine'
p2855
aS'signal'
p2856
aS'rehabilit'
p2857
aS'conclusion:'
p2858
aS'manifest'
p2859
aS'collect'
p2860
aS'recalcitr'
p2861
aS'bladder,'
p2862
aS'rheumatoid'
p2863
aS'3-oxo-1,1-diphenyl-tetrahydro-oxazolo'
p2864
aS'twenty-thre'
p2865
aS'apl'
p2866
aS'epidemiolog'
p2867
aS'coliti'
p2868
aS'acknowledg'
p2869
aS'pulsed-field'
p2870
aS's1p'
p2871
aS'rs579543'
p2872
aS'90-100'
p2873
aS'mhc'
p2874
aS'metabolit'
p2875
aS'strongest'
p2876
aS'1-methyl-4-phenyl-1,2,3,6-tetrahydropyridin'
p2877
aS'sampl'
p2878
aS'acrylamid'
p2879
aS'3.0'
p2880
aS'gjb2'
p2881
aS'surpris'
p2882
aS'syndrom'
p2883
aS'p=0.011'
p2884
aS'analges'
p2885
aS'and/or'
p2886
aS'resect'
p2887
aS'nilotinib'
p2888
aS'5.7-fold'
p2889
aS'inla'
p2890
aS't393'
p2891
aS'mthfr'
p2892
aS'per'
p2893
aS'8-iso-'
p2894
aS'i.v.'
p2895
aS'larg'
p2896
aS'xrcc4'
p2897
aS'bloodi'
p2898
aS'reproduc'
p2899
aS'neurostimul'
p2900
aS'srage'
p2901
aS'samp8'
p2902
aS'3-kinase-lik'
p2903
aS'sulfate-induc'
p2904
aS'patient'
p2905
aS'bc'
p2906
aS'300'
p2907
aS'example,'
p2908
aS'305'
p2909
aS'oxytocin-induc'
p2910
aS'cochran'
p2911
aS'bp'
p2912
aS'bs'
p2913
aS'propriocept'
p2914
aS'biomark'
p2915
aS'impos'
p2916
aS'parenchym'
p2917
aS'prove'
p2918
aS'elucid'
p2919
aS'materi'
p2920
aS'memori'
p2921
aS'matern'
p2922
aS'immunosuppress'
p2923
aS'leukaemia'
p2924
aS'percent'
p2925
aS'regular'
p2926
aS'ptcl2'
p2927
aS'modal'
p2928
aS'chi'
p2929
aS'bsh'
p2930
aS'prostat'
p2931
aS'gamma'
p2932
aS'ida'
p2933
aS'anterior'
p2934
aS'repair'
p2935
aS'sulfat'
p2936
aS'antisens'
p2937
aS'noninfecti'
p2938
aS'within'
p2939
aS'locus'
p2940
aS'82.3'
p2941
aS'contributor'
p2942
aS'cdk9'
p2943
aS'seen'
p2944
aS'mmp-3'
p2945
aS'span'
p2946
aS'subcellular'
p2947
aS'question'
p2948
aS'msm'
p2949
aS'long'
p2950
aS'xpd'
p2951
aS'1.53'
p2952
aS'adjac'
p2953
aS'adenocarcinoma'
p2954
aS'includ'
p2955
aS'1.54'
p2956
aS'epitheli'
p2957
aS'tet-oper'
p2958
aS'sinai'
p2959
aS'cab45'
p2960
aS'retino'
p2961
aS'haplotype-transmiss'
p2962
aS'gonadotropin-releas'
p2963
aS'wnk'
p2964
aS'teratogen'
p2965
aS'mfn1'
p2966
aS'link'
p2967
aS'wnt'
p2968
aS'cytotox'
p2969
aS'sun'
p2970
aS'pharmacolog'
p2971
aS'mitig'
p2972
aS'intoler'
p2973
aS'consist'
p2974
aS'ala394thr'
p2975
aS'uv'
p2976
aS'cin'
p2977
aS'us'
p2978
aS'utr'
p2979
aS'cryoglobulinaemia'
p2980
aS'thiazide-sensit'
p2981
aS'rnai'
p2982
aS'drb'
p2983
aS'ud'
p2984
aS'haplotyp'
p2985
aS'similar'
p2986
aS'x-ray'
p2987
aS'malic'
p2988
aS'curv'
p2989
aS'cryptococc'
p2990
aS'estrogen'
p2991
aS'tomographi'
p2992
aS'metal'
p2993
aS'p190rhogap'
p2994
aS'fluenci'
p2995
aS'repres'
p2996
aS'1.6-4.8'
p2997
aS'p=0.00006'
p2998
aS'pyridoxin'
p2999
aS'aggrav'
p3000
aS'lyn'
p3001
aS'hospit'
p3002
aS'spontan'
p3003
aS'enterocyt'
p3004
aS'crisi'
p3005
aS'ag/'
p3006
aS'double-blind'
p3007
aS'sequenti'
p3008
aS'p2281'
p3009
aS'enpp'
p3010
aS'ns-398'
p3011
aS'nich'
p3012
aS'bzd'
p3013
aS'librari'
p3014
aS'3.27'
p3015
aS'trait'
p3016
aS'ferment'
p3017
aS'receptor-depend'
p3018
aS'eshap'
p3019
aS'vegf-induc'
p3020
aS'contracept'
p3021
aS'neutrophil'
p3022
aS'evas'
p3023
aS'granulocyte-macrophag'
p3024
aS'trans-'
p3025
aS'tubul'
p3026
aS'thr241met'
p3027
aS'permeabil'
p3028
aS'inflamm'
p3029
aS'enzym'
p3030
aS'propofol'
p3031
aS'sphingosine-1-phosph'
p3032
aS'602i'
p3033
aS'fistul'
p3034
aS'e'
p3035
aS'algorithm'
p3036
aS'antimetabolites,'
p3037
aS'ocular'
p3038
aS'lpc'
p3039
aS'age'
p3040
aS'remit'
p3041
aS'flt3'
p3042
aS'bgli'
p3043
aS'asthma-rel'
p3044
aS'transient'
p3045
aS'2006'
p3046
aS'2007'
p3047
aS'2008'
p3048
aS'602s'
p3049
aS'svr'
p3050
aS'munc18b'
p3051
aS'munc18a'
p3052
aS'dystrophy,'
p3053
aS'code'
p3054
aS'partial'
p3055
aS'serser'
p3056
aS'stx2'
p3057
aS'gg'
p3058
aS'gc'
p3059
aS'carious'
p3060
aS'ga'
p3061
aS'r=-0.30'
p3062
aS'mri'
p3063
aS'cognit'
p3064
aS'gi'
p3065
aS'gh'
p3066
aS'epidur'
p3067
aS'neoadjuv'
p3068
aS'selikoff'
p3069
aS'sensit'
p3070
aS'osteoporosi'
p3071
aS'young'
p3072
aS'0.047'
p3073
aS'fragmentation,'
p3074
aS'kinases,'
p3075
aS'interleukin-1beta'
p3076
aS'becam'
p3077
aS'fatal'
p3078
aS'chemokin'
p3079
aS'deficit'
p3080
aS'passiv'
p3081
aS'overgrowth'
p3082
aS'papillari'
p3083
aS'assay'
p3084
aS'polysynov'
p3085
aS'disclos'
p3086
aS'lysosom'
p3087
aS'0.0019'
p3088
aS'mous'
p3089
aS'1h-indene-2-carboxyl'
p3090
aS'volum'
p3091
aS'cellular'
p3092
aS'neurodevelopment'
p3093
aS'g,'
p3094
aS'relev'
p3095
aS'nausea'
p3096
aS'6.07'
p3097
aS'loxl1'
p3098
aS'single-centr'
p3099
aS'nptn'
p3100
aS'stiff'
p3101
aS'harbor'
p3102
aS'gender'
p3103
aS'array'
p3104
aS'shock'
p3105
aS'stratifi'
p3106
aS'gm-csf'
p3107
aS'2.20'
p3108
aS'atpases,'
p3109
aS'2.26'
p3110
aS'nanocapsul'
p3111
aS'impli'
p3112
aS'smaller'
p3113
aS'age-related,'
p3114
aS'crow'
p3115
aS'hepatocellular'
p3116
aS'kampot'
p3117
aS'oxcarbazepin'
p3118
aS'chemotherapeut'
p3119
aS'vaccin'
p3120
aS'acini'
p3121
aS'acid'
p3122
aS'odd'
p3123
aS'elisa'
p3124
aS'kinas'
p3125
aS'index'
p3126
aS'undetect'
p3127
aS'nod2-depend'
p3128
aS'compar'
p3129
aS'receptor-medi'
p3130
aS'indomethacin-load'
p3131
aS'parallel-group'
p3132
aS'rtx'
p3133
aS'cell'
p3134
aS'experiment'
p3135
aS'covariables,'
p3136
aS'rs2305160'
p3137
aS'anticoagul'
p3138
aS'homolog'
p3139
aS'shu9119'
p3140
aS'deduc'
p3141
aS'692'
p3142
aS'led'
p3143
aS'lepra'
p3144
aS'c-abl'
p3145
aS'usag'
p3146
aS'bp-regul'
p3147
aS'adma'
p3148
aS'bodi'
p3149
aS'recombinant-'
p3150
aS'radiolabel'
p3151
aS'placebo-control'
p3152
aS'sinc'
p3153
aS'shellfish'
p3154
aS'transmembran'
p3155
aS'39'
p3156
aS'northern'
p3157
aS'survivor'
p3158
aS'drs.'
p3159
aS'topoisomeras'
p3160
aS'angiogenesis,'
p3161
aS'30'
p3162
aS'37'
p3163
aS'host'
p3164
aS'34'
p3165
aS'stomal'
p3166
aS'converg'
p3167
aS'fluoroscop'
p3168
aS'upper'
p3169
aS'insulin'
p3170
aS'3-'
p3171
aS'3,'
p3172
aS'dopamin'
p3173
aS'chang'
p3174
aS'gene'
p3175
aS'explain'
p3176
aS'chanc'
p3177
aS'interactions,'
p3178
aS'employe'
p3179
aS'causat'
p3180
aS'inhibitors,'
p3181
aS'mitochondri'
p3182
aS'approxim'
p3183
aS'4-trifluoromethylphenyl'
p3184
aS'67.9'
p3185
aS'i/ii'
p3186
aS'pxn'
p3187
aS'lt-e'
p3188
aS'taper'
p3189
aS'3,4-a'
p3190
aS'over-repres'
p3191
aS'use'
p3192
aS'chd'
p3193
aS'non-small-cel'
p3194
aS'1.13-3.42'
p3195
aS'cancers:'
p3196
aS'implic'
p3197
aS'rs2108622,'
p3198
aS'ex6-14g'
p3199
aS'stage'
p3200
aS'remaind'
p3201
aS'neurotransmitt'
p3202
aS't-allel'
p3203
aS'bcrp'
p3204
aS'l849h'
p3205
aS'src'
p3206
aS'cryopreserv'
p3207
aS'41.4'
p3208
aS'mismatch'
p3209
aS'0.4'
p3210
aS'trail'
p3211
aS'train'
p3212
aS'nitazoxanide,'
p3213
aS'hypopharyng'
p3214
aS'8'
p3215
aS'xrcc1'
p3216
aS'xrcc3'
p3217
aS'iii'
p3218
aS'gstp1-105'
p3219
aS'xrcc7'
p3220
aS'women'
p3221
aS'histopatholog'
p3222
aS'account'
p3223
aS'homeobox'
p3224
aS'augment'
p3225
aS'f'
p3226
aS'critic'
p3227
aS'0.035'
p3228
aS'celiac'
p3229
aS'wild-typ'
p3230
aS'238'
p3231
aS'inhibitor'
p3232
aS'importantly,'
p3233
aS'control'
p3234
aS'malform'
p3235
aS'camptothecin'
p3236
aS'e.g.'
p3237
aS'process'
p3238
aS'0.2'
p3239
aS'calcul'
p3240
aS'acn'
p3241
aS'high'
p3242
aS'macaca'
p3243
aS'tag'
p3244
aS'met1thr'
p3245
aS'eno'
p3246
aS'tac'
p3247
aS'sought'
p3248
aS'gca'
p3249
aS'sir'
p3250
aS'surfac'
p3251
aS'siv'
p3252
aS'bcr-abl'
p3253
aS'uncorrect'
p3254
aS'six'
p3255
aS'occur'
p3256
aS'transgen'
p3257
aS'resiniferatoxin'
p3258
aS'venous'
p3259
aS'isogenic-pair'
p3260
aS'convers'
p3261
aS'h2ax'
p3262
aS'low-grad'
p3263
aS'lesion'
p3264
aS'inhal'
p3265
aS'attend'
p3266
aS'o26'
p3267
aS'stop'
p3268
aS'mg132'
p3269
aS'prolin'
p3270
aS'leukemia'
p3271
aS'hazard'
p3272
aS'ca2+'
p3273
aS'unidentifi'
p3274
aS'attent'
p3275
aS'attenu'
p3276
aS'trans-platinum'
p3277
aS'marrow'
p3278
aS'peginterferon'
p3279
aS'nps'
p3280
aS'viremia'
p3281
aS'classic-i'
p3282
aS'drosha'
p3283
aS'dexrazoxan'
p3284
aS'949'
p3285
aS'bind'
p3286
aS'counter'
p3287
aS'pro47ser'
p3288
aS'element'
p3289
aS'issu'
p3290
aS'p=0.036'
p3291
aS'allow'
p3292
aS'subtyp'
p3293
aS'activation/inflammatori'
p3294
aS'elig'
p3295
aS'a/b'
p3296
aS'syndecan'
p3297
aS'hand,'
p3298
aS'innat'
p3299
aS'insight'
p3300
aS'vector-bas'
p3301
aS'whilst'
p3302
aS'non-smok'
p3303
aS'135'
p3304
aS'sedentari'
p3305
aS'aortic'
p3306
aS'thyroidectomi'
p3307
aS'138'
p3308
aS'1.83'
p3309
aS'delay'
p3310
aS'du'
p3311
aS'outer'
p3312
aS'gram-posit'
p3313
aS'tsh'
p3314
aS'oropharyng'
p3315
aS'mek'
p3316
aS'mellitus'
p3317
aS'a7,445g'
p3318
aS'6.39'
p3319
aS'decad'
p3320
aS'therefor'
p3321
aS'preval'
p3322
aS'h1'
p3323
aS'sarcoidosi'
p3324
aS'greater'
p3325
aS'munc18b,'
p3326
aS'overal'
p3327
aS'inocul'
p3328
aS'glycopeptide,'
p3329
aS'facilit'
p3330
aS'h.'
p3331
aS'pouchiti'
p3332
aS'50-k'
p3333
aS'day'
p3334
aS'allograft'
p3335
aS'gli2'
p3336
aS'pressure-low'
p3337
aS'h+'
p3338
aS'tran'
p3339
aS'demethyl'
p3340
aS'medlin'
p3341
aS'rs2198843'
p3342
aS'telomeras'
p3343
aS'mode'
p3344
aS'receptor'
p3345
aS'hcnp'
p3346
aS'opiat'
p3347
aS'ultrasound-guid'
p3348
aS'gtpase-activ'
p3349
aS'p53-/-'
p3350
aS'flavopiridol'
p3351
aS'fibronectin'
p3352
aS'hli'
p3353
aS'endocytosi'
p3354
aS'statin'
p3355
aS'80'
p3356
aS'patch'
p3357
aS'special'
p3358
aS'2.35'
p3359
aS'men,'
p3360
aS'matrix'
p3361
aS'influenc'
p3362
aS'phosphoryl'
p3363
aS'proteinosi'
p3364
aS'ret'
p3365
aS'repress'
p3366
aS'remiss'
p3367
aS'prednisone-spar'
p3368
aS'vincristine/prednison'
p3369
aS'2-methyl4-'
p3370
aS'sever'
p3371
aS'15.10'
p3372
aS'xeroderma'
p3373
aS'postmenopaus'
p3374
aS'8-iso-pgf'
p3375
aS'top2beta-conc'
p3376
aS'rpla'
p3377
aS'clarifi'
p3378
aS'regulatori'
p3379
aS'southern'
p3380
aS'finger-lik'
p3381
aS'colorectum'
p3382
aS'lysophosphatidylcholin'
p3383
aS'haplotypes/diplotyp'
p3384
aS'thp-1'
p3385
aS'randomis'
p3386
aS'angiographi'
p3387
aS'york'
p3388
aS'bioavail'
p3389
aS'releas'
p3390
aS'rhoa'
p3391
aS'bleed'
p3392
aS'galpha'
p3393
aS'intermediate-or'
p3394
aS'neuromotor'
p3395
aS'resistance-associ'
p3396
aS'g'
p3397
aS'xpg'
p3398
aS'could'
p3399
aS'ltx'
p3400
aS'bird'
p3401
aS'length'
p3402
aS'infertil'
p3403
aS'51.49'
p3404
aS'colitis-associ'
p3405
aS'mortal'
p3406
aS'gleevec'
p3407
aS'retain'
p3408
aS'ependymoma'
p3409
aS'south'
p3410
aS'endors'
p3411
aS'complete-'
p3412
aS'pyrazine-7-carboxyl'
p3413
aS'd2/d3'
p3414
aS'gsalpha'
p3415
aS'ethnic'
p3416
aS'qualiti'
p3417
aS'455'
p3418
aS'conclud'
p3419
aS'ms-275'
p3420
aS'date'
p3421
aS'fluoresc'
p3422
aS'down-regulatori'
p3423
aS'pgp'
p3424
aS'fpgs,'
p3425
aS'drinker'
p3426
aS'cotreat'
p3427
aS'facil'
p3428
aS'warsaw,'
p3429
aS'monkey'
p3430
aS'ikkbeta'
p3431
aS'serotyp'
p3432
aS'assay,'
p3433
aS'habit'
p3434
aS'system'
p3435
aS'attach'
p3436
aS'anaemia'
p3437
aS'termin'
p3438
aS'biochem'
p3439
aS'final'
p3440
aS'pathogen'
p3441
aS'prone'
p3442
aS'tyrosin'
p3443
aS'hyperendem'
p3444
aS'theoriz'
p3445
aS'bsh,'
p3446
aS'indomethacin'
p3447
aS'stress'
p3448
aS'sj\xc3\xb6gren'
p3449
aS'migrain'
p3450
aS'bcl2'
p3451
aS'accompani'
p3452
aS'tissu'
p3453
aS'methotrex'
p3454
aS'cxcl'
p3455
aS'essenti'
p3456
aS'lenalidomid'
p3457
aS'pouch-an'
p3458
aS'plk-1'
p3459
aS'glutathion'
p3460
aS'non-melanoma'
p3461
aS'2.9'
p3462
aS'structur'
p3463
aS'adhesion/migration,'
p3464
aS'o157'
p3465
aS'rituximab/cyclophosphamide/doxorubicin/'
p3466
aS'congenit'
p3467
aS'india'
p3468
aS'7178189a'
p3469
aS'exhibit'
p3470
aS'function'
p3471
aS'1.7'
p3472
aS'1.2'
p3473
aS'gout'
p3474
aS'ringer'
p3475
aS'31,'
p3476
aS'1.8'
p3477
aS'dipyrimidin'
p3478
aS'irrit'
p3479
aS'wc26'
p3480
aS'coher'
p3481
aS'2.2'
p3482
aS'need'
p3483
aS'thr256ser'
p3484
aS'azoxymethan'
p3485
aS'screw'
p3486
aS'preterm'
p3487
aS'formation,'
p3488
aS'hbs1l-myb'
p3489
aS'septat'
p3490
aS'rout'
p3491
aS'il-10'
p3492
aS'uptak'
p3493
aS'mix'
p3494
aS'il-1,'
p3495
aS'326'
p3496
aS'2.5'
p3497
aS'prospective-observ'
p3498
aS'coxsacki'
p3499
aS'1.30'
p3500
aS'1.31'
p3501
aS'phenotyp'
p3502
aS'olfactori'
p3503
aS'divers'
p3504
aS'singl'
p3505
aS'deposit'
p3506
aS'preliminari'
p3507
aS'rs2228570'
p3508
aS'rituximab/cyclophosphamide/doxorubicin/vincristine/'
p3509
aS'9-hydroxyrisperidon'
p3510
aS'zygomycosis,'
p3511
aS'slit-lamp'
p3512
aS'eight'
p3513
aS'atherosclerot'
p3514
aS'conjunctiv'
p3515
aS'flt3-itd,'
p3516
aS'corneal'
p3517
aS'transcript'
p3518
aS'class'
p3519
aS'putat'
p3520
aS'9'
p3521
aS'azoxymethane/'
p3522
aS'8-iso-prostaglandin'
p3523
aS'affymetrix'
p3524
aS'counteract'
p3525
aS'monotherapi'
p3526
aS'il-1r'
p3527
aS'hh'
p3528
aS'epithelium'
p3529
aS'amg0347'
p3530
aS'diffus'
p3531
aS'univari'
p3532
aS'determin'
p3533
aS'c282y/h63d'
p3534
aS'fact'
p3535
aS'recess'
p3536
aS'time-depend'
p3537
aS'6.4+/-1.3'
p3538
aS'borderlin'
p3539
aS'cd20'
p3540
aS'affin'
p3541
aS'cannabinoid'
p3542
aS'ccnu'
p3543
aS'furthermore,'
p3544
aS'neurotoxin'
p3545
aS'dbp'
p3546
aS'seizur'
p3547
aS'bicycl'
p3548
aS'mtt'
p3549
aS'illumina'
p3550
aS'c677t'
p3551
aS'varic'
p3552
aS'mono-'
p3553
aS'prolong'
p3554
aS'p=0.025'
p3555
aS'sn-38-induc'
p3556
aS'arabian'
p3557
aS'12.6/7.1'
p3558
aS'p=0.022'
p3559
aS'microm'
p3560
aS'motifs,'
p3561
aS'p=0.028'
p3562
aS'p=0.029'
p3563
aS'hope'
p3564
aS'ubc9'
p3565
aS'crosstalk'
p3566
aS'lyr-71'
p3567
aS'contribut'
p3568
aS'epidermoid'
p3569
aS'bmax=0.56'
p3570
aS'sr-b'
p3571
aS'120'
p3572
aS'joint'
p3573
aS'123'
p3574
aS'epiderm'
p3575
aS'increas'
p3576
aS'anticanc'
p3577
aS'photographi'
p3578
aS'antagonist'
p3579
aS'abcg2'
p3580
aS'enabl'
p3581
aS'organ'
p3582
aS'sub-clin'
p3583
aS'sp.'
p3584
aS'h'
p3585
aS'gbm'
p3586
aS'design/pati'
p3587
aS'receptor-'
p3588
aS'sha'
p3589
aS'li-fraumeni'
p3590
aS'integr'
p3591
aS'contain'
p3592
aS'karnofski'
p3593
aS'fetal'
p3594
aS'oxathiol-4-on'
p3595
aS'atra'
p3596
aS'cocultur'
p3597
aS'solubl'
p3598
aS'1.01-6.56'
p3599
aS'testosteron'
p3600
aS'sp.,'
p3601
aS'p=0.006'
p3602
aS'139'
p3603
aS'polymorph'
p3604
aS'ligand,'
p3605
aS'oligonucleotid'
p3606
aS'fcgiiia'
p3607
aS'nucleas'
p3608
aS'nuclear'
p3609
aS'bactericid'
p3610
aS'proteasom'
p3611
aS'state'
p3612
aS'physiolog'
p3613
aS'unravel'
p3614
aS'cg+gg'
p3615
aS'sonograph'
p3616
aS'progress'
p3617
aS'neither'
p3618
aS'complement'
p3619
aS'mitogen-activ'
p3620
aS'alveolar'
p3621
aS'ddx40'
p3622
aS'patholog'
p3623
aS'superior'
p3624
aS'snps'
p3625
aS'attempt'
p3626
aS'streptococci'
p3627
aS'presynapt'
p3628
aS'coval'
p3629
aS'entir'
p3630
aS'key'
p3631
aS'subgroup'
p3632
aS'5q-'
p3633
aS'p2x'
p3634
aS'addit'
p3635
aS'tlr'
p3636
aS'anti-murin'
p3637
aS'large-scal'
p3638
aS'i/ii,'
p3639
aS'drug'
p3640
aS'migration,'
p3641
aS'wt'
p3642
aS'1.64-6.54'
p3643
aS'p2x7'
p3644
aS'placebo'
p3645
aS'et-1'
p3646
aS'ci'
p3647
aS'unclear'
p3648
aS'cc'
p3649
aS'guidelin'
p3650
aS'pulmonari'
p3651
aS'thr241met,'
p3652
aS'cg'
p3653
aS'dipropion'
p3654
aS'ce'
p3655
aS'cd'
p3656
aS'quinpirol'
p3657
aS'distinguish'
p3658
aS'inflammatori'
p3659
aS'boiss'
p3660
aS'respect'
p3661
aS'rosiglitazon'
p3662
aS'ct'
p3663
aS'8.0'
p3664
aS'emesi'
p3665
aS'i.e.'
p3666
aS'pin'
p3667
aS'8-year'
p3668
aS'timp-1'
p3669
aS'8-week'
p3670
aS'bbb'
p3671
aS'compon'
p3672
aS'ppargamma-depend'
p3673
aS'besid'
p3674
aS'treat'
p3675
aS'rs7538490'
p3676
aS'immedi'
p3677
aS'peroxisom'
p3678
aS'flt3/wt'
p3679
aS'a1650g'
p3680
aS'xpd-751'
p3681
aS'vancomycin-resist'
p3682
aS'8-year-old'
p3683
aS'presenc'
p3684
aS'lymphoid'
p3685
aS'normocholesterolem'
p3686
aS'thromboembol'
p3687
aS'nc'
p3688
aS'thrombosi'
p3689
aS'synthas'
p3690
aS'efflux'
p3691
aS't-c-a'
p3692
aS'togeth'
p3693
aS'ng/ml'
p3694
aS'dysmotil'
p3695
aS'sbp'
p3696
aS'antagon'
p3697
aS'roab12,'
p3698
aS'c6'
p3699
aS'present'
p3700
aS'statist'
p3701
aS'diabetes,'
p3702
aS'replic'
p3703
aS't-g-t'
p3704
aS'novel'
p3705
aS'rs731236'
p3706
aS'cyclophosphamid'
p3707
aS'1.04-1.52'
p3708
aS'asp62his,'
p3709
aS'defin'
p3710
aS'cvl'
p3711
aS'kbm-5'
p3712
aS'rs706778,'
p3713
aS'centr'
p3714
aS'cox'
p3715
aS'wild'
p3716
aS'il-22r1'
p3717
aS'nephrotox'
p3718
aS'sirna'
p3719
aS'observ'
p3720
aS'studies,'
p3721
aS'va'
p3722
aS'mutant'
p3723
aS'motif'
p3724
aS'file'
p3725
aS'p75-fc'
p3726
aS'almost'
p3727
aS'alon'
p3728
aS'neuron'
p3729
aS'thus'
p3730
aS'site'
p3731
aS'vs'
p3732
aS'substanti'
p3733
aS'68.3'
p3734
aS'partner'
p3735
aS'situ'
p3736
aS'tumorigenesis,'
p3737
aS'bioactiv'
p3738
aS'cohort'
p3739
aS'mutat'
p3740
aS'striatal'
p3741
aS'japanes'
p3742
aS'il-1ra'
p3743
aS'antibiot'
p3744
aS'cross'
p3745
aS'sirolimus'
p3746
aS'thyrotropin'
p3747
aS'cypa'
p3748
aS'mononeur'
p3749
aS'mrp1'
p3750
aS'outbreak'
p3751
aS'sclerosi'
p3752
aS'probabl'
p3753
aS'co-regul'
p3754
aS'nephropathies,'
p3755
aS'coronari'
p3756
aS'competit'
p3757
aS'immuno-histochem'
p3758
aS'hypersensit'
p3759
aS'heterozyg'
p3760
aS'myocardi'
p3761
aS'balf'
p3762
aS'1-3'
p3763
aS'drink'
p3764
aS'upon'
p3765
aS'effect'
p3766
aS'phd'
p3767
aS'immunomodulatori'
p3768
aS'ion'
p3769
aS'v2'
p3770
aS'igf1'
p3771
aS'arg280his,'
p3772
aS'beij'
p3773
aS'student'
p3774
aS'dust'
p3775
aS'sunburn'
p3776
aS'varicella-zost'
p3777
aS'expand'
p3778
aS'arg194trp'
p3779
aS'dyspnoea,'
p3780
aS'center'
p3781
aS'oxidase-induc'
p3782
aS'reuptak'
p3783
aS'nevertheless'
p3784
aS'up-regul'
p3785
aS'well'
p3786
aS'thought'
p3787
aS'likewis'
p3788
aS'exampl'
p3789
aS'cation-chlorid'
p3790
aS'47'
p3791
aS'undertaken'
p3792
aS'glial'
p3793
aS'1.26'
p3794
aS'sibl'
p3795
aS'usual'
p3796
aS'sporad'
p3797
aS'tnfalpha'
p3798
aS'high-risk'
p3799
aS'less'
p3800
aS'compel'
p3801
aS'obtain'
p3802
aS'dose'
p3803
aS'clinic'
p3804
aS'non-cn'
p3805
aS'shuttl'
p3806
aS'episod'
p3807
aS'abolish'
p3808
aS'ex9+5c'
p3809
aS'open-angl'
p3810
aS'rapid'
p3811
aS'tight'
p3812
aS'point'
p3813
aS'golgi'
p3814
aS'valacyclovir'
p3815
aS'or=0.61'
p3816
aS'cultur'
p3817
aS'thrombot'
p3818
aS'5-fluorouracil-induc'
p3819
aS'281'
p3820
aS'multidrug-resist'
p3821
aS'warrant'
p3822
aS'match'
p3823
aS'sonic'
p3824
aS'kidney'
p3825
aS'driver'
p3826
aS'vysi'
p3827
aS'stx2vha'
p3828
aS'five'
p3829
aS'burden'
p3830
aS'pressur'
p3831
aS'recurr'
p3832
aS'acta,'
p3833
aS'alkyloid'
p3834
aS'loss'
p3835
aS'resid'
p3836
aS'like'
p3837
aS'success'
p3838
aS'rs11594656'
p3839
aS'ring'
p3840
aS'ostia'
p3841
aS'arg399gln'
p3842
aS'mdck'
p3843
aS'under-repres'
p3844
aS'p=0.012'
p3845
aS'necessari'
p3846
aS'journalist'
p3847
aS'2259'
p3848
aS'hepatobiliari'
p3849
aS'p=0.018'
p3850
aS'c1p'
p3851
aS'microg/kg'
p3852
aS'conven'
p3853
aS'drop'
p3854
aS'antiemet'
p3855
aS'rs739837'
p3856
aS'drug,'
p3857
aS'g/kg'
p3858
aS'hair'
p3859
aS'growth'
p3860
aS'imatinib'
p3861
aS'transcriptas'
p3862
aS'home'
p3863
aS'transport'
p3864
aS'npsr'
p3865
aS'2c9'
p3866
aS'lead'
p3867
aS'neurotrop'
p3868
aS'avoid'
p3869
aS'results:'
p3870
aS'pituitary-adren'
p3871
aS'churg,'
p3872
aS'n=20'
p3873
aS'rs563649'
p3874
aS'estim'
p3875
aS'prefectur'
p3876
aS'estradiol'
p3877
aS'septohippocamp'
p3878
aS'cleavag'
p3879
aS'aspart'
p3880
aS'encourag'
p3881
aS'investig'
p3882
aS'lipid'
p3883
aS'ecstasy/cannabi'
p3884
aS'ident'
p3885
aS'euthyroid'
p3886
aS'rs13706'
p3887
aS'metalloproteinase,'
p3888
aS'obes'
p3889
aS'parasit'
p3890
aS'p38'
p3891
aS'caspas'
p3892
aS'somat'
p3893
aS'although'
p3894
aS'preferenti'
p3895
aS'skelet'
p3896
aS'vs.'
p3897
aS'panel'
p3898
aS'eef2k'
p3899
aS'22.9'
p3900
aS'rare'
p3901
aS'world'
p3902
aS'node-neg'
p3903
aS'pikk'
p3904
aS'autocrin'
p3905
aS'carrier'
p3906
aS'myeloid'
p3907
aS'overweight,'
p3908
aS'1,'
p3909
aS'non-hodgkin'
p3910
aS'alfa-2a'
p3911
aS'embryon'
p3912
aS'predictor'
p3913
aS'23.8'
p3914
aS'subset'
p3915
aS'owe'
p3916
aS'p=0.019'
p3917
aS'advanced-stag'
p3918
aS'h6'
p3919
aS'acuiti'
p3920
aS'assess'
p3921
aS'chronic'
p3922
aS'autosom'
p3923
aS'lung'
p3924
aS'mor-1k'
p3925
aS'h,'
p3926
aS'disomi'
p3927
aS'tlr-induc'
p3928
aS'1986'
p3929
aS'2.57'
p3930
aS'rs12198173'
p3931
aS'transfer'
p3932
aS'5t5t'
p3933
aS'carbohydr'
p3934
aS'trigger'
p3935
aS'thr/thr'
p3936
aS'anxiety/depress'
p3937
aS'meperidine/'
p3938
aS'eg'
p3939
aS'adher'
p3940
aS'deliveri'
p3941
aS'flt3/itd+'
p3942
aS'folr1,'
p3943
aS'north'
p3944
aS'addition,'
p3945
aS'unexpect'
p3946
aS'hr'
p3947
aS'i.e.,'
p3948
aS'strictur'
p3949
aS'progenitor'
p3950
aS'ht'
p3951
aS'gait'
p3952
aS'knockdown'
p3953
aS'neutral'
p3954
aS'ptk2'
p3955
aS'gain'
p3956
aS'intratumor'
p3957
aS'hc'
p3958
aS'eas'
p3959
aS'intermediate-'
p3960
aS'84.5'
p3961
aS'count'
p3962
aS'made'
p3963
aS'flt3/tkd+'
p3964
aS'displac'
p3965
aS'whether'
p3966
aS'snp-chip'
p3967
aS'virus/'
p3968
aS'aldh2'
p3969
aS'record'
p3970
aS'pathognomon'
p3971
aS'limit'
p3972
aS'single-nucleotid'
p3973
aS'anosm'
p3974
aS'asp1104asp'
p3975
aS'problem'
p3976
aS'synerg'
p3977
aS'display'
p3978
aS'2,3,7,8-tetrachlorodibenzo-p-dioxin'
p3979
aS'phenoxi'
p3980
aS'evalu'
p3981
aS'dure'
p3982
aS'epec'
p3983
aS'urat'
p3984
aS'circul'
p3985
aS'lncap'
p3986
aS'under-transmiss'
p3987
aS'girl'
p3988
aS'flt3/itd'
p3989
aS'tibolon'
p3990
aS'ribavirin'
p3991
aS'48'
p3992
aS'r-chop'
p3993
aS'45'
p3994
aS'42'
p3995
aS'treatment'
p3996
aS'40'
p3997
aS'41'
p3998
aS'tetracycl'
p3999
aS'4-'
p4000
aS'2001-2003'
p4001
aS'futur'
p4002
aS'sick'
p4003
aS'varieti'
p4004
aS'u'
p4005
aS'or=8'
p4006
aS'flt-1'
p4007
aS'variabl'
p4008
aS'spp.'
p4009
aS'nsaid'
p4010
aS'12-week'
p4011
aS'48-week'
p4012
aS'neuroblastoma'
p4013
aS'g2677t/a'
p4014
aS'june'
p4015
aS'community-acquir'
p4016
aS'or=0.48'
p4017
aS'rs2395029,'
p4018
aS'log'
p4019
aS'24,000'
p4020
aS'absorpt'
p4021
aS'c3435t'
p4022
aS'gap'
p4023
aS'laparoscop'
p4024
aS'vein'
p4025
aS'experienc'
p4026
aS'finally,'
p4027
aS'peptid'
p4028
aS'pathophysiolog'
p4029
aS'hly,'
p4030
aS'aa/ag'
p4031
aS'portion'
p4032
aS'emerg'
p4033
aS'pupil'
p4034
aS'trial,'
p4035
aS'shg-44'
p4036
aS'chemosensit'
p4037
atp4038
Rp4039
.