c__builtin__
set
p0
((lp1
I24489984
aI24489985
aI24654507
aI24489988
aI24565767
aI24565768
aI24565770
aI24516951
aI24565773
aI24565774
aI24518659
aI24564058
aI24475678
aI24482982
aI24475680
aI24475683
aI24520740
aI24475685
aI24528934
aI24528935
aI24520748
aI24564061
aI24520754
aI24520755
aI24649780
aI24649782
aI24649783
aI24649785
aI24649786
aI24475686
aI24470094
aI24649793
aI24474025
aI24559684
aI24485958
aI24649799
aI24617035
aI24617037
aI24617040
aI24485975
aI24772696
aI24482986
aI24485979
aI24696924
aI24772701
aI24772702
aI24772707
aI24772709
aI24564410
aI24772716
aI24479290
aI24689683
aI24772726
aI24590455
aI24772729
aI24600698
aI24373371
aI24772733
aI24600703
aI24772738
aI24772739
aI24772740
aI24481927
aI24481928
aI24481929
aI24481930
aI24772747
aI24772748
aI24772749
aI24772750
aI24696975
aI24696977
aI24699026
aI24510611
aI24475797
aI24600726
aI24600727
aI24475800
aI24600729
aI24592538
aI24592539
aI24600732
aI24592541
aI24600734
aI24475807
aI24696992
aI24592546
aI24475811
aI24696996
aI24696997
aI24696998
aI24592552
aI24697001
aI24697002
aI24464001
aI24758444
aI24697005
aI24475822
aI24475824
aI24475826
aI24475827
aI24475830
aI24475831
aI24475833
aI24522938
aI24494267
aI24494268
aI24611330
aI24475838
aI24600767
aI24475840
aI24475841
aI24600770
aI24597050
aI24512886
aI24592582
aI24592585
aI24505719
aI24582348
aI24629813
aI24611332
aI24495821
aI24478072
aI24617170
aI24592596
aI24520743
aI24617176
aI24617177
aI24656090
aI24656091
aI24617180
aI24656093
aI24656094
aI24656095
aI24656096
aI24617185
aI24613090
aI24600803
aI24600804
aI24520742
aI24568043
aI24471250
aI24470100
aI24836337
aI24568052
aI24568053
aI24490232
aI24563962
aI24490235
aI24563965
aI24627925
aI24615168
aI24563969
aI24559875
aI24475813
aI24627926
aI24559879
aI24549645
aI24563982
aI24547600
aI24547601
aI24547602
aI24490264
aI24490266
aI24592667
aI24592669
aI24592670
aI24564001
aI24564002
aI24564005
aI24579283
aI24528614
aI24684855
aI24564035
aI24607045
aI24564038
aI24564039
aI24564040
aI24564041
aI24520759
aI24592550
aI24564045
aI24772942
aI24516943
aI24772944
aI24590673
aI24502087
aI24772947
aI24564054
aI24592727
aI24494424
aI24496868
aI24592730
aI24772955
aI24582493
aI24564063
aI24772960
aI24517008
aI24772965
aI24772968
aI24772969
aI24772970
aI24772972
aI24772973
aI24772975
aI24478066
aI24478067
aI24627573
aI24592758
aI24478071
aI24592760
aI24478074
aI24528618
aI24592766
aI24494463
aI24796080
aI24474006
aI24498679
aI24517002
aI24561010
aI24478094
aI24592783
aI24779152
aI24560024
aI24560018
aI24592787
aI24592788
aI24478101
aI24592790
aI24474009
aI24592792
aI24560025
aI24474010
aI24517022
aI24474015
aI24592800
aI24592804
aI24474023
aI24517033
aI24485959
aI24517038
aI24635824
aI24529329
aI24529330
aI24660403
aI24475835
aI24517047
aI24494521
aI24660411
aI24660412
aI24490431
aI24474016
aI24494530
aI24467914
aI24490443
aI24490444
aI24635854
aI24635856
aI24596948
aI24568277
aI24558762
aI24474020
aI24468258
aI24596971
aI24511708
aI24568252
aI24596985
aI24464005
aI24611326
aI24507753
aI24611328
aI24576513
aI24756738
aI24474027
aI24803844
aI24611333
aI24611334
aI24611335
aI24505772
aI24472074
aI24611340
aI24597005
aI24576526
aI24597007
aI24779280
aI24660580
aI24689170
aI24558764
aI24468228
aI24611361
aI24783395
aI24597028
aI24783397
aI24617129
aI24719914
aI24560173
aI24719918
aI24719921
aI24719923
aI24719924
aI24719925
aI24719926
aI24480311
aI24719929
aI24719930
aI24719933
aI24719937
aI24468034
aI24468035
aI24719943
aI24470088
aI24470089
aI24719946
aI24719948
aI24834637
aI24834638
aI24719951
aI24719952
aI24470099
aI24719956
aI24660565
aI24660566
aI24660567
aI24640092
aI24640093
aI24640094
aI24660575
aI24640096
aI24660577
aI24640098
aI24640099
aI24640100
aI24660581
aI24640102
aI24601191
aI24660585
aI24552042
aI24468123
aI24660588
aI24660591
aI24660592
aI24660594
aI24660595
aI24601205
aI24601206
aI24474233
aI24498810
aI24660603
aI24463996
aI24660605
aI24463998
aI24502037
aI24464000
aI24660609
aI24660610
aI24507962
aI24660612
aI24660613
aI24660614
aI24660615
aI24498826
aI24513163
aI24464012
aI24475802
aI24464014
aI24498831
aI24818320
aI24734353
aI24734354
aI24734355
aI24498838
aI24555289
aI24818328
aI24552089
aI24818330
aI24818331
aI24818333
aI24818335
aI24818336
aI24818337
aI24818338
aI24503067
aI24818340
aI24654504
aI24654505
aI24818346
aI24818347
aI24640172
aI24689325
aI24640175
aI24640176
aI24640177
aI24592757
aI24640184
aI24640186
aI24613566
aI24468256
aI24590454
aI24475816
aI24734407
aI24734408
aI24640201
aI24640202
aI24640203
aI24640204
aI24640205
aI24734417
aI24627924
aI24640213
aI24654550
aI24490448
aI24496866
aI24496867
aI24730340
aI24555302
aI24496871
aI24514103
aI24687338
aI24687339
aI24480492
aI24498926
aI24687344
aI24902388
aI24902389
aI24565545
aI24505920
aI24687353
aI24687355
aI24569301
aI24482944
aI24572674
aI24572675
aI24572676
aI24724231
aI24724234
aI24504791
aI24513294
aI24503063
aI24503065
aI24503066
aI24660763
aI24503068
aI24468253
aI24468254
aI24503071
aI24503072
aI24589090
aI24503077
aI24742698
aI24478098
aI24673086
aI24505786
aI24527682
aI24527683
aI24464867
aI24571022
aI24468311
aI24468313
aI24468314
aI24475791
aI24511663
aI24489445
aI24601193
aI24696978
aI24519534
aI24568687
aI24482963
aI24579242
aI24693625
aI24693626
aI24693627
aI24693628
aI24693629
aI24693632
aI24503171
aI24521609
aI24523659
aI24705932
aI24498901
aI24898453
aI24898454
aI24479215
aI24517533
aI24597408
aI24597412
aI24712101
aI24597416
aI24475804
aI24499114
aI24693675
aI24693676
aI24693677
aI24583086
aI24796079
aI24693680
aI24640434
aI24693683
aI24693685
aI24640438
aI24693687
aI24640440
aI24640441
aI24575418
aI24592544
aI24804299
aI24804300
aI24502040
aI24516975
aI24552407
aI24552408
aI24552411
aI24552415
aI24923105
aI24467680
aI24646628
aI24923109
aI24480745
aI24482983
aI24502440
aI24480756
aI24576510
aI24605687
aI24605691
aI24605692
aI24617130
aI24605694
aI24480767
aI24605696
aI24605697
aI24605698
aI24605699
aI24480773
aI24503809
aI24475695
aI24697004
aI24480765
aI24912909
aI24912910
aI24558765
aI24689681
aI24783891
aI24558766
aI24783897
aI24558767
aI24484861
aI24576517
aI24485403
aI24468315
aI24468316
aI24473718
aI24484911
aI24484912
aI24484913
aI24591411
aI24468534
aI24468319
aI24851522
aI24576524
aI24473061
aI24599629
aI24590861
aI24507841
aI24502249
aI24712276
aI24712277
aI24712278
aI24712279
aI24554584
aI24519770
aI24576527
aI24475834
aI24519778
aI24570979
aI24570980
aI24570981
aI24570982
aI24714346
aI24851568
aI24502803
aI24579243
aI24487031
aI24851576
aI24851577
aI24800383
aI24800384
aI24482945
aI24800386
aI24482950
aI24576516
aI24499336
aI24558758
aI24592542
aI24941712
aI24482962
aI24579244
aI24482965
aI24761494
aI24761496
aI24475844
aI24511646
aI24761503
aI24511648
aI24480770
aI24511651
aI24482980
aI24511653
aI24579238
aI24558759
aI24482984
aI24482985
aI24745130
aI24745131
aI24800428
aI24579245
aI24579246
aI24579247
aI24579248
aI24511665
aI24511666
aI24511669
aI24511670
aI24558775
aI24761528
aI24529328
aI24511691
aI24597025
aI24475793
aI24579274
aI24579275
aI24579276
aI24579282
aI24597027
aI24481931
aI24579286
aI24579287
aI24579288
aI24511706
aI24519899
aI24519900
aI24579293
aI24579294
aI24511712
aI24511715
aI24636645
aI24511718
aI24479279
aI24511720
aI24491241
aI24480757
aI24511724
aI24571117
aI24511726
aI24511727
aI24511728
aI24511730
aI24650995
aI24765689
aI24765691
aI24479274
aI24476933
aI24507847
aI24765704
aI24511754
aI24552038
aI24511758
aI24505901
aI24474227
aI24551982
aI24466713
aI24505903
aI24522013
aI24522017
aI24617179
aI24522021
aI24522022
aI24530215
aI24503592
aI24522025
aI24522026
aI24479282
aI24579374
aI24617181
aI24579376
aI24511793
aI24629811
aI24579384
aI24499514
aI24617183
aI24579388
aI24640829
aI24579390
aI24624447
aI24640832
aI24617184
aI24524099
aI24624454
aI24624455
aI24624456
aI24575543
aI24568034
aI24812879
aI24505681
aI24505682
aI24597049
aI24475817
aI24505689
aI24491355
aI24629818
aI24505696
aI24640865
aI24640866
aI24634939
aI24640868
aI24634940
aI24640875
aI24640876
aI24640878
aI24579442
aI24479294
aI24505718
aI24511863
aI24511864
aI24479295
aI24620412
aI24593791
aI24634944
aI24579460
aI24597398
aI24491244
aI24522122
aI24485267
aI24624537
aI24505755
aI24505756
aI24565153
aI24479142
aI24565205
aI24470087
aI24579500
aI24579502
aI24579506
aI24579510
aI24468041
aI24494324
aI24579514
aI24507835
aI24507836
aI24470090
aI24479211
aI24571329
aI24507842
aI24507846
aI24689322
aI24507848
aI24505804
aI24470093
aI24565202
aI24475555
aI24565204
aI24719950
aI24489430
aI24565207
aI24716761
aI24490234
aI24597413
aI24470096
aI24489443
aI24489444
aI24689323
aI24489446
aI24489447
aI24503785
aI24503786
aI24503787
aI24503790
aI24503791
aI24503792
aI24503793
aI24503794
aI24503796
aI24503797
aI24503798
aI24503799
aI24503800
aI24503801
aI24503802
aI24503803
aI24503805
aI24503806
aI24470101
aI24481280
aI24559872
aI24482981
aI24565253
aI24522246
aI24522247
aI24498922
aI24620558
aI24468252
aI24513455
aI24563973
aI24640432
aI24501794
aI24505893
aI24505896
aI24575530
aI24693682
aI24634927
aI24479280
aI24634929
aI24575538
aI24505907
aI24634932
aI24505909
aI24839734
aI24634935
aI24839736
aI24479289
aI24634938
aI24640095
aI24839740
aI24466599
aI24517132
aI24634943
aI24684096
aI24634946
aI24505925
aI24640097
aI24506153
aI24620623
aI24620624
aI24620625
aI24620626
aI24620628
aI24549646
aI24620631
aI24620632
aI24620633
aI24620636
aI24575581
aI24640101
aI24620643
aI24601190
aI24468251
aI24490257
aI24490258
aI24575599
aI24616566
aI24616567
aI24475583
aI24581758
aI24475584
aI24468417
aI24475808
aI24501586
aI24498790
aI24864401
aI24506005
aI24506008
aI24843935
aI24506016
aI24479287
aI24506026
aI24506031
aI24498803
aI24471224
aI24506042
aI24471228
aI24498805
aI24585846
aI24479288
aI24565450
aI24581835
aI24565453
aI24565455
aI24565456
aI24471249
aI24565458
aI24501793
aI24471257
aI24645338
aI24474234
aI24463995
aI24555238
aI24555239
aI24528616
aI24528617
aI24555242
aI24522023
aI24680175
aI24555257
aI24555265
aI24495874
aI24513456
aI24502022
aI24502023
aI24502024
aI24502030
aI24612623
aI24502032
aI24612625
aI24502034
aI24464003
aI24502036
aI24511790
aI24505887
aI24640437
aI24575583
aI24579375
aI24475687
aI24482943
aI24498821
aI24565536
aI24479291
aI24565538
aI24565539
aI24565540
aI24464006
aI24565542
aI24717097
aI24480391
aI24502060
aI24502065
aI24502069
aI24502070
aI24502072
aI24502073
aI24502077
aI24475814
aI24502082
aI24502083
aI24502085
aI24502086
aI24503265
aI24565577
aI24565579
aI24565580
aI24565583
aI24565584
aI24565585
aI24565586
aI24565587
aI24923108
aI24471387
aI24471389
aI24649570
aI24649573
aI24485191
aI24818321
aI24491880
aI24491881
aI24491882
aI24491883
aI24524093
aI24524094
aI24510327
aI24510329
aI24524095
aI24510333
aI24471247
aI24713092
aI24524097
aI24468247
aI24552088
aI24511811
aI24502167
aI24502169
aI24508317
aI24606821
aI24475553
aI24498843
aI24475556
aI24475558
aI24475559
aI24568018
aI24551339
aI24475564
aI24498845
aI24559539
aI24475577
aI24610751
aI24551360
aI24475585
aI24475586
aI24475592
aI24564044
aI24689314
aI24479736
aI24551387
aI24946662
aI24524775
aI24680425
aI24468250
aI24551405
aI24605693
aI24564051
aI24689321
aI24498793
aI24654506
aI24475684
atp2
Rp3
.